
hw:     file format elf64-littleriscv


Disassembly of section .text:

00000000000100b0 <register_fini>:
   100b0:	ffff0797          	auipc	a5,0xffff0
   100b4:	f5078793          	addi	a5,a5,-176 # 0 <register_fini-0x100b0>
   100b8:	c791                	beqz	a5,100c4 <register_fini+0x14>
   100ba:	00000517          	auipc	a0,0x0
   100be:	0e850513          	addi	a0,a0,232 # 101a2 <__libc_fini_array>
   100c2:	a855                	j	10176 <atexit>
   100c4:	8082                	ret

00000000000100c6 <_start>:
   100c6:	0000e197          	auipc	gp,0xe
   100ca:	6da18193          	addi	gp,gp,1754 # 1e7a0 <__global_pointer$>
   100ce:	77018513          	addi	a0,gp,1904 # 1ef10 <_edata>
   100d2:	0000f617          	auipc	a2,0xf
   100d6:	ece60613          	addi	a2,a2,-306 # 1efa0 <__BSS_END__>
   100da:	8e09                	sub	a2,a2,a0
   100dc:	4581                	li	a1,0
   100de:	166000ef          	jal	ra,10244 <memset>
   100e2:	00000517          	auipc	a0,0x0
   100e6:	0c050513          	addi	a0,a0,192 # 101a2 <__libc_fini_array>
   100ea:	08c000ef          	jal	ra,10176 <atexit>
   100ee:	0ec000ef          	jal	ra,101da <__libc_init_array>
   100f2:	4502                	lw	a0,0(sp)
   100f4:	002c                	addi	a1,sp,8
   100f6:	4601                	li	a2,0
   100f8:	060000ef          	jal	ra,10158 <main>
   100fc:	a059                	j	10182 <exit>

00000000000100fe <__do_global_dtors_aux>:
   100fe:	7981c783          	lbu	a5,1944(gp) # 1ef38 <completed.5470>
   10102:	eb95                	bnez	a5,10136 <__do_global_dtors_aux+0x38>
   10104:	ffff0797          	auipc	a5,0xffff0
   10108:	efc78793          	addi	a5,a5,-260 # 0 <register_fini-0x100b0>
   1010c:	c38d                	beqz	a5,1012e <__do_global_dtors_aux+0x30>
   1010e:	1141                	addi	sp,sp,-16
   10110:	0000e517          	auipc	a0,0xe
   10114:	c8850513          	addi	a0,a0,-888 # 1dd98 <__FRAME_END__>
   10118:	e406                	sd	ra,8(sp)
   1011a:	00000097          	auipc	ra,0x0
   1011e:	000000e7          	jalr	zero # 0 <register_fini-0x100b0>
   10122:	60a2                	ld	ra,8(sp)
   10124:	4785                	li	a5,1
   10126:	78f18c23          	sb	a5,1944(gp) # 1ef38 <completed.5470>
   1012a:	0141                	addi	sp,sp,16
   1012c:	8082                	ret
   1012e:	4785                	li	a5,1
   10130:	78f18c23          	sb	a5,1944(gp) # 1ef38 <completed.5470>
   10134:	8082                	ret
   10136:	8082                	ret

0000000000010138 <frame_dummy>:
   10138:	ffff0797          	auipc	a5,0xffff0
   1013c:	ec878793          	addi	a5,a5,-312 # 0 <register_fini-0x100b0>
   10140:	cb99                	beqz	a5,10156 <frame_dummy+0x1e>
   10142:	7a018593          	addi	a1,gp,1952 # 1ef40 <object.5475>
   10146:	0000e517          	auipc	a0,0xe
   1014a:	c5250513          	addi	a0,a0,-942 # 1dd98 <__FRAME_END__>
   1014e:	00000317          	auipc	t1,0x0
   10152:	00000067          	jr	zero # 0 <register_fini-0x100b0>
   10156:	8082                	ret

0000000000010158 <main>:
   10158:	1141                	addi	sp,sp,-16
   1015a:	e406                	sd	ra,8(sp)
   1015c:	e022                	sd	s0,0(sp)
   1015e:	0800                	addi	s0,sp,16
   10160:	67f1                	lui	a5,0x1c
   10162:	09078513          	addi	a0,a5,144 # 1c090 <__clzdi2+0x34>
   10166:	1ac000ef          	jal	ra,10312 <printf>
   1016a:	4781                	li	a5,0
   1016c:	853e                	mv	a0,a5
   1016e:	60a2                	ld	ra,8(sp)
   10170:	6402                	ld	s0,0(sp)
   10172:	0141                	addi	sp,sp,16
   10174:	8082                	ret

0000000000010176 <atexit>:
   10176:	85aa                	mv	a1,a0
   10178:	4681                	li	a3,0
   1017a:	4601                	li	a2,0
   1017c:	4501                	li	a0,0
   1017e:	75d0106f          	j	120da <__register_exitproc>

0000000000010182 <exit>:
   10182:	1141                	addi	sp,sp,-16
   10184:	4581                	li	a1,0
   10186:	e022                	sd	s0,0(sp)
   10188:	e406                	sd	ra,8(sp)
   1018a:	842a                	mv	s0,a0
   1018c:	7c7010ef          	jal	ra,12152 <__call_exitprocs>
   10190:	74818793          	addi	a5,gp,1864 # 1eee8 <_global_impure_ptr>
   10194:	6388                	ld	a0,0(a5)
   10196:	6d3c                	ld	a5,88(a0)
   10198:	c391                	beqz	a5,1019c <exit+0x1a>
   1019a:	9782                	jalr	a5
   1019c:	8522                	mv	a0,s0
   1019e:	0d10a0ef          	jal	ra,1aa6e <_exit>

00000000000101a2 <__libc_fini_array>:
   101a2:	1101                	addi	sp,sp,-32
   101a4:	e822                	sd	s0,16(sp)
   101a6:	0000e797          	auipc	a5,0xe
   101aa:	c1278793          	addi	a5,a5,-1006 # 1ddb8 <__fini_array_end>
   101ae:	0000e417          	auipc	s0,0xe
   101b2:	c0240413          	addi	s0,s0,-1022 # 1ddb0 <__init_array_end>
   101b6:	8f81                	sub	a5,a5,s0
   101b8:	e426                	sd	s1,8(sp)
   101ba:	ec06                	sd	ra,24(sp)
   101bc:	4037d493          	srai	s1,a5,0x3
   101c0:	c881                	beqz	s1,101d0 <__libc_fini_array+0x2e>
   101c2:	17e1                	addi	a5,a5,-8
   101c4:	943e                	add	s0,s0,a5
   101c6:	601c                	ld	a5,0(s0)
   101c8:	14fd                	addi	s1,s1,-1
   101ca:	1461                	addi	s0,s0,-8
   101cc:	9782                	jalr	a5
   101ce:	fce5                	bnez	s1,101c6 <__libc_fini_array+0x24>
   101d0:	60e2                	ld	ra,24(sp)
   101d2:	6442                	ld	s0,16(sp)
   101d4:	64a2                	ld	s1,8(sp)
   101d6:	6105                	addi	sp,sp,32
   101d8:	8082                	ret

00000000000101da <__libc_init_array>:
   101da:	1101                	addi	sp,sp,-32
   101dc:	e822                	sd	s0,16(sp)
   101de:	e04a                	sd	s2,0(sp)
   101e0:	0000e417          	auipc	s0,0xe
   101e4:	bbc40413          	addi	s0,s0,-1092 # 1dd9c <__preinit_array_end>
   101e8:	0000e917          	auipc	s2,0xe
   101ec:	bb490913          	addi	s2,s2,-1100 # 1dd9c <__preinit_array_end>
   101f0:	40890933          	sub	s2,s2,s0
   101f4:	ec06                	sd	ra,24(sp)
   101f6:	e426                	sd	s1,8(sp)
   101f8:	40395913          	srai	s2,s2,0x3
   101fc:	00090963          	beqz	s2,1020e <__libc_init_array+0x34>
   10200:	4481                	li	s1,0
   10202:	601c                	ld	a5,0(s0)
   10204:	0485                	addi	s1,s1,1
   10206:	0421                	addi	s0,s0,8
   10208:	9782                	jalr	a5
   1020a:	fe991ce3          	bne	s2,s1,10202 <__libc_init_array+0x28>
   1020e:	0000e417          	auipc	s0,0xe
   10212:	b9240413          	addi	s0,s0,-1134 # 1dda0 <__init_array_start>
   10216:	0000e917          	auipc	s2,0xe
   1021a:	b9a90913          	addi	s2,s2,-1126 # 1ddb0 <__init_array_end>
   1021e:	40890933          	sub	s2,s2,s0
   10222:	40395913          	srai	s2,s2,0x3
   10226:	00090963          	beqz	s2,10238 <__libc_init_array+0x5e>
   1022a:	4481                	li	s1,0
   1022c:	601c                	ld	a5,0(s0)
   1022e:	0485                	addi	s1,s1,1
   10230:	0421                	addi	s0,s0,8
   10232:	9782                	jalr	a5
   10234:	fe991ce3          	bne	s2,s1,1022c <__libc_init_array+0x52>
   10238:	60e2                	ld	ra,24(sp)
   1023a:	6442                	ld	s0,16(sp)
   1023c:	64a2                	ld	s1,8(sp)
   1023e:	6902                	ld	s2,0(sp)
   10240:	6105                	addi	sp,sp,32
   10242:	8082                	ret

0000000000010244 <memset>:
   10244:	433d                	li	t1,15
   10246:	872a                	mv	a4,a0
   10248:	02c37163          	bgeu	t1,a2,1026a <memset+0x26>
   1024c:	00f77793          	andi	a5,a4,15
   10250:	e3c1                	bnez	a5,102d0 <memset+0x8c>
   10252:	e1bd                	bnez	a1,102b8 <memset+0x74>
   10254:	ff067693          	andi	a3,a2,-16
   10258:	8a3d                	andi	a2,a2,15
   1025a:	96ba                	add	a3,a3,a4
   1025c:	e30c                	sd	a1,0(a4)
   1025e:	e70c                	sd	a1,8(a4)
   10260:	0741                	addi	a4,a4,16
   10262:	fed76de3          	bltu	a4,a3,1025c <memset+0x18>
   10266:	e211                	bnez	a2,1026a <memset+0x26>
   10268:	8082                	ret
   1026a:	40c306b3          	sub	a3,t1,a2
   1026e:	068a                	slli	a3,a3,0x2
   10270:	00000297          	auipc	t0,0x0
   10274:	9696                	add	a3,a3,t0
   10276:	00a68067          	jr	10(a3)
   1027a:	00b70723          	sb	a1,14(a4)
   1027e:	00b706a3          	sb	a1,13(a4)
   10282:	00b70623          	sb	a1,12(a4)
   10286:	00b705a3          	sb	a1,11(a4)
   1028a:	00b70523          	sb	a1,10(a4)
   1028e:	00b704a3          	sb	a1,9(a4)
   10292:	00b70423          	sb	a1,8(a4)
   10296:	00b703a3          	sb	a1,7(a4)
   1029a:	00b70323          	sb	a1,6(a4)
   1029e:	00b702a3          	sb	a1,5(a4)
   102a2:	00b70223          	sb	a1,4(a4)
   102a6:	00b701a3          	sb	a1,3(a4)
   102aa:	00b70123          	sb	a1,2(a4)
   102ae:	00b700a3          	sb	a1,1(a4)
   102b2:	00b70023          	sb	a1,0(a4)
   102b6:	8082                	ret
   102b8:	0ff5f593          	andi	a1,a1,255
   102bc:	00859693          	slli	a3,a1,0x8
   102c0:	8dd5                	or	a1,a1,a3
   102c2:	01059693          	slli	a3,a1,0x10
   102c6:	8dd5                	or	a1,a1,a3
   102c8:	02059693          	slli	a3,a1,0x20
   102cc:	8dd5                	or	a1,a1,a3
   102ce:	b759                	j	10254 <memset+0x10>
   102d0:	00279693          	slli	a3,a5,0x2
   102d4:	00000297          	auipc	t0,0x0
   102d8:	9696                	add	a3,a3,t0
   102da:	8286                	mv	t0,ra
   102dc:	fa2680e7          	jalr	-94(a3)
   102e0:	8096                	mv	ra,t0
   102e2:	17c1                	addi	a5,a5,-16
   102e4:	8f1d                	sub	a4,a4,a5
   102e6:	963e                	add	a2,a2,a5
   102e8:	f8c371e3          	bgeu	t1,a2,1026a <memset+0x26>
   102ec:	b79d                	j	10252 <memset+0xe>

00000000000102ee <_printf_r>:
   102ee:	715d                	addi	sp,sp,-80
   102f0:	f032                	sd	a2,32(sp)
   102f2:	f436                	sd	a3,40(sp)
   102f4:	fc3e                	sd	a5,56(sp)
   102f6:	f83a                	sd	a4,48(sp)
   102f8:	e0c2                	sd	a6,64(sp)
   102fa:	e4c6                	sd	a7,72(sp)
   102fc:	862e                	mv	a2,a1
   102fe:	690c                	ld	a1,16(a0)
   10300:	101c                	addi	a5,sp,32
   10302:	86be                	mv	a3,a5
   10304:	ec06                	sd	ra,24(sp)
   10306:	e43e                	sd	a5,8(sp)
   10308:	03c000ef          	jal	ra,10344 <_vfprintf_r>
   1030c:	60e2                	ld	ra,24(sp)
   1030e:	6161                	addi	sp,sp,80
   10310:	8082                	ret

0000000000010312 <printf>:
   10312:	75818313          	addi	t1,gp,1880 # 1eef8 <_impure_ptr>
   10316:	00033303          	ld	t1,0(t1) # 1014e <frame_dummy+0x16>
   1031a:	711d                	addi	sp,sp,-96
   1031c:	f832                	sd	a2,48(sp)
   1031e:	fc36                	sd	a3,56(sp)
   10320:	e4be                	sd	a5,72(sp)
   10322:	f42e                	sd	a1,40(sp)
   10324:	e0ba                	sd	a4,64(sp)
   10326:	e8c2                	sd	a6,80(sp)
   10328:	ecc6                	sd	a7,88(sp)
   1032a:	01033583          	ld	a1,16(t1)
   1032e:	103c                	addi	a5,sp,40
   10330:	862a                	mv	a2,a0
   10332:	86be                	mv	a3,a5
   10334:	851a                	mv	a0,t1
   10336:	ec06                	sd	ra,24(sp)
   10338:	e43e                	sd	a5,8(sp)
   1033a:	00a000ef          	jal	ra,10344 <_vfprintf_r>
   1033e:	60e2                	ld	ra,24(sp)
   10340:	6125                	addi	sp,sp,96
   10342:	8082                	ret

0000000000010344 <_vfprintf_r>:
   10344:	d8010113          	addi	sp,sp,-640
   10348:	26113c23          	sd	ra,632(sp)
   1034c:	25413823          	sd	s4,592(sp)
   10350:	25513423          	sd	s5,584(sp)
   10354:	23a13023          	sd	s10,544(sp)
   10358:	8a2e                	mv	s4,a1
   1035a:	8d32                	mv	s10,a2
   1035c:	e836                	sd	a3,16(sp)
   1035e:	26813823          	sd	s0,624(sp)
   10362:	26913423          	sd	s1,616(sp)
   10366:	27213023          	sd	s2,608(sp)
   1036a:	25313c23          	sd	s3,600(sp)
   1036e:	25613023          	sd	s6,576(sp)
   10372:	23713c23          	sd	s7,568(sp)
   10376:	23813823          	sd	s8,560(sp)
   1037a:	23913423          	sd	s9,552(sp)
   1037e:	21b13c23          	sd	s11,536(sp)
   10382:	8aaa                	mv	s5,a0
   10384:	7e4040ef          	jal	ra,14b68 <_localeconv_r>
   10388:	611c                	ld	a5,0(a0)
   1038a:	853e                	mv	a0,a5
   1038c:	e13e                	sd	a5,128(sp)
   1038e:	7bd050ef          	jal	ra,1634a <strlen>
   10392:	fcaa                	sd	a0,120(sp)
   10394:	e202                	sd	zero,256(sp)
   10396:	e602                	sd	zero,264(sp)
   10398:	000a8663          	beqz	s5,103a4 <_vfprintf_r+0x60>
   1039c:	050aa783          	lw	a5,80(s5)
   103a0:	1c0789e3          	beqz	a5,10d72 <_vfprintf_r+0xa2e>
   103a4:	010a1683          	lh	a3,16(s4)
   103a8:	03069793          	slli	a5,a3,0x30
   103ac:	93c1                	srli	a5,a5,0x30
   103ae:	03279713          	slli	a4,a5,0x32
   103b2:	00074f63          	bltz	a4,103d0 <_vfprintf_r+0x8c>
   103b6:	0aca2603          	lw	a2,172(s4)
   103ba:	6789                	lui	a5,0x2
   103bc:	8fd5                	or	a5,a5,a3
   103be:	76f9                	lui	a3,0xffffe
   103c0:	16fd                	addi	a3,a3,-1
   103c2:	8ef1                	and	a3,a3,a2
   103c4:	00fa1823          	sh	a5,16(s4)
   103c8:	17c2                	slli	a5,a5,0x30
   103ca:	0ada2623          	sw	a3,172(s4)
   103ce:	93c1                	srli	a5,a5,0x30
   103d0:	0087f693          	andi	a3,a5,8
   103d4:	c2fd                	beqz	a3,104ba <_vfprintf_r+0x176>
   103d6:	018a3683          	ld	a3,24(s4)
   103da:	c2e5                	beqz	a3,104ba <_vfprintf_r+0x176>
   103dc:	8be9                	andi	a5,a5,26
   103de:	46a9                	li	a3,10
   103e0:	0ed78a63          	beq	a5,a3,104d4 <_vfprintf_r+0x190>
   103e4:	000d4783          	lbu	a5,0(s10)
   103e8:	19010b13          	addi	s6,sp,400
   103ec:	ea5a                	sd	s6,272(sp)
   103ee:	f202                	sd	zero,288(sp)
   103f0:	10012c23          	sw	zero,280(sp)
   103f4:	f402                	sd	zero,40(sp)
   103f6:	f802                	sd	zero,48(sp)
   103f8:	e902                	sd	zero,144(sp)
   103fa:	f882                	sd	zero,112(sp)
   103fc:	e502                	sd	zero,136(sp)
   103fe:	ed02                	sd	zero,152(sp)
   10400:	e402                	sd	zero,8(sp)
   10402:	835a                	mv	t1,s6
   10404:	4dc1                	li	s11,16
   10406:	0000c917          	auipc	s2,0xc
   1040a:	e1a90913          	addi	s2,s2,-486 # 1c220 <zeroes.4541>
   1040e:	74078d63          	beqz	a5,10b68 <_vfprintf_r+0x824>
   10412:	02500693          	li	a3,37
   10416:	00d79463          	bne	a5,a3,1041e <_vfprintf_r+0xda>
   1041a:	09a0106f          	j	114b4 <_vfprintf_r+0x1170>
   1041e:	846a                	mv	s0,s10
   10420:	a021                	j	10428 <_vfprintf_r+0xe4>
   10422:	0cd78563          	beq	a5,a3,104ec <_vfprintf_r+0x1a8>
   10426:	844e                	mv	s0,s3
   10428:	00144783          	lbu	a5,1(s0)
   1042c:	00140993          	addi	s3,s0,1
   10430:	fbed                	bnez	a5,10422 <_vfprintf_r+0xde>
   10432:	41a984bb          	subw	s1,s3,s10
   10436:	72048963          	beqz	s1,10b68 <_vfprintf_r+0x824>
   1043a:	7692                	ld	a3,288(sp)
   1043c:	11812783          	lw	a5,280(sp)
   10440:	01a33023          	sd	s10,0(t1)
   10444:	96a6                	add	a3,a3,s1
   10446:	2785                	addiw	a5,a5,1
   10448:	00933423          	sd	s1,8(t1)
   1044c:	f236                	sd	a3,288(sp)
   1044e:	10f12c23          	sw	a5,280(sp)
   10452:	0007869b          	sext.w	a3,a5
   10456:	479d                	li	a5,7
   10458:	0341                	addi	t1,t1,16
   1045a:	08d7cd63          	blt	a5,a3,104f4 <_vfprintf_r+0x1b0>
   1045e:	6722                	ld	a4,8(sp)
   10460:	00144783          	lbu	a5,1(s0)
   10464:	9f25                	addw	a4,a4,s1
   10466:	e43a                	sd	a4,8(sp)
   10468:	70078063          	beqz	a5,10b68 <_vfprintf_r+0x824>
   1046c:	00198493          	addi	s1,s3,1
   10470:	0019cf03          	lbu	t5,1(s3)
   10474:	0c010fa3          	sb	zero,223(sp)
   10478:	5efd                	li	t4,-1
   1047a:	4b81                	li	s7,0
   1047c:	4401                	li	s0,0
   1047e:	49a5                	li	s3,9
   10480:	02a00c13          	li	s8,42
   10484:	0485                	addi	s1,s1,1
   10486:	000f0c9b          	sext.w	s9,t5
   1048a:	05a00613          	li	a2,90
   1048e:	fe0c879b          	addiw	a5,s9,-32
   10492:	0007869b          	sext.w	a3,a5
   10496:	18d66763          	bltu	a2,a3,10624 <_vfprintf_r+0x2e0>
   1049a:	1782                	slli	a5,a5,0x20
   1049c:	0000c717          	auipc	a4,0xc
   104a0:	c0470713          	addi	a4,a4,-1020 # 1c0a0 <__clzdi2+0x44>
   104a4:	83f9                	srli	a5,a5,0x1e
   104a6:	97ba                	add	a5,a5,a4
   104a8:	439c                	lw	a5,0(a5)
   104aa:	97ba                	add	a5,a5,a4
   104ac:	8782                	jr	a5
   104ae:	01046413          	ori	s0,s0,16
   104b2:	2401                	sext.w	s0,s0
   104b4:	0004cf03          	lbu	t5,0(s1)
   104b8:	b7f1                	j	10484 <_vfprintf_r+0x140>
   104ba:	85d2                	mv	a1,s4
   104bc:	8556                	mv	a0,s5
   104be:	329010ef          	jal	ra,11fe6 <__swsetup_r>
   104c2:	c119                	beqz	a0,104c8 <_vfprintf_r+0x184>
   104c4:	7cc0106f          	j	11c90 <_vfprintf_r+0x194c>
   104c8:	010a5783          	lhu	a5,16(s4)
   104cc:	46a9                	li	a3,10
   104ce:	8be9                	andi	a5,a5,26
   104d0:	f0d79ae3          	bne	a5,a3,103e4 <_vfprintf_r+0xa0>
   104d4:	012a1783          	lh	a5,18(s4)
   104d8:	f007c6e3          	bltz	a5,103e4 <_vfprintf_r+0xa0>
   104dc:	66c2                	ld	a3,16(sp)
   104de:	866a                	mv	a2,s10
   104e0:	85d2                	mv	a1,s4
   104e2:	8556                	mv	a0,s5
   104e4:	26f010ef          	jal	ra,11f52 <__sbprintf>
   104e8:	e42a                	sd	a0,8(sp)
   104ea:	a089                	j	1052c <_vfprintf_r+0x1e8>
   104ec:	41a984bb          	subw	s1,s3,s10
   104f0:	dcb5                	beqz	s1,1046c <_vfprintf_r+0x128>
   104f2:	b7a1                	j	1043a <_vfprintf_r+0xf6>
   104f4:	0a10                	addi	a2,sp,272
   104f6:	85d2                	mv	a1,s4
   104f8:	8556                	mv	a0,s5
   104fa:	3d3070ef          	jal	ra,180cc <__sprint_r>
   104fe:	e105                	bnez	a0,1051e <_vfprintf_r+0x1da>
   10500:	835a                	mv	t1,s6
   10502:	bfb1                	j	1045e <_vfprintf_r+0x11a>
   10504:	0a10                	addi	a2,sp,272
   10506:	85d2                	mv	a1,s4
   10508:	8556                	mv	a0,s5
   1050a:	3c3070ef          	jal	ra,180cc <__sprint_r>
   1050e:	62050f63          	beqz	a0,10b4c <_vfprintf_r+0x808>
   10512:	7782                	ld	a5,32(sp)
   10514:	c789                	beqz	a5,1051e <_vfprintf_r+0x1da>
   10516:	85be                	mv	a1,a5
   10518:	8556                	mv	a0,s5
   1051a:	238020ef          	jal	ra,12752 <_free_r>
   1051e:	010a5783          	lhu	a5,16(s4)
   10522:	0407f793          	andi	a5,a5,64
   10526:	c399                	beqz	a5,1052c <_vfprintf_r+0x1e8>
   10528:	7680106f          	j	11c90 <_vfprintf_r+0x194c>
   1052c:	27813083          	ld	ra,632(sp)
   10530:	27013403          	ld	s0,624(sp)
   10534:	6522                	ld	a0,8(sp)
   10536:	26813483          	ld	s1,616(sp)
   1053a:	26013903          	ld	s2,608(sp)
   1053e:	25813983          	ld	s3,600(sp)
   10542:	25013a03          	ld	s4,592(sp)
   10546:	24813a83          	ld	s5,584(sp)
   1054a:	24013b03          	ld	s6,576(sp)
   1054e:	23813b83          	ld	s7,568(sp)
   10552:	23013c03          	ld	s8,560(sp)
   10556:	22813c83          	ld	s9,552(sp)
   1055a:	22013d03          	ld	s10,544(sp)
   1055e:	21813d83          	ld	s11,536(sp)
   10562:	28010113          	addi	sp,sp,640
   10566:	8082                	ret
   10568:	66c2                	ld	a3,16(sp)
   1056a:	0000c797          	auipc	a5,0xc
   1056e:	d1678793          	addi	a5,a5,-746 # 1c280 <zeroes.4541+0x60>
   10572:	f83e                	sd	a5,48(sp)
   10574:	02047793          	andi	a5,s0,32
   10578:	00868713          	addi	a4,a3,8 # ffffffffffffe008 <__BSS_END__+0xfffffffffffdf068>
   1057c:	cbf1                	beqz	a5,10650 <_vfprintf_r+0x30c>
   1057e:	0006b983          	ld	s3,0(a3)
   10582:	00147793          	andi	a5,s0,1
   10586:	cf81                	beqz	a5,1059e <_vfprintf_r+0x25a>
   10588:	00098b63          	beqz	s3,1059e <_vfprintf_r+0x25a>
   1058c:	00246413          	ori	s0,s0,2
   10590:	03000793          	li	a5,48
   10594:	0ef10023          	sb	a5,224(sp)
   10598:	0f9100a3          	sb	s9,225(sp)
   1059c:	2401                	sext.w	s0,s0
   1059e:	bff47693          	andi	a3,s0,-1025
   105a2:	2681                	sext.w	a3,a3
   105a4:	e83a                	sd	a4,16(sp)
   105a6:	4789                	li	a5,2
   105a8:	0c010fa3          	sb	zero,223(sp)
   105ac:	577d                	li	a4,-1
   105ae:	46ee8063          	beq	t4,a4,10a0e <_vfprintf_r+0x6ca>
   105b2:	f7f6f413          	andi	s0,a3,-129
   105b6:	2401                	sext.w	s0,s0
   105b8:	2c099be3          	bnez	s3,1108e <_vfprintf_r+0xd4a>
   105bc:	400e98e3          	bnez	t4,111cc <_vfprintf_r+0xe88>
   105c0:	3c079163          	bnez	a5,10982 <_vfprintf_r+0x63e>
   105c4:	0016fc13          	andi	s8,a3,1
   105c8:	18c10d13          	addi	s10,sp,396
   105cc:	5c0c12e3          	bnez	s8,11390 <_vfprintf_r+0x104c>
   105d0:	000c099b          	sext.w	s3,s8
   105d4:	01dc5463          	bge	s8,t4,105dc <_vfprintf_r+0x298>
   105d8:	000e899b          	sext.w	s3,t4
   105dc:	0df14783          	lbu	a5,223(sp)
   105e0:	f002                	sd	zero,32(sp)
   105e2:	ec82                	sd	zero,88(sp)
   105e4:	f482                	sd	zero,104(sp)
   105e6:	f082                	sd	zero,96(sp)
   105e8:	48078b63          	beqz	a5,10a7e <_vfprintf_r+0x73a>
   105ec:	2985                	addiw	s3,s3,1
   105ee:	a941                	j	10a7e <_vfprintf_r+0x73a>
   105f0:	4b81                	li	s7,0
   105f2:	0485                	addi	s1,s1,1
   105f4:	fff4c683          	lbu	a3,-1(s1)
   105f8:	002b979b          	slliw	a5,s7,0x2
   105fc:	01778bbb          	addw	s7,a5,s7
   10600:	fd0c8f1b          	addiw	t5,s9,-48
   10604:	001b9b9b          	slliw	s7,s7,0x1
   10608:	fd06879b          	addiw	a5,a3,-48
   1060c:	017f0bbb          	addw	s7,t5,s7
   10610:	00068c9b          	sext.w	s9,a3
   10614:	fcf9ffe3          	bgeu	s3,a5,105f2 <_vfprintf_r+0x2ae>
   10618:	fe0c879b          	addiw	a5,s9,-32
   1061c:	0007869b          	sext.w	a3,a5
   10620:	e6d67de3          	bgeu	a2,a3,1049a <_vfprintf_r+0x156>
   10624:	540c8263          	beqz	s9,10b68 <_vfprintf_r+0x824>
   10628:	13910423          	sb	s9,296(sp)
   1062c:	0c010fa3          	sb	zero,223(sp)
   10630:	4985                	li	s3,1
   10632:	4c05                	li	s8,1
   10634:	12810d13          	addi	s10,sp,296
   10638:	a935                	j	10a74 <_vfprintf_r+0x730>
   1063a:	66c2                	ld	a3,16(sp)
   1063c:	0000c797          	auipc	a5,0xc
   10640:	c5c78793          	addi	a5,a5,-932 # 1c298 <zeroes.4541+0x78>
   10644:	f83e                	sd	a5,48(sp)
   10646:	02047793          	andi	a5,s0,32
   1064a:	00868713          	addi	a4,a3,8
   1064e:	fb85                	bnez	a5,1057e <_vfprintf_r+0x23a>
   10650:	01047793          	andi	a5,s0,16
   10654:	560799e3          	bnez	a5,113c6 <_vfprintf_r+0x1082>
   10658:	66c2                	ld	a3,16(sp)
   1065a:	04047793          	andi	a5,s0,64
   1065e:	0006a983          	lw	s3,0(a3)
   10662:	e399                	bnez	a5,10668 <_vfprintf_r+0x324>
   10664:	78f0006f          	j	115f2 <_vfprintf_r+0x12ae>
   10668:	19c2                	slli	s3,s3,0x30
   1066a:	0309d993          	srli	s3,s3,0x30
   1066e:	bf11                	j	10582 <_vfprintf_r+0x23e>
   10670:	0004cf03          	lbu	t5,0(s1)
   10674:	00446413          	ori	s0,s0,4
   10678:	2401                	sext.w	s0,s0
   1067a:	b529                	j	10484 <_vfprintf_r+0x140>
   1067c:	0004cf03          	lbu	t5,0(s1)
   10680:	06800793          	li	a5,104
   10684:	58ff0de3          	beq	t5,a5,1141e <_vfprintf_r+0x10da>
   10688:	04046413          	ori	s0,s0,64
   1068c:	2401                	sext.w	s0,s0
   1068e:	bbdd                	j	10484 <_vfprintf_r+0x140>
   10690:	00847793          	andi	a5,s0,8
   10694:	50079be3          	bnez	a5,113aa <_vfprintf_r+0x1066>
   10698:	67c2                	ld	a5,16(sp)
   1069a:	f01a                	sd	t1,32(sp)
   1069c:	ec76                	sd	t4,24(sp)
   1069e:	2388                	fld	fa0,0(a5)
   106a0:	07a1                	addi	a5,a5,8
   106a2:	e83e                	sd	a5,16(sp)
   106a4:	6cc0b0ef          	jal	ra,1bd70 <__extenddftf2>
   106a8:	7302                	ld	t1,32(sp)
   106aa:	6ee2                	ld	t4,24(sp)
   106ac:	e22a                	sd	a0,256(sp)
   106ae:	e62e                	sd	a1,264(sp)
   106b0:	0208                	addi	a0,sp,256
   106b2:	f01a                	sd	t1,32(sp)
   106b4:	ec76                	sd	t4,24(sp)
   106b6:	476040ef          	jal	ra,14b2c <_ldcheck>
   106ba:	d5aa                	sw	a0,232(sp)
   106bc:	4789                	li	a5,2
   106be:	6ee2                	ld	t4,24(sp)
   106c0:	7302                	ld	t1,32(sp)
   106c2:	6af50ae3          	beq	a0,a5,11576 <_vfprintf_r+0x1232>
   106c6:	4785                	li	a5,1
   106c8:	76f50de3          	beq	a0,a5,11642 <_vfprintf_r+0x12fe>
   106cc:	06100793          	li	a5,97
   106d0:	00fc9463          	bne	s9,a5,106d8 <_vfprintf_r+0x394>
   106d4:	65a0106f          	j	11d2e <_vfprintf_r+0x19ea>
   106d8:	04100793          	li	a5,65
   106dc:	00fc9463          	bne	s9,a5,106e4 <_vfprintf_r+0x3a0>
   106e0:	1f80106f          	j	118d8 <_vfprintf_r+0x1594>
   106e4:	fdfcf713          	andi	a4,s9,-33
   106e8:	57fd                	li	a5,-1
   106ea:	f53a                	sd	a4,168(sp)
   106ec:	00fe9463          	bne	t4,a5,106f4 <_vfprintf_r+0x3b0>
   106f0:	6e00106f          	j	11dd0 <_vfprintf_r+0x1a8c>
   106f4:	04700793          	li	a5,71
   106f8:	00f71463          	bne	a4,a5,10700 <_vfprintf_r+0x3bc>
   106fc:	6be0106f          	j	11dba <_vfprintf_r+0x1a76>
   10700:	6c32                	ld	s8,264(sp)
   10702:	10046793          	ori	a5,s0,256
   10706:	f922                	sd	s0,176(sp)
   10708:	2781                	sext.w	a5,a5
   1070a:	6f92                	ld	t6,256(sp)
   1070c:	000c5463          	bgez	s8,10714 <_vfprintf_r+0x3d0>
   10710:	4840106f          	j	11b94 <_vfprintf_r+0x1850>
   10714:	e582                	sd	zero,200(sp)
   10716:	843e                	mv	s0,a5
   10718:	f002                	sd	zero,32(sp)
   1071a:	772a                	ld	a4,168(sp)
   1071c:	04600793          	li	a5,70
   10720:	00f71463          	bne	a4,a5,10728 <_vfprintf_r+0x3e4>
   10724:	38a0106f          	j	11aae <_vfprintf_r+0x176a>
   10728:	04500793          	li	a5,69
   1072c:	fc1a                	sd	t1,56(sp)
   1072e:	00f71463          	bne	a4,a5,10736 <_vfprintf_r+0x3f2>
   10732:	65c0106f          	j	11d8e <_vfprintf_r+0x1a4a>
   10736:	8776                	mv	a4,t4
   10738:	11bc                	addi	a5,sp,232
   1073a:	85fe                	mv	a1,t6
   1073c:	0f810893          	addi	a7,sp,248
   10740:	0ec10813          	addi	a6,sp,236
   10744:	4689                	li	a3,2
   10746:	8662                	mv	a2,s8
   10748:	8556                	mv	a0,s5
   1074a:	f476                	sd	t4,40(sp)
   1074c:	ec7e                	sd	t6,24(sp)
   1074e:	516030ef          	jal	ra,13c64 <_ldtoa_r>
   10752:	772a                	ld	a4,168(sp)
   10754:	04700793          	li	a5,71
   10758:	8d2a                	mv	s10,a0
   1075a:	6fe2                	ld	t6,24(sp)
   1075c:	7ea2                	ld	t4,40(sp)
   1075e:	7362                	ld	t1,56(sp)
   10760:	00f70463          	beq	a4,a5,10768 <_vfprintf_r+0x424>
   10764:	7d00106f          	j	11f34 <_vfprintf_r+0x1bf0>
   10768:	77ca                	ld	a5,176(sp)
   1076a:	01d509b3          	add	s3,a0,t4
   1076e:	8b85                	andi	a5,a5,1
   10770:	c399                	beqz	a5,10776 <_vfprintf_r+0x432>
   10772:	3960106f          	j	11b08 <_vfprintf_r+0x17c4>
   10776:	77ee                	ld	a5,248(sp)
   10778:	572e                	lw	a4,232(sp)
   1077a:	41a787bb          	subw	a5,a5,s10
   1077e:	f43e                	sd	a5,40(sp)
   10780:	f0ba                	sd	a4,96(sp)
   10782:	772a                	ld	a4,168(sp)
   10784:	04700793          	li	a5,71
   10788:	00f71463          	bne	a4,a5,10790 <_vfprintf_r+0x44c>
   1078c:	30a0106f          	j	11a96 <_vfprintf_r+0x1752>
   10790:	772a                	ld	a4,168(sp)
   10792:	04600793          	li	a5,70
   10796:	00f71463          	bne	a4,a5,1079e <_vfprintf_r+0x45a>
   1079a:	4740106f          	j	11c0e <_vfprintf_r+0x18ca>
   1079e:	7786                	ld	a5,96(sp)
   107a0:	772a                	ld	a4,168(sp)
   107a2:	04100593          	li	a1,65
   107a6:	37fd                	addiw	a5,a5,-1
   107a8:	d5be                	sw	a5,232(sp)
   107aa:	0ffcf693          	andi	a3,s9,255
   107ae:	4601                	li	a2,0
   107b0:	00b71663          	bne	a4,a1,107bc <_vfprintf_r+0x478>
   107b4:	26bd                	addiw	a3,a3,15
   107b6:	0ff6f693          	andi	a3,a3,255
   107ba:	4605                	li	a2,1
   107bc:	0ed10823          	sb	a3,240(sp)
   107c0:	02b00693          	li	a3,43
   107c4:	0007d763          	bgez	a5,107d2 <_vfprintf_r+0x48e>
   107c8:	7706                	ld	a4,96(sp)
   107ca:	4785                	li	a5,1
   107cc:	02d00693          	li	a3,45
   107d0:	9f99                	subw	a5,a5,a4
   107d2:	0ed108a3          	sb	a3,241(sp)
   107d6:	46a5                	li	a3,9
   107d8:	00f6c463          	blt	a3,a5,107e0 <_vfprintf_r+0x49c>
   107dc:	6c00106f          	j	11e9c <_vfprintf_r+0x1b58>
   107e0:	0ff10513          	addi	a0,sp,255
   107e4:	85aa                	mv	a1,a0
   107e6:	4829                	li	a6,10
   107e8:	06300893          	li	a7,99
   107ec:	a019                	j	107f2 <_vfprintf_r+0x4ae>
   107ee:	85b2                	mv	a1,a2
   107f0:	87b6                	mv	a5,a3
   107f2:	0307e6bb          	remw	a3,a5,a6
   107f6:	fff58613          	addi	a2,a1,-1
   107fa:	0306869b          	addiw	a3,a3,48
   107fe:	fed58fa3          	sb	a3,-1(a1)
   10802:	0307c6bb          	divw	a3,a5,a6
   10806:	fef8c4e3          	blt	a7,a5,107ee <_vfprintf_r+0x4aa>
   1080a:	0306879b          	addiw	a5,a3,48
   1080e:	0ff7f793          	andi	a5,a5,255
   10812:	ffe58693          	addi	a3,a1,-2
   10816:	fef60fa3          	sb	a5,-1(a2)
   1081a:	00a6e463          	bltu	a3,a0,10822 <_vfprintf_r+0x4de>
   1081e:	71c0106f          	j	11f3a <_vfprintf_r+0x1bf6>
   10822:	0f210613          	addi	a2,sp,242
   10826:	a019                	j	1082c <_vfprintf_r+0x4e8>
   10828:	0006c783          	lbu	a5,0(a3)
   1082c:	0605                	addi	a2,a2,1
   1082e:	0685                	addi	a3,a3,1
   10830:	fef60fa3          	sb	a5,-1(a2)
   10834:	fea69ae3          	bne	a3,a0,10828 <_vfprintf_r+0x4e4>
   10838:	10110793          	addi	a5,sp,257
   1083c:	8f8d                	sub	a5,a5,a1
   1083e:	0f210713          	addi	a4,sp,242
   10842:	97ba                	add	a5,a5,a4
   10844:	1994                	addi	a3,sp,240
   10846:	9f95                	subw	a5,a5,a3
   10848:	e93e                	sd	a5,144(sp)
   1084a:	67ca                	ld	a5,144(sp)
   1084c:	7722                	ld	a4,40(sp)
   1084e:	4685                	li	a3,1
   10850:	00f70c3b          	addw	s8,a4,a5
   10854:	87e2                	mv	a5,s8
   10856:	00e6c463          	blt	a3,a4,1085e <_vfprintf_r+0x51a>
   1085a:	66c0106f          	j	11ec6 <_vfprintf_r+0x1b82>
   1085e:	7766                	ld	a4,120(sp)
   10860:	00e78c3b          	addw	s8,a5,a4
   10864:	77ca                	ld	a5,176(sp)
   10866:	fffc4993          	not	s3,s8
   1086a:	43f9d993          	srai	s3,s3,0x3f
   1086e:	bff7f413          	andi	s0,a5,-1025
   10872:	2401                	sext.w	s0,s0
   10874:	013c79b3          	and	s3,s8,s3
   10878:	10046413          	ori	s0,s0,256
   1087c:	2981                	sext.w	s3,s3
   1087e:	ec82                	sd	zero,88(sp)
   10880:	f482                	sd	zero,104(sp)
   10882:	f082                	sd	zero,96(sp)
   10884:	67ae                	ld	a5,200(sp)
   10886:	e399                	bnez	a5,1088c <_vfprintf_r+0x548>
   10888:	2fc0106f          	j	11b84 <_vfprintf_r+0x1840>
   1088c:	02d00793          	li	a5,45
   10890:	0cf10fa3          	sb	a5,223(sp)
   10894:	4e81                	li	t4,0
   10896:	2985                	addiw	s3,s3,1
   10898:	a2dd                	j	10a7e <_vfprintf_r+0x73a>
   1089a:	67c2                	ld	a5,16(sp)
   1089c:	01046693          	ori	a3,s0,16
   108a0:	2681                	sext.w	a3,a3
   108a2:	00878713          	addi	a4,a5,8
   108a6:	67c2                	ld	a5,16(sp)
   108a8:	0007b983          	ld	s3,0(a5)
   108ac:	4785                	li	a5,1
   108ae:	e83a                	sd	a4,16(sp)
   108b0:	b9e5                	j	105a8 <_vfprintf_r+0x264>
   108b2:	67c2                	ld	a5,16(sp)
   108b4:	0c010fa3          	sb	zero,223(sp)
   108b8:	0007bd03          	ld	s10,0(a5)
   108bc:	00878693          	addi	a3,a5,8
   108c0:	380d09e3          	beqz	s10,11452 <_vfprintf_r+0x110e>
   108c4:	57fd                	li	a5,-1
   108c6:	4efe8be3          	beq	t4,a5,115bc <_vfprintf_r+0x1278>
   108ca:	8676                	mv	a2,t4
   108cc:	4581                	li	a1,0
   108ce:	856a                	mv	a0,s10
   108d0:	fc36                	sd	a3,56(sp)
   108d2:	ec1a                	sd	t1,24(sp)
   108d4:	e876                	sd	t4,16(sp)
   108d6:	2f1040ef          	jal	ra,153c6 <memchr>
   108da:	f02a                	sd	a0,32(sp)
   108dc:	6ec2                	ld	t4,16(sp)
   108de:	6362                	ld	t1,24(sp)
   108e0:	76e2                	ld	a3,56(sp)
   108e2:	e119                	bnez	a0,108e8 <_vfprintf_r+0x5a4>
   108e4:	30e0106f          	j	11bf2 <_vfprintf_r+0x18ae>
   108e8:	7782                	ld	a5,32(sp)
   108ea:	e836                	sd	a3,16(sp)
   108ec:	f002                	sd	zero,32(sp)
   108ee:	41a78c3b          	subw	s8,a5,s10
   108f2:	fffc4993          	not	s3,s8
   108f6:	0df14783          	lbu	a5,223(sp)
   108fa:	43f9d993          	srai	s3,s3,0x3f
   108fe:	013c79b3          	and	s3,s8,s3
   10902:	ec82                	sd	zero,88(sp)
   10904:	f482                	sd	zero,104(sp)
   10906:	f082                	sd	zero,96(sp)
   10908:	2981                	sext.w	s3,s3
   1090a:	4e81                	li	t4,0
   1090c:	ce0790e3          	bnez	a5,105ec <_vfprintf_r+0x2a8>
   10910:	a2bd                	j	10a7e <_vfprintf_r+0x73a>
   10912:	6742                	ld	a4,16(sp)
   10914:	01046693          	ori	a3,s0,16
   10918:	0006841b          	sext.w	s0,a3
   1091c:	0721                	addi	a4,a4,8
   1091e:	67c2                	ld	a5,16(sp)
   10920:	0007b983          	ld	s3,0(a5)
   10924:	e83a                	sd	a4,16(sp)
   10926:	bff47693          	andi	a3,s0,-1025
   1092a:	2681                	sext.w	a3,a3
   1092c:	4781                	li	a5,0
   1092e:	b9ad                	j	105a8 <_vfprintf_r+0x264>
   10930:	00846413          	ori	s0,s0,8
   10934:	2401                	sext.w	s0,s0
   10936:	0004cf03          	lbu	t5,0(s1)
   1093a:	b6a9                	j	10484 <_vfprintf_r+0x140>
   1093c:	6742                	ld	a4,16(sp)
   1093e:	02047793          	andi	a5,s0,32
   10942:	0721                	addi	a4,a4,8
   10944:	26079ee3          	bnez	a5,113c0 <_vfprintf_r+0x107c>
   10948:	01047793          	andi	a5,s0,16
   1094c:	26079ae3          	bnez	a5,113c0 <_vfprintf_r+0x107c>
   10950:	04047793          	andi	a5,s0,64
   10954:	4c078be3          	beqz	a5,1162a <_vfprintf_r+0x12e6>
   10958:	67c2                	ld	a5,16(sp)
   1095a:	86a2                	mv	a3,s0
   1095c:	e83a                	sd	a4,16(sp)
   1095e:	00079983          	lh	s3,0(a5)
   10962:	87ce                	mv	a5,s3
   10964:	0807cb63          	bltz	a5,109fa <_vfprintf_r+0x6b6>
   10968:	57fd                	li	a5,-1
   1096a:	40fe8a63          	beq	t4,a5,10d7e <_vfprintf_r+0xa3a>
   1096e:	f7f6f693          	andi	a3,a3,-129
   10972:	0006841b          	sext.w	s0,a3
   10976:	40099363          	bnez	s3,10d7c <_vfprintf_r+0xa38>
   1097a:	000e8463          	beqz	t4,10982 <_vfprintf_r+0x63e>
   1097e:	1020106f          	j	11a80 <_vfprintf_r+0x173c>
   10982:	4e81                	li	t4,0
   10984:	4c01                	li	s8,0
   10986:	18c10d13          	addi	s10,sp,396
   1098a:	b199                	j	105d0 <_vfprintf_r+0x28c>
   1098c:	02b00793          	li	a5,43
   10990:	0cf10fa3          	sb	a5,223(sp)
   10994:	0004cf03          	lbu	t5,0(s1)
   10998:	b4f5                	j	10484 <_vfprintf_r+0x140>
   1099a:	08046413          	ori	s0,s0,128
   1099e:	2401                	sext.w	s0,s0
   109a0:	0004cf03          	lbu	t5,0(s1)
   109a4:	b4c5                	j	10484 <_vfprintf_r+0x140>
   109a6:	0004cc83          	lbu	s9,0(s1)
   109aa:	00148793          	addi	a5,s1,1
   109ae:	018c9463          	bne	s9,s8,109b6 <_vfprintf_r+0x672>
   109b2:	5580106f          	j	11f0a <_vfprintf_r+0x1bc6>
   109b6:	fd0c869b          	addiw	a3,s9,-48
   109ba:	84be                	mv	s1,a5
   109bc:	4e81                	li	t4,0
   109be:	acd9e8e3          	bltu	s3,a3,1048e <_vfprintf_r+0x14a>
   109c2:	0485                	addi	s1,s1,1
   109c4:	002e979b          	slliw	a5,t4,0x2
   109c8:	fff4cc83          	lbu	s9,-1(s1)
   109cc:	01d78ebb          	addw	t4,a5,t4
   109d0:	001e9e9b          	slliw	t4,t4,0x1
   109d4:	00de8ebb          	addw	t4,t4,a3
   109d8:	fd0c869b          	addiw	a3,s9,-48
   109dc:	fed9f3e3          	bgeu	s3,a3,109c2 <_vfprintf_r+0x67e>
   109e0:	b47d                	j	1048e <_vfprintf_r+0x14a>
   109e2:	67c2                	ld	a5,16(sp)
   109e4:	01046693          	ori	a3,s0,16
   109e8:	2681                	sext.w	a3,a3
   109ea:	00878713          	addi	a4,a5,8
   109ee:	67c2                	ld	a5,16(sp)
   109f0:	639c                	ld	a5,0(a5)
   109f2:	e83a                	sd	a4,16(sp)
   109f4:	89be                	mv	s3,a5
   109f6:	f607d9e3          	bgez	a5,10968 <_vfprintf_r+0x624>
   109fa:	02d00793          	li	a5,45
   109fe:	0cf10fa3          	sb	a5,223(sp)
   10a02:	577d                	li	a4,-1
   10a04:	413009b3          	neg	s3,s3
   10a08:	4785                	li	a5,1
   10a0a:	baee94e3          	bne	t4,a4,105b2 <_vfprintf_r+0x26e>
   10a0e:	4705                	li	a4,1
   10a10:	36e78763          	beq	a5,a4,10d7e <_vfprintf_r+0xa3a>
   10a14:	4709                	li	a4,2
   10a16:	7ce78263          	beq	a5,a4,111da <_vfprintf_r+0xe96>
   10a1a:	18c10c13          	addi	s8,sp,396
   10a1e:	8662                	mv	a2,s8
   10a20:	a011                	j	10a24 <_vfprintf_r+0x6e0>
   10a22:	866a                	mv	a2,s10
   10a24:	0079f793          	andi	a5,s3,7
   10a28:	03078793          	addi	a5,a5,48
   10a2c:	fef60fa3          	sb	a5,-1(a2)
   10a30:	0039d993          	srli	s3,s3,0x3
   10a34:	fff60d13          	addi	s10,a2,-1
   10a38:	fe0995e3          	bnez	s3,10a22 <_vfprintf_r+0x6de>
   10a3c:	0016f593          	andi	a1,a3,1
   10a40:	3a058263          	beqz	a1,10de4 <_vfprintf_r+0xaa0>
   10a44:	03000593          	li	a1,48
   10a48:	38b78e63          	beq	a5,a1,10de4 <_vfprintf_r+0xaa0>
   10a4c:	1679                	addi	a2,a2,-2
   10a4e:	febd0fa3          	sb	a1,-1(s10)
   10a52:	40cc0c3b          	subw	s8,s8,a2
   10a56:	8436                	mv	s0,a3
   10a58:	8d32                	mv	s10,a2
   10a5a:	be9d                	j	105d0 <_vfprintf_r+0x28c>
   10a5c:	6742                	ld	a4,16(sp)
   10a5e:	0c010fa3          	sb	zero,223(sp)
   10a62:	4985                	li	s3,1
   10a64:	431c                	lw	a5,0(a4)
   10a66:	0721                	addi	a4,a4,8
   10a68:	e83a                	sd	a4,16(sp)
   10a6a:	12f10423          	sb	a5,296(sp)
   10a6e:	4c05                	li	s8,1
   10a70:	12810d13          	addi	s10,sp,296
   10a74:	f002                	sd	zero,32(sp)
   10a76:	4e81                	li	t4,0
   10a78:	ec82                	sd	zero,88(sp)
   10a7a:	f482                	sd	zero,104(sp)
   10a7c:	f082                	sd	zero,96(sp)
   10a7e:	00247893          	andi	a7,s0,2
   10a82:	2881                	sext.w	a7,a7
   10a84:	00088363          	beqz	a7,10a8a <_vfprintf_r+0x746>
   10a88:	2989                	addiw	s3,s3,2
   10a8a:	08447293          	andi	t0,s0,132
   10a8e:	7792                	ld	a5,288(sp)
   10a90:	00029663          	bnez	t0,10a9c <_vfprintf_r+0x758>
   10a94:	413b883b          	subw	a6,s7,s3
   10a98:	5f004d63          	bgtz	a6,11092 <_vfprintf_r+0xd4e>
   10a9c:	0df14683          	lbu	a3,223(sp)
   10aa0:	c68d                	beqz	a3,10aca <_vfprintf_r+0x786>
   10aa2:	11812683          	lw	a3,280(sp)
   10aa6:	0df10613          	addi	a2,sp,223
   10aaa:	00c33023          	sd	a2,0(t1)
   10aae:	2685                	addiw	a3,a3,1
   10ab0:	4605                	li	a2,1
   10ab2:	0785                	addi	a5,a5,1
   10ab4:	00c33423          	sd	a2,8(t1)
   10ab8:	10d12c23          	sw	a3,280(sp)
   10abc:	0006861b          	sext.w	a2,a3
   10ac0:	f23e                	sd	a5,288(sp)
   10ac2:	469d                	li	a3,7
   10ac4:	0341                	addi	t1,t1,16
   10ac6:	0ac6ca63          	blt	a3,a2,10b7a <_vfprintf_r+0x836>
   10aca:	02088563          	beqz	a7,10af4 <_vfprintf_r+0x7b0>
   10ace:	11812683          	lw	a3,280(sp)
   10ad2:	1190                	addi	a2,sp,224
   10ad4:	00c33023          	sd	a2,0(t1)
   10ad8:	2685                	addiw	a3,a3,1
   10ada:	4609                	li	a2,2
   10adc:	0789                	addi	a5,a5,2
   10ade:	00c33423          	sd	a2,8(t1)
   10ae2:	10d12c23          	sw	a3,280(sp)
   10ae6:	0006861b          	sext.w	a2,a3
   10aea:	f23e                	sd	a5,288(sp)
   10aec:	469d                	li	a3,7
   10aee:	0341                	addi	t1,t1,16
   10af0:	64c6c163          	blt	a3,a2,11132 <_vfprintf_r+0xdee>
   10af4:	08000693          	li	a3,128
   10af8:	3cd28463          	beq	t0,a3,10ec0 <_vfprintf_r+0xb7c>
   10afc:	418e8ebb          	subw	t4,t4,s8
   10b00:	45d04663          	bgtz	t4,10f4c <_vfprintf_r+0xc08>
   10b04:	10047693          	andi	a3,s0,256
   10b08:	2e069363          	bnez	a3,10dee <_vfprintf_r+0xaaa>
   10b0c:	11812703          	lw	a4,280(sp)
   10b10:	97e2                	add	a5,a5,s8
   10b12:	01a33023          	sd	s10,0(t1)
   10b16:	0017069b          	addiw	a3,a4,1
   10b1a:	8736                	mv	a4,a3
   10b1c:	01833423          	sd	s8,8(t1)
   10b20:	10e12c23          	sw	a4,280(sp)
   10b24:	f23e                	sd	a5,288(sp)
   10b26:	471d                	li	a4,7
   10b28:	0cd74963          	blt	a4,a3,10bfa <_vfprintf_r+0x8b6>
   10b2c:	0341                	addi	t1,t1,16
   10b2e:	8811                	andi	s0,s0,4
   10b30:	c409                	beqz	s0,10b3a <_vfprintf_r+0x7f6>
   10b32:	413b843b          	subw	s0,s7,s3
   10b36:	60804c63          	bgtz	s0,1114e <_vfprintf_r+0xe0a>
   10b3a:	875e                	mv	a4,s7
   10b3c:	013bd363          	bge	s7,s3,10b42 <_vfprintf_r+0x7fe>
   10b40:	874e                	mv	a4,s3
   10b42:	66a2                	ld	a3,8(sp)
   10b44:	9f35                	addw	a4,a4,a3
   10b46:	e43a                	sd	a4,8(sp)
   10b48:	9a079ee3          	bnez	a5,10504 <_vfprintf_r+0x1c0>
   10b4c:	7782                	ld	a5,32(sp)
   10b4e:	10012c23          	sw	zero,280(sp)
   10b52:	c789                	beqz	a5,10b5c <_vfprintf_r+0x818>
   10b54:	7582                	ld	a1,32(sp)
   10b56:	8556                	mv	a0,s5
   10b58:	3fb010ef          	jal	ra,12752 <_free_r>
   10b5c:	835a                	mv	t1,s6
   10b5e:	8d26                	mv	s10,s1
   10b60:	000d4783          	lbu	a5,0(s10)
   10b64:	8a0797e3          	bnez	a5,10412 <_vfprintf_r+0xce>
   10b68:	7792                	ld	a5,288(sp)
   10b6a:	9a078ae3          	beqz	a5,1051e <_vfprintf_r+0x1da>
   10b6e:	0a10                	addi	a2,sp,272
   10b70:	85d2                	mv	a1,s4
   10b72:	8556                	mv	a0,s5
   10b74:	558070ef          	jal	ra,180cc <__sprint_r>
   10b78:	b25d                	j	1051e <_vfprintf_r+0x1da>
   10b7a:	0a10                	addi	a2,sp,272
   10b7c:	85d2                	mv	a1,s4
   10b7e:	8556                	mv	a0,s5
   10b80:	e0f6                	sd	t4,64(sp)
   10b82:	fc16                	sd	t0,56(sp)
   10b84:	ec46                	sd	a7,24(sp)
   10b86:	546070ef          	jal	ra,180cc <__sprint_r>
   10b8a:	980514e3          	bnez	a0,10512 <_vfprintf_r+0x1ce>
   10b8e:	7792                	ld	a5,288(sp)
   10b90:	835a                	mv	t1,s6
   10b92:	6e86                	ld	t4,64(sp)
   10b94:	72e2                	ld	t0,56(sp)
   10b96:	68e2                	ld	a7,24(sp)
   10b98:	bf0d                	j	10aca <_vfprintf_r+0x786>
   10b9a:	11812603          	lw	a2,280(sp)
   10b9e:	7766                	ld	a4,120(sp)
   10ba0:	668a                	ld	a3,128(sp)
   10ba2:	0341                	addi	t1,t1,16
   10ba4:	97ba                	add	a5,a5,a4
   10ba6:	fed33823          	sd	a3,-16(t1)
   10baa:	0016069b          	addiw	a3,a2,1
   10bae:	fee33c23          	sd	a4,-8(t1)
   10bb2:	f23e                	sd	a5,288(sp)
   10bb4:	10d12c23          	sw	a3,280(sp)
   10bb8:	461d                	li	a2,7
   10bba:	00d65e63          	bge	a2,a3,10bd6 <_vfprintf_r+0x892>
   10bbe:	0a10                	addi	a2,sp,272
   10bc0:	85d2                	mv	a1,s4
   10bc2:	8556                	mv	a0,s5
   10bc4:	508070ef          	jal	ra,180cc <__sprint_r>
   10bc8:	940515e3          	bnez	a0,10512 <_vfprintf_r+0x1ce>
   10bcc:	55ae                	lw	a1,232(sp)
   10bce:	7792                	ld	a5,288(sp)
   10bd0:	11812683          	lw	a3,280(sp)
   10bd4:	835a                	mv	t1,s6
   10bd6:	0005d463          	bgez	a1,10bde <_vfprintf_r+0x89a>
   10bda:	0be0106f          	j	11c98 <_vfprintf_r+0x1954>
   10bde:	7722                	ld	a4,40(sp)
   10be0:	0016861b          	addiw	a2,a3,1
   10be4:	01a33023          	sd	s10,0(t1)
   10be8:	97ba                	add	a5,a5,a4
   10bea:	00e33423          	sd	a4,8(t1)
   10bee:	f23e                	sd	a5,288(sp)
   10bf0:	10c12c23          	sw	a2,280(sp)
   10bf4:	471d                	li	a4,7
   10bf6:	f2c75be3          	bge	a4,a2,10b2c <_vfprintf_r+0x7e8>
   10bfa:	0a10                	addi	a2,sp,272
   10bfc:	85d2                	mv	a1,s4
   10bfe:	8556                	mv	a0,s5
   10c00:	4cc070ef          	jal	ra,180cc <__sprint_r>
   10c04:	900517e3          	bnez	a0,10512 <_vfprintf_r+0x1ce>
   10c08:	7792                	ld	a5,288(sp)
   10c0a:	835a                	mv	t1,s6
   10c0c:	b70d                	j	10b2e <_vfprintf_r+0x7ea>
   10c0e:	67c2                	ld	a5,16(sp)
   10c10:	0004cf03          	lbu	t5,0(s1)
   10c14:	0007ab83          	lw	s7,0(a5)
   10c18:	07a1                	addi	a5,a5,8
   10c1a:	e83e                	sd	a5,16(sp)
   10c1c:	860bd4e3          	bgez	s7,10484 <_vfprintf_r+0x140>
   10c20:	41700bbb          	negw	s7,s7
   10c24:	bc81                	j	10674 <_vfprintf_r+0x330>
   10c26:	8556                	mv	a0,s5
   10c28:	f01a                	sd	t1,32(sp)
   10c2a:	ec76                	sd	t4,24(sp)
   10c2c:	73d030ef          	jal	ra,14b68 <_localeconv_r>
   10c30:	651c                	ld	a5,8(a0)
   10c32:	853e                	mv	a0,a5
   10c34:	ed3e                	sd	a5,152(sp)
   10c36:	714050ef          	jal	ra,1634a <strlen>
   10c3a:	e52a                	sd	a0,136(sp)
   10c3c:	8caa                	mv	s9,a0
   10c3e:	8556                	mv	a0,s5
   10c40:	729030ef          	jal	ra,14b68 <_localeconv_r>
   10c44:	6918                	ld	a4,16(a0)
   10c46:	6ee2                	ld	t4,24(sp)
   10c48:	7302                	ld	t1,32(sp)
   10c4a:	f8ba                	sd	a4,112(sp)
   10c4c:	0004cf03          	lbu	t5,0(s1)
   10c50:	820c8ae3          	beqz	s9,10484 <_vfprintf_r+0x140>
   10c54:	820708e3          	beqz	a4,10484 <_vfprintf_r+0x140>
   10c58:	00074783          	lbu	a5,0(a4)
   10c5c:	820784e3          	beqz	a5,10484 <_vfprintf_r+0x140>
   10c60:	40046413          	ori	s0,s0,1024
   10c64:	2401                	sext.w	s0,s0
   10c66:	81fff06f          	j	10484 <_vfprintf_r+0x140>
   10c6a:	00146413          	ori	s0,s0,1
   10c6e:	2401                	sext.w	s0,s0
   10c70:	0004cf03          	lbu	t5,0(s1)
   10c74:	811ff06f          	j	10484 <_vfprintf_r+0x140>
   10c78:	0df14783          	lbu	a5,223(sp)
   10c7c:	0004cf03          	lbu	t5,0(s1)
   10c80:	800792e3          	bnez	a5,10484 <_vfprintf_r+0x140>
   10c84:	02000793          	li	a5,32
   10c88:	0cf10fa3          	sb	a5,223(sp)
   10c8c:	ff8ff06f          	j	10484 <_vfprintf_r+0x140>
   10c90:	6742                	ld	a4,16(sp)
   10c92:	02047793          	andi	a5,s0,32
   10c96:	0721                	addi	a4,a4,8
   10c98:	72079c63          	bnez	a5,113d0 <_vfprintf_r+0x108c>
   10c9c:	01047793          	andi	a5,s0,16
   10ca0:	72079863          	bnez	a5,113d0 <_vfprintf_r+0x108c>
   10ca4:	66c2                	ld	a3,16(sp)
   10ca6:	04047793          	andi	a5,s0,64
   10caa:	0006a983          	lw	s3,0(a3)
   10cae:	14078ae3          	beqz	a5,11602 <_vfprintf_r+0x12be>
   10cb2:	19c2                	slli	s3,s3,0x30
   10cb4:	0309d993          	srli	s3,s3,0x30
   10cb8:	e83a                	sd	a4,16(sp)
   10cba:	86a2                	mv	a3,s0
   10cbc:	4785                	li	a5,1
   10cbe:	b0ed                	j	105a8 <_vfprintf_r+0x264>
   10cc0:	02046413          	ori	s0,s0,32
   10cc4:	2401                	sext.w	s0,s0
   10cc6:	0004cf03          	lbu	t5,0(s1)
   10cca:	fbaff06f          	j	10484 <_vfprintf_r+0x140>
   10cce:	6742                	ld	a4,16(sp)
   10cd0:	77e1                	lui	a5,0xffff8
   10cd2:	8307c793          	xori	a5,a5,-2000
   10cd6:	0ef11023          	sh	a5,224(sp)
   10cda:	00870793          	addi	a5,a4,8
   10cde:	00246693          	ori	a3,s0,2
   10ce2:	e83e                	sd	a5,16(sp)
   10ce4:	0000b797          	auipc	a5,0xb
   10ce8:	59c78793          	addi	a5,a5,1436 # 1c280 <zeroes.4541+0x60>
   10cec:	f83e                	sd	a5,48(sp)
   10cee:	00073983          	ld	s3,0(a4)
   10cf2:	2681                	sext.w	a3,a3
   10cf4:	4789                	li	a5,2
   10cf6:	07800c93          	li	s9,120
   10cfa:	b07d                	j	105a8 <_vfprintf_r+0x264>
   10cfc:	6742                	ld	a4,16(sp)
   10cfe:	02047793          	andi	a5,s0,32
   10d02:	0721                	addi	a4,a4,8
   10d04:	c0079de3          	bnez	a5,1091e <_vfprintf_r+0x5da>
   10d08:	01047793          	andi	a5,s0,16
   10d0c:	c00799e3          	bnez	a5,1091e <_vfprintf_r+0x5da>
   10d10:	66c2                	ld	a3,16(sp)
   10d12:	04047793          	andi	a5,s0,64
   10d16:	0006a983          	lw	s3,0(a3)
   10d1a:	0e078fe3          	beqz	a5,11618 <_vfprintf_r+0x12d4>
   10d1e:	19c2                	slli	s3,s3,0x30
   10d20:	0309d993          	srli	s3,s3,0x30
   10d24:	e83a                	sd	a4,16(sp)
   10d26:	b101                	j	10926 <_vfprintf_r+0x5e2>
   10d28:	66c2                	ld	a3,16(sp)
   10d2a:	02047793          	andi	a5,s0,32
   10d2e:	6298                	ld	a4,0(a3)
   10d30:	06a1                	addi	a3,a3,8
   10d32:	e836                	sd	a3,16(sp)
   10d34:	66079663          	bnez	a5,113a0 <_vfprintf_r+0x105c>
   10d38:	01047793          	andi	a5,s0,16
   10d3c:	66079263          	bnez	a5,113a0 <_vfprintf_r+0x105c>
   10d40:	04047793          	andi	a5,s0,64
   10d44:	34079ce3          	bnez	a5,1189c <_vfprintf_r+0x1558>
   10d48:	20047413          	andi	s0,s0,512
   10d4c:	67a2                	ld	a5,8(sp)
   10d4e:	e019                	bnez	s0,10d54 <_vfprintf_r+0xa10>
   10d50:	0780106f          	j	11dc8 <_vfprintf_r+0x1a84>
   10d54:	00f70023          	sb	a5,0(a4)
   10d58:	8d26                	mv	s10,s1
   10d5a:	b519                	j	10b60 <_vfprintf_r+0x81c>
   10d5c:	0004cf03          	lbu	t5,0(s1)
   10d60:	06c00793          	li	a5,108
   10d64:	6cff0f63          	beq	t5,a5,11442 <_vfprintf_r+0x10fe>
   10d68:	01046413          	ori	s0,s0,16
   10d6c:	2401                	sext.w	s0,s0
   10d6e:	f16ff06f          	j	10484 <_vfprintf_r+0x140>
   10d72:	8556                	mv	a0,s5
   10d74:	0d7010ef          	jal	ra,1264a <__sinit>
   10d78:	e2cff06f          	j	103a4 <_vfprintf_r+0x60>
   10d7c:	86a2                	mv	a3,s0
   10d7e:	47a5                	li	a5,9
   10d80:	0137eb63          	bltu	a5,s3,10d96 <_vfprintf_r+0xa52>
   10d84:	0309899b          	addiw	s3,s3,48
   10d88:	193105a3          	sb	s3,395(sp)
   10d8c:	8436                	mv	s0,a3
   10d8e:	4c05                	li	s8,1
   10d90:	18b10d13          	addi	s10,sp,395
   10d94:	b835                	j	105d0 <_vfprintf_r+0x28c>
   10d96:	4006f793          	andi	a5,a3,1024
   10d9a:	18c10c13          	addi	s8,sp,396
   10d9e:	2781                	sext.w	a5,a5
   10da0:	f402                	sd	zero,40(sp)
   10da2:	85e2                	mv	a1,s8
   10da4:	4429                	li	s0,10
   10da6:	4825                	li	a6,9
   10da8:	0ff00893          	li	a7,255
   10dac:	a039                	j	10dba <_vfprintf_r+0xa76>
   10dae:	0289d633          	divu	a2,s3,s0
   10db2:	03387963          	bgeu	a6,s3,10de4 <_vfprintf_r+0xaa0>
   10db6:	89b2                	mv	s3,a2
   10db8:	85ea                	mv	a1,s10
   10dba:	7722                	ld	a4,40(sp)
   10dbc:	fff58d13          	addi	s10,a1,-1
   10dc0:	2705                	addiw	a4,a4,1
   10dc2:	f43a                	sd	a4,40(sp)
   10dc4:	0289f633          	remu	a2,s3,s0
   10dc8:	0306061b          	addiw	a2,a2,48
   10dcc:	fec58fa3          	sb	a2,-1(a1)
   10dd0:	dff9                	beqz	a5,10dae <_vfprintf_r+0xa6a>
   10dd2:	7646                	ld	a2,112(sp)
   10dd4:	00064603          	lbu	a2,0(a2)
   10dd8:	fcc71be3          	bne	a4,a2,10dae <_vfprintf_r+0xa6a>
   10ddc:	fd1609e3          	beq	a2,a7,10dae <_vfprintf_r+0xa6a>
   10de0:	25386ae3          	bltu	a6,s3,11834 <_vfprintf_r+0x14f0>
   10de4:	41ac0c3b          	subw	s8,s8,s10
   10de8:	8436                	mv	s0,a3
   10dea:	fe6ff06f          	j	105d0 <_vfprintf_r+0x28c>
   10dee:	06500693          	li	a3,101
   10df2:	1d96db63          	bge	a3,s9,10fc8 <_vfprintf_r+0xc84>
   10df6:	6512                	ld	a0,256(sp)
   10df8:	65b2                	ld	a1,264(sp)
   10dfa:	4601                	li	a2,0
   10dfc:	4681                	li	a3,0
   10dfe:	fc3e                	sd	a5,56(sp)
   10e00:	ec1a                	sd	t1,24(sp)
   10e02:	669090ef          	jal	ra,1ac6a <__eqtf2>
   10e06:	6362                	ld	t1,24(sp)
   10e08:	77e2                	ld	a5,56(sp)
   10e0a:	3e051d63          	bnez	a0,11204 <_vfprintf_r+0xec0>
   10e0e:	11812703          	lw	a4,280(sp)
   10e12:	0000b697          	auipc	a3,0xb
   10e16:	4a668693          	addi	a3,a3,1190 # 1c2b8 <zeroes.4541+0x98>
   10e1a:	0785                	addi	a5,a5,1
   10e1c:	2705                	addiw	a4,a4,1
   10e1e:	00d33023          	sd	a3,0(t1)
   10e22:	4685                	li	a3,1
   10e24:	00d33423          	sd	a3,8(t1)
   10e28:	f23e                	sd	a5,288(sp)
   10e2a:	0007069b          	sext.w	a3,a4
   10e2e:	10e12c23          	sw	a4,280(sp)
   10e32:	479d                	li	a5,7
   10e34:	0341                	addi	t1,t1,16
   10e36:	70d7ce63          	blt	a5,a3,11552 <_vfprintf_r+0x120e>
   10e3a:	57ae                	lw	a5,232(sp)
   10e3c:	7722                	ld	a4,40(sp)
   10e3e:	00e7c763          	blt	a5,a4,10e4c <_vfprintf_r+0xb08>
   10e42:	00147793          	andi	a5,s0,1
   10e46:	e399                	bnez	a5,10e4c <_vfprintf_r+0xb08>
   10e48:	7792                	ld	a5,288(sp)
   10e4a:	b1d5                	j	10b2e <_vfprintf_r+0x7ea>
   10e4c:	678a                	ld	a5,128(sp)
   10e4e:	76e6                	ld	a3,120(sp)
   10e50:	11812703          	lw	a4,280(sp)
   10e54:	00f33023          	sd	a5,0(t1)
   10e58:	7792                	ld	a5,288(sp)
   10e5a:	2705                	addiw	a4,a4,1
   10e5c:	00d33423          	sd	a3,8(t1)
   10e60:	97b6                	add	a5,a5,a3
   10e62:	10e12c23          	sw	a4,280(sp)
   10e66:	0007069b          	sext.w	a3,a4
   10e6a:	f23e                	sd	a5,288(sp)
   10e6c:	471d                	li	a4,7
   10e6e:	0341                	addi	t1,t1,16
   10e70:	5ad74f63          	blt	a4,a3,1142e <_vfprintf_r+0x10ea>
   10e74:	7722                	ld	a4,40(sp)
   10e76:	fff70c1b          	addiw	s8,a4,-1
   10e7a:	cb805ae3          	blez	s8,10b2e <_vfprintf_r+0x7ea>
   10e7e:	11812703          	lw	a4,280(sp)
   10e82:	6f8dd263          	bge	s11,s8,11566 <_vfprintf_r+0x1222>
   10e86:	4c9d                	li	s9,7
   10e88:	a021                	j	10e90 <_vfprintf_r+0xb4c>
   10e8a:	3c41                	addiw	s8,s8,-16
   10e8c:	6d8ddd63          	bge	s11,s8,11566 <_vfprintf_r+0x1222>
   10e90:	2705                	addiw	a4,a4,1
   10e92:	07c1                	addi	a5,a5,16
   10e94:	01233023          	sd	s2,0(t1)
   10e98:	01b33423          	sd	s11,8(t1)
   10e9c:	f23e                	sd	a5,288(sp)
   10e9e:	10e12c23          	sw	a4,280(sp)
   10ea2:	0341                	addi	t1,t1,16
   10ea4:	feecd3e3          	bge	s9,a4,10e8a <_vfprintf_r+0xb46>
   10ea8:	0a10                	addi	a2,sp,272
   10eaa:	85d2                	mv	a1,s4
   10eac:	8556                	mv	a0,s5
   10eae:	21e070ef          	jal	ra,180cc <__sprint_r>
   10eb2:	e6051063          	bnez	a0,10512 <_vfprintf_r+0x1ce>
   10eb6:	7792                	ld	a5,288(sp)
   10eb8:	11812703          	lw	a4,280(sp)
   10ebc:	835a                	mv	t1,s6
   10ebe:	b7f1                	j	10e8a <_vfprintf_r+0xb46>
   10ec0:	413b883b          	subw	a6,s7,s3
   10ec4:	c3005ce3          	blez	a6,10afc <_vfprintf_r+0x7b8>
   10ec8:	11812683          	lw	a3,280(sp)
   10ecc:	050dd663          	bge	s11,a6,10f18 <_vfprintf_r+0xbd4>
   10ed0:	489d                	li	a7,7
   10ed2:	a021                	j	10eda <_vfprintf_r+0xb96>
   10ed4:	3841                	addiw	a6,a6,-16
   10ed6:	050dd163          	bge	s11,a6,10f18 <_vfprintf_r+0xbd4>
   10eda:	2685                	addiw	a3,a3,1
   10edc:	07c1                	addi	a5,a5,16
   10ede:	01233023          	sd	s2,0(t1)
   10ee2:	01b33423          	sd	s11,8(t1)
   10ee6:	f23e                	sd	a5,288(sp)
   10ee8:	10d12c23          	sw	a3,280(sp)
   10eec:	0341                	addi	t1,t1,16
   10eee:	fed8d3e3          	bge	a7,a3,10ed4 <_vfprintf_r+0xb90>
   10ef2:	0a10                	addi	a2,sp,272
   10ef4:	85d2                	mv	a1,s4
   10ef6:	8556                	mv	a0,s5
   10ef8:	fc42                	sd	a6,56(sp)
   10efa:	ec76                	sd	t4,24(sp)
   10efc:	1d0070ef          	jal	ra,180cc <__sprint_r>
   10f00:	e0051963          	bnez	a0,10512 <_vfprintf_r+0x1ce>
   10f04:	7862                	ld	a6,56(sp)
   10f06:	7792                	ld	a5,288(sp)
   10f08:	11812683          	lw	a3,280(sp)
   10f0c:	3841                	addiw	a6,a6,-16
   10f0e:	835a                	mv	t1,s6
   10f10:	489d                	li	a7,7
   10f12:	6ee2                	ld	t4,24(sp)
   10f14:	fd0dc3e3          	blt	s11,a6,10eda <_vfprintf_r+0xb96>
   10f18:	0016861b          	addiw	a2,a3,1
   10f1c:	97c2                	add	a5,a5,a6
   10f1e:	01233023          	sd	s2,0(t1)
   10f22:	01033423          	sd	a6,8(t1)
   10f26:	f23e                	sd	a5,288(sp)
   10f28:	10c12c23          	sw	a2,280(sp)
   10f2c:	469d                	li	a3,7
   10f2e:	0341                	addi	t1,t1,16
   10f30:	bcc6d6e3          	bge	a3,a2,10afc <_vfprintf_r+0x7b8>
   10f34:	0a10                	addi	a2,sp,272
   10f36:	85d2                	mv	a1,s4
   10f38:	8556                	mv	a0,s5
   10f3a:	ec76                	sd	t4,24(sp)
   10f3c:	190070ef          	jal	ra,180cc <__sprint_r>
   10f40:	dc051963          	bnez	a0,10512 <_vfprintf_r+0x1ce>
   10f44:	7792                	ld	a5,288(sp)
   10f46:	835a                	mv	t1,s6
   10f48:	6ee2                	ld	t4,24(sp)
   10f4a:	be4d                	j	10afc <_vfprintf_r+0x7b8>
   10f4c:	11812683          	lw	a3,280(sp)
   10f50:	05ddd463          	bge	s11,t4,10f98 <_vfprintf_r+0xc54>
   10f54:	481d                	li	a6,7
   10f56:	a021                	j	10f5e <_vfprintf_r+0xc1a>
   10f58:	3ec1                	addiw	t4,t4,-16
   10f5a:	03dddf63          	bge	s11,t4,10f98 <_vfprintf_r+0xc54>
   10f5e:	2685                	addiw	a3,a3,1
   10f60:	07c1                	addi	a5,a5,16
   10f62:	01233023          	sd	s2,0(t1)
   10f66:	01b33423          	sd	s11,8(t1)
   10f6a:	f23e                	sd	a5,288(sp)
   10f6c:	10d12c23          	sw	a3,280(sp)
   10f70:	0341                	addi	t1,t1,16
   10f72:	fed853e3          	bge	a6,a3,10f58 <_vfprintf_r+0xc14>
   10f76:	0a10                	addi	a2,sp,272
   10f78:	85d2                	mv	a1,s4
   10f7a:	8556                	mv	a0,s5
   10f7c:	ec76                	sd	t4,24(sp)
   10f7e:	14e070ef          	jal	ra,180cc <__sprint_r>
   10f82:	d8051863          	bnez	a0,10512 <_vfprintf_r+0x1ce>
   10f86:	6ee2                	ld	t4,24(sp)
   10f88:	7792                	ld	a5,288(sp)
   10f8a:	11812683          	lw	a3,280(sp)
   10f8e:	3ec1                	addiw	t4,t4,-16
   10f90:	835a                	mv	t1,s6
   10f92:	481d                	li	a6,7
   10f94:	fdddc5e3          	blt	s11,t4,10f5e <_vfprintf_r+0xc1a>
   10f98:	0016861b          	addiw	a2,a3,1
   10f9c:	97f6                	add	a5,a5,t4
   10f9e:	01233023          	sd	s2,0(t1)
   10fa2:	01d33423          	sd	t4,8(t1)
   10fa6:	f23e                	sd	a5,288(sp)
   10fa8:	10c12c23          	sw	a2,280(sp)
   10fac:	469d                	li	a3,7
   10fae:	0341                	addi	t1,t1,16
   10fb0:	b4c6dae3          	bge	a3,a2,10b04 <_vfprintf_r+0x7c0>
   10fb4:	0a10                	addi	a2,sp,272
   10fb6:	85d2                	mv	a1,s4
   10fb8:	8556                	mv	a0,s5
   10fba:	112070ef          	jal	ra,180cc <__sprint_r>
   10fbe:	d4051a63          	bnez	a0,10512 <_vfprintf_r+0x1ce>
   10fc2:	7792                	ld	a5,288(sp)
   10fc4:	835a                	mv	t1,s6
   10fc6:	be3d                	j	10b04 <_vfprintf_r+0x7c0>
   10fc8:	11812f03          	lw	t5,280(sp)
   10fcc:	7722                	ld	a4,40(sp)
   10fce:	4585                	li	a1,1
   10fd0:	001f069b          	addiw	a3,t5,1
   10fd4:	01a33023          	sd	s10,0(t1)
   10fd8:	0785                	addi	a5,a5,1
   10fda:	8636                	mv	a2,a3
   10fdc:	01030c13          	addi	s8,t1,16
   10fe0:	34e5d163          	bge	a1,a4,11322 <_vfprintf_r+0xfde>
   10fe4:	4585                	li	a1,1
   10fe6:	10c12c23          	sw	a2,280(sp)
   10fea:	00b33423          	sd	a1,8(t1)
   10fee:	f23e                	sd	a5,288(sp)
   10ff0:	461d                	li	a2,7
   10ff2:	4cd64463          	blt	a2,a3,114ba <_vfprintf_r+0x1176>
   10ff6:	7766                	ld	a4,120(sp)
   10ff8:	660a                	ld	a2,128(sp)
   10ffa:	0016881b          	addiw	a6,a3,1
   10ffe:	97ba                	add	a5,a5,a4
   11000:	00cc3023          	sd	a2,0(s8)
   11004:	00ec3423          	sd	a4,8(s8)
   11008:	f23e                	sd	a5,288(sp)
   1100a:	11012c23          	sw	a6,280(sp)
   1100e:	469d                	li	a3,7
   11010:	0c41                	addi	s8,s8,16
   11012:	4d06c163          	blt	a3,a6,114d4 <_vfprintf_r+0x1190>
   11016:	e4be                	sd	a5,72(sp)
   11018:	77a2                	ld	a5,40(sp)
   1101a:	6512                	ld	a0,256(sp)
   1101c:	65b2                	ld	a1,264(sp)
   1101e:	00180e9b          	addiw	t4,a6,1
   11022:	fff7889b          	addiw	a7,a5,-1
   11026:	010c0313          	addi	t1,s8,16
   1102a:	4601                	li	a2,0
   1102c:	4681                	li	a3,0
   1102e:	000e8c9b          	sext.w	s9,t4
   11032:	e0f6                	sd	t4,64(sp)
   11034:	fc1a                	sd	t1,56(sp)
   11036:	ec46                	sd	a7,24(sp)
   11038:	e8c2                	sd	a6,80(sp)
   1103a:	431090ef          	jal	ra,1ac6a <__eqtf2>
   1103e:	68e2                	ld	a7,24(sp)
   11040:	7362                	ld	t1,56(sp)
   11042:	6e86                	ld	t4,64(sp)
   11044:	67a6                	ld	a5,72(sp)
   11046:	2e050f63          	beqz	a0,11344 <_vfprintf_r+0x1000>
   1104a:	001d0713          	addi	a4,s10,1
   1104e:	97c6                	add	a5,a5,a7
   11050:	00ec3023          	sd	a4,0(s8)
   11054:	011c3423          	sd	a7,8(s8)
   11058:	f23e                	sd	a5,288(sp)
   1105a:	11d12c23          	sw	t4,280(sp)
   1105e:	471d                	li	a4,7
   11060:	39974f63          	blt	a4,s9,113fe <_vfprintf_r+0x10ba>
   11064:	6846                	ld	a6,80(sp)
   11066:	020c0713          	addi	a4,s8,32
   1106a:	8c1a                	mv	s8,t1
   1106c:	00280c9b          	addiw	s9,a6,2
   11070:	833a                	mv	t1,a4
   11072:	66ca                	ld	a3,144(sp)
   11074:	1998                	addi	a4,sp,240
   11076:	00ec3023          	sd	a4,0(s8)
   1107a:	97b6                	add	a5,a5,a3
   1107c:	00dc3423          	sd	a3,8(s8)
   11080:	f23e                	sd	a5,288(sp)
   11082:	11912c23          	sw	s9,280(sp)
   11086:	471d                	li	a4,7
   11088:	ab9753e3          	bge	a4,s9,10b2e <_vfprintf_r+0x7ea>
   1108c:	b6bd                	j	10bfa <_vfprintf_r+0x8b6>
   1108e:	86a2                	mv	a3,s0
   11090:	babd                	j	10a0e <_vfprintf_r+0x6ca>
   11092:	11812683          	lw	a3,280(sp)
   11096:	0000bf97          	auipc	t6,0xb
   1109a:	17af8f93          	addi	t6,t6,378 # 1c210 <blanks.4540>
   1109e:	439d                	li	t2,7
   110a0:	010dc663          	blt	s11,a6,110ac <_vfprintf_r+0xd68>
   110a4:	a889                	j	110f6 <_vfprintf_r+0xdb2>
   110a6:	3841                	addiw	a6,a6,-16
   110a8:	050dd763          	bge	s11,a6,110f6 <_vfprintf_r+0xdb2>
   110ac:	2685                	addiw	a3,a3,1
   110ae:	07c1                	addi	a5,a5,16
   110b0:	01f33023          	sd	t6,0(t1)
   110b4:	01b33423          	sd	s11,8(t1)
   110b8:	f23e                	sd	a5,288(sp)
   110ba:	10d12c23          	sw	a3,280(sp)
   110be:	0341                	addi	t1,t1,16
   110c0:	fed3d3e3          	bge	t2,a3,110a6 <_vfprintf_r+0xd62>
   110c4:	0a10                	addi	a2,sp,272
   110c6:	85d2                	mv	a1,s4
   110c8:	8556                	mv	a0,s5
   110ca:	e8fe                	sd	t6,80(sp)
   110cc:	e4c2                	sd	a6,72(sp)
   110ce:	e0f6                	sd	t4,64(sp)
   110d0:	fc16                	sd	t0,56(sp)
   110d2:	ec46                	sd	a7,24(sp)
   110d4:	7f9060ef          	jal	ra,180cc <__sprint_r>
   110d8:	c2051d63          	bnez	a0,10512 <_vfprintf_r+0x1ce>
   110dc:	6826                	ld	a6,72(sp)
   110de:	7792                	ld	a5,288(sp)
   110e0:	11812683          	lw	a3,280(sp)
   110e4:	3841                	addiw	a6,a6,-16
   110e6:	835a                	mv	t1,s6
   110e8:	6fc6                	ld	t6,80(sp)
   110ea:	439d                	li	t2,7
   110ec:	6e86                	ld	t4,64(sp)
   110ee:	72e2                	ld	t0,56(sp)
   110f0:	68e2                	ld	a7,24(sp)
   110f2:	fb0dcde3          	blt	s11,a6,110ac <_vfprintf_r+0xd68>
   110f6:	0016861b          	addiw	a2,a3,1
   110fa:	97c2                	add	a5,a5,a6
   110fc:	01f33023          	sd	t6,0(t1)
   11100:	01033423          	sd	a6,8(t1)
   11104:	f23e                	sd	a5,288(sp)
   11106:	10c12c23          	sw	a2,280(sp)
   1110a:	469d                	li	a3,7
   1110c:	0341                	addi	t1,t1,16
   1110e:	98c6d7e3          	bge	a3,a2,10a9c <_vfprintf_r+0x758>
   11112:	0a10                	addi	a2,sp,272
   11114:	85d2                	mv	a1,s4
   11116:	8556                	mv	a0,s5
   11118:	e0f6                	sd	t4,64(sp)
   1111a:	fc16                	sd	t0,56(sp)
   1111c:	ec46                	sd	a7,24(sp)
   1111e:	7af060ef          	jal	ra,180cc <__sprint_r>
   11122:	be051863          	bnez	a0,10512 <_vfprintf_r+0x1ce>
   11126:	7792                	ld	a5,288(sp)
   11128:	835a                	mv	t1,s6
   1112a:	6e86                	ld	t4,64(sp)
   1112c:	72e2                	ld	t0,56(sp)
   1112e:	68e2                	ld	a7,24(sp)
   11130:	b2b5                	j	10a9c <_vfprintf_r+0x758>
   11132:	0a10                	addi	a2,sp,272
   11134:	85d2                	mv	a1,s4
   11136:	8556                	mv	a0,s5
   11138:	fc76                	sd	t4,56(sp)
   1113a:	ec16                	sd	t0,24(sp)
   1113c:	791060ef          	jal	ra,180cc <__sprint_r>
   11140:	bc051963          	bnez	a0,10512 <_vfprintf_r+0x1ce>
   11144:	7792                	ld	a5,288(sp)
   11146:	835a                	mv	t1,s6
   11148:	7ee2                	ld	t4,56(sp)
   1114a:	62e2                	ld	t0,24(sp)
   1114c:	b265                	j	10af4 <_vfprintf_r+0x7b0>
   1114e:	11812703          	lw	a4,280(sp)
   11152:	0000bf97          	auipc	t6,0xb
   11156:	0bef8f93          	addi	t6,t6,190 # 1c210 <blanks.4540>
   1115a:	4c1d                	li	s8,7
   1115c:	008dc663          	blt	s11,s0,11168 <_vfprintf_r+0xe24>
   11160:	a081                	j	111a0 <_vfprintf_r+0xe5c>
   11162:	3441                	addiw	s0,s0,-16
   11164:	028dde63          	bge	s11,s0,111a0 <_vfprintf_r+0xe5c>
   11168:	2705                	addiw	a4,a4,1
   1116a:	07c1                	addi	a5,a5,16
   1116c:	01f33023          	sd	t6,0(t1)
   11170:	01b33423          	sd	s11,8(t1)
   11174:	f23e                	sd	a5,288(sp)
   11176:	10e12c23          	sw	a4,280(sp)
   1117a:	0341                	addi	t1,t1,16
   1117c:	feec53e3          	bge	s8,a4,11162 <_vfprintf_r+0xe1e>
   11180:	0a10                	addi	a2,sp,272
   11182:	85d2                	mv	a1,s4
   11184:	8556                	mv	a0,s5
   11186:	ec7e                	sd	t6,24(sp)
   11188:	745060ef          	jal	ra,180cc <__sprint_r>
   1118c:	b8051363          	bnez	a0,10512 <_vfprintf_r+0x1ce>
   11190:	3441                	addiw	s0,s0,-16
   11192:	7792                	ld	a5,288(sp)
   11194:	11812703          	lw	a4,280(sp)
   11198:	835a                	mv	t1,s6
   1119a:	6fe2                	ld	t6,24(sp)
   1119c:	fc8dc6e3          	blt	s11,s0,11168 <_vfprintf_r+0xe24>
   111a0:	0017069b          	addiw	a3,a4,1
   111a4:	97a2                	add	a5,a5,s0
   111a6:	01f33023          	sd	t6,0(t1)
   111aa:	00833423          	sd	s0,8(t1)
   111ae:	f23e                	sd	a5,288(sp)
   111b0:	10d12c23          	sw	a3,280(sp)
   111b4:	471d                	li	a4,7
   111b6:	98d752e3          	bge	a4,a3,10b3a <_vfprintf_r+0x7f6>
   111ba:	0a10                	addi	a2,sp,272
   111bc:	85d2                	mv	a1,s4
   111be:	8556                	mv	a0,s5
   111c0:	70d060ef          	jal	ra,180cc <__sprint_r>
   111c4:	b4051763          	bnez	a0,10512 <_vfprintf_r+0x1ce>
   111c8:	7792                	ld	a5,288(sp)
   111ca:	ba85                	j	10b3a <_vfprintf_r+0x7f6>
   111cc:	4705                	li	a4,1
   111ce:	0ae789e3          	beq	a5,a4,11a80 <_vfprintf_r+0x173c>
   111d2:	4709                	li	a4,2
   111d4:	86a2                	mv	a3,s0
   111d6:	84e792e3          	bne	a5,a4,10a1a <_vfprintf_r+0x6d6>
   111da:	18c10c13          	addi	s8,sp,396
   111de:	8d62                	mv	s10,s8
   111e0:	7742                	ld	a4,48(sp)
   111e2:	00f9f793          	andi	a5,s3,15
   111e6:	1d7d                	addi	s10,s10,-1
   111e8:	97ba                	add	a5,a5,a4
   111ea:	0007c783          	lbu	a5,0(a5)
   111ee:	0049d993          	srli	s3,s3,0x4
   111f2:	00fd0023          	sb	a5,0(s10)
   111f6:	fe0995e3          	bnez	s3,111e0 <_vfprintf_r+0xe9c>
   111fa:	41ac0c3b          	subw	s8,s8,s10
   111fe:	8436                	mv	s0,a3
   11200:	bd0ff06f          	j	105d0 <_vfprintf_r+0x28c>
   11204:	55ae                	lw	a1,232(sp)
   11206:	2eb05463          	blez	a1,114ee <_vfprintf_r+0x11aa>
   1120a:	7722                	ld	a4,40(sp)
   1120c:	7686                	ld	a3,96(sp)
   1120e:	00070c1b          	sext.w	s8,a4
   11212:	1ce6c263          	blt	a3,a4,113d6 <_vfprintf_r+0x1092>
   11216:	03805263          	blez	s8,1123a <_vfprintf_r+0xef6>
   1121a:	11812683          	lw	a3,280(sp)
   1121e:	97e2                	add	a5,a5,s8
   11220:	01a33023          	sd	s10,0(t1)
   11224:	0016861b          	addiw	a2,a3,1
   11228:	01833423          	sd	s8,8(t1)
   1122c:	f23e                	sd	a5,288(sp)
   1122e:	10c12c23          	sw	a2,280(sp)
   11232:	469d                	li	a3,7
   11234:	0341                	addi	t1,t1,16
   11236:	5ec6c263          	blt	a3,a2,1181a <_vfprintf_r+0x14d6>
   1123a:	fffc4693          	not	a3,s8
   1123e:	7706                	ld	a4,96(sp)
   11240:	96fd                	srai	a3,a3,0x3f
   11242:	00dc7c33          	and	s8,s8,a3
   11246:	41870c3b          	subw	s8,a4,s8
   1124a:	23804363          	bgtz	s8,11470 <_vfprintf_r+0x112c>
   1124e:	7706                	ld	a4,96(sp)
   11250:	40047693          	andi	a3,s0,1024
   11254:	00ed0c33          	add	s8,s10,a4
   11258:	44069063          	bnez	a3,11698 <_vfprintf_r+0x1354>
   1125c:	56ae                	lw	a3,232(sp)
   1125e:	7722                	ld	a4,40(sp)
   11260:	00e6c663          	blt	a3,a4,1126c <_vfprintf_r+0xf28>
   11264:	00147613          	andi	a2,s0,1
   11268:	60060563          	beqz	a2,11872 <_vfprintf_r+0x152e>
   1126c:	660a                	ld	a2,128(sp)
   1126e:	7766                	ld	a4,120(sp)
   11270:	0341                	addi	t1,t1,16
   11272:	fec33823          	sd	a2,-16(t1)
   11276:	11812603          	lw	a2,280(sp)
   1127a:	97ba                	add	a5,a5,a4
   1127c:	fee33c23          	sd	a4,-8(t1)
   11280:	0016059b          	addiw	a1,a2,1
   11284:	f23e                	sd	a5,288(sp)
   11286:	10b12c23          	sw	a1,280(sp)
   1128a:	461d                	li	a2,7
   1128c:	14b641e3          	blt	a2,a1,11bce <_vfprintf_r+0x188a>
   11290:	7722                	ld	a4,40(sp)
   11292:	40d7063b          	subw	a2,a4,a3
   11296:	976a                	add	a4,a4,s10
   11298:	4187073b          	subw	a4,a4,s8
   1129c:	86b2                	mv	a3,a2
   1129e:	00c75363          	bge	a4,a2,112a4 <_vfprintf_r+0xf60>
   112a2:	86ba                	mv	a3,a4
   112a4:	00068c9b          	sext.w	s9,a3
   112a8:	03905263          	blez	s9,112cc <_vfprintf_r+0xf88>
   112ac:	11812703          	lw	a4,280(sp)
   112b0:	97e6                	add	a5,a5,s9
   112b2:	01833023          	sd	s8,0(t1)
   112b6:	0017059b          	addiw	a1,a4,1
   112ba:	01933423          	sd	s9,8(t1)
   112be:	f23e                	sd	a5,288(sp)
   112c0:	10b12c23          	sw	a1,280(sp)
   112c4:	471d                	li	a4,7
   112c6:	0341                	addi	t1,t1,16
   112c8:	1ab744e3          	blt	a4,a1,11c70 <_vfprintf_r+0x192c>
   112cc:	fffccc13          	not	s8,s9
   112d0:	43fc5c13          	srai	s8,s8,0x3f
   112d4:	018cfc33          	and	s8,s9,s8
   112d8:	41860c3b          	subw	s8,a2,s8
   112dc:	858059e3          	blez	s8,10b2e <_vfprintf_r+0x7ea>
   112e0:	11812703          	lw	a4,280(sp)
   112e4:	298dd163          	bge	s11,s8,11566 <_vfprintf_r+0x1222>
   112e8:	4c9d                	li	s9,7
   112ea:	a021                	j	112f2 <_vfprintf_r+0xfae>
   112ec:	3c41                	addiw	s8,s8,-16
   112ee:	278ddc63          	bge	s11,s8,11566 <_vfprintf_r+0x1222>
   112f2:	2705                	addiw	a4,a4,1
   112f4:	07c1                	addi	a5,a5,16
   112f6:	01233023          	sd	s2,0(t1)
   112fa:	01b33423          	sd	s11,8(t1)
   112fe:	f23e                	sd	a5,288(sp)
   11300:	10e12c23          	sw	a4,280(sp)
   11304:	0341                	addi	t1,t1,16
   11306:	feecd3e3          	bge	s9,a4,112ec <_vfprintf_r+0xfa8>
   1130a:	0a10                	addi	a2,sp,272
   1130c:	85d2                	mv	a1,s4
   1130e:	8556                	mv	a0,s5
   11310:	5bd060ef          	jal	ra,180cc <__sprint_r>
   11314:	9e051f63          	bnez	a0,10512 <_vfprintf_r+0x1ce>
   11318:	7792                	ld	a5,288(sp)
   1131a:	11812703          	lw	a4,280(sp)
   1131e:	835a                	mv	t1,s6
   11320:	b7f1                	j	112ec <_vfprintf_r+0xfa8>
   11322:	00147513          	andi	a0,s0,1
   11326:	ca051fe3          	bnez	a0,10fe4 <_vfprintf_r+0xca0>
   1132a:	00b33423          	sd	a1,8(t1)
   1132e:	f23e                	sd	a5,288(sp)
   11330:	10d12c23          	sw	a3,280(sp)
   11334:	471d                	li	a4,7
   11336:	0cd74463          	blt	a4,a3,113fe <_vfprintf_r+0x10ba>
   1133a:	002f0c9b          	addiw	s9,t5,2
   1133e:	02030313          	addi	t1,t1,32
   11342:	bb05                	j	11072 <_vfprintf_r+0xd2e>
   11344:	d31057e3          	blez	a7,11072 <_vfprintf_r+0xd2e>
   11348:	391dd7e3          	bge	s11,a7,11ed6 <_vfprintf_r+0x1b92>
   1134c:	4c9d                	li	s9,7
   1134e:	a031                	j	1135a <_vfprintf_r+0x1016>
   11350:	38c1                	addiw	a7,a7,-16
   11352:	091dd763          	bge	s11,a7,113e0 <_vfprintf_r+0x109c>
   11356:	00180e9b          	addiw	t4,a6,1
   1135a:	07c1                	addi	a5,a5,16
   1135c:	012c3023          	sd	s2,0(s8)
   11360:	01bc3423          	sd	s11,8(s8)
   11364:	f23e                	sd	a5,288(sp)
   11366:	000e881b          	sext.w	a6,t4
   1136a:	11d12c23          	sw	t4,280(sp)
   1136e:	0c41                	addi	s8,s8,16
   11370:	ff0cd0e3          	bge	s9,a6,11350 <_vfprintf_r+0x100c>
   11374:	0a10                	addi	a2,sp,272
   11376:	85d2                	mv	a1,s4
   11378:	8556                	mv	a0,s5
   1137a:	ec46                	sd	a7,24(sp)
   1137c:	551060ef          	jal	ra,180cc <__sprint_r>
   11380:	98051963          	bnez	a0,10512 <_vfprintf_r+0x1ce>
   11384:	7792                	ld	a5,288(sp)
   11386:	11812803          	lw	a6,280(sp)
   1138a:	8c5a                	mv	s8,s6
   1138c:	68e2                	ld	a7,24(sp)
   1138e:	b7c9                	j	11350 <_vfprintf_r+0x100c>
   11390:	03000793          	li	a5,48
   11394:	18f105a3          	sb	a5,395(sp)
   11398:	18b10d13          	addi	s10,sp,395
   1139c:	a34ff06f          	j	105d0 <_vfprintf_r+0x28c>
   113a0:	67a2                	ld	a5,8(sp)
   113a2:	8d26                	mv	s10,s1
   113a4:	e31c                	sd	a5,0(a4)
   113a6:	fbaff06f          	j	10b60 <_vfprintf_r+0x81c>
   113aa:	67c2                	ld	a5,16(sp)
   113ac:	07bd                	addi	a5,a5,15
   113ae:	9bc1                	andi	a5,a5,-16
   113b0:	6394                	ld	a3,0(a5)
   113b2:	6798                	ld	a4,8(a5)
   113b4:	07c1                	addi	a5,a5,16
   113b6:	e83e                	sd	a5,16(sp)
   113b8:	e236                	sd	a3,256(sp)
   113ba:	e63a                	sd	a4,264(sp)
   113bc:	af4ff06f          	j	106b0 <_vfprintf_r+0x36c>
   113c0:	86a2                	mv	a3,s0
   113c2:	e2cff06f          	j	109ee <_vfprintf_r+0x6aa>
   113c6:	67c2                	ld	a5,16(sp)
   113c8:	0007b983          	ld	s3,0(a5)
   113cc:	9b6ff06f          	j	10582 <_vfprintf_r+0x23e>
   113d0:	86a2                	mv	a3,s0
   113d2:	cd4ff06f          	j	108a6 <_vfprintf_r+0x562>
   113d6:	00068c1b          	sext.w	s8,a3
   113da:	e58040e3          	bgtz	s8,1121a <_vfprintf_r+0xed6>
   113de:	bdb1                	j	1123a <_vfprintf_r+0xef6>
   113e0:	00180c9b          	addiw	s9,a6,1
   113e4:	010c0713          	addi	a4,s8,16
   113e8:	97c6                	add	a5,a5,a7
   113ea:	012c3023          	sd	s2,0(s8)
   113ee:	011c3423          	sd	a7,8(s8)
   113f2:	f23e                	sd	a5,288(sp)
   113f4:	11912c23          	sw	s9,280(sp)
   113f8:	469d                	li	a3,7
   113fa:	3f96da63          	bge	a3,s9,117ee <_vfprintf_r+0x14aa>
   113fe:	0a10                	addi	a2,sp,272
   11400:	85d2                	mv	a1,s4
   11402:	8556                	mv	a0,s5
   11404:	4c9060ef          	jal	ra,180cc <__sprint_r>
   11408:	90051563          	bnez	a0,10512 <_vfprintf_r+0x1ce>
   1140c:	11812f03          	lw	t5,280(sp)
   11410:	7792                	ld	a5,288(sp)
   11412:	1a010313          	addi	t1,sp,416
   11416:	001f0c9b          	addiw	s9,t5,1
   1141a:	8c5a                	mv	s8,s6
   1141c:	b999                	j	11072 <_vfprintf_r+0xd2e>
   1141e:	20046413          	ori	s0,s0,512
   11422:	0014cf03          	lbu	t5,1(s1)
   11426:	2401                	sext.w	s0,s0
   11428:	0485                	addi	s1,s1,1
   1142a:	85aff06f          	j	10484 <_vfprintf_r+0x140>
   1142e:	0a10                	addi	a2,sp,272
   11430:	85d2                	mv	a1,s4
   11432:	8556                	mv	a0,s5
   11434:	499060ef          	jal	ra,180cc <__sprint_r>
   11438:	8c051d63          	bnez	a0,10512 <_vfprintf_r+0x1ce>
   1143c:	7792                	ld	a5,288(sp)
   1143e:	835a                	mv	t1,s6
   11440:	bc15                	j	10e74 <_vfprintf_r+0xb30>
   11442:	02046413          	ori	s0,s0,32
   11446:	0014cf03          	lbu	t5,1(s1)
   1144a:	2401                	sext.w	s0,s0
   1144c:	0485                	addi	s1,s1,1
   1144e:	836ff06f          	j	10484 <_vfprintf_r+0x140>
   11452:	000e871b          	sext.w	a4,t4
   11456:	4799                	li	a5,6
   11458:	3ce7ec63          	bltu	a5,a4,11830 <_vfprintf_r+0x14ec>
   1145c:	000e8c1b          	sext.w	s8,t4
   11460:	89e2                	mv	s3,s8
   11462:	e836                	sd	a3,16(sp)
   11464:	0000bd17          	auipc	s10,0xb
   11468:	e4cd0d13          	addi	s10,s10,-436 # 1c2b0 <zeroes.4541+0x90>
   1146c:	e08ff06f          	j	10a74 <_vfprintf_r+0x730>
   11470:	11812683          	lw	a3,280(sp)
   11474:	1f8dd963          	bge	s11,s8,11666 <_vfprintf_r+0x1322>
   11478:	4c9d                	li	s9,7
   1147a:	a021                	j	11482 <_vfprintf_r+0x113e>
   1147c:	3c41                	addiw	s8,s8,-16
   1147e:	1f8dd463          	bge	s11,s8,11666 <_vfprintf_r+0x1322>
   11482:	2685                	addiw	a3,a3,1
   11484:	07c1                	addi	a5,a5,16
   11486:	01233023          	sd	s2,0(t1)
   1148a:	01b33423          	sd	s11,8(t1)
   1148e:	f23e                	sd	a5,288(sp)
   11490:	10d12c23          	sw	a3,280(sp)
   11494:	0341                	addi	t1,t1,16
   11496:	fedcd3e3          	bge	s9,a3,1147c <_vfprintf_r+0x1138>
   1149a:	0a10                	addi	a2,sp,272
   1149c:	85d2                	mv	a1,s4
   1149e:	8556                	mv	a0,s5
   114a0:	42d060ef          	jal	ra,180cc <__sprint_r>
   114a4:	c119                	beqz	a0,114aa <_vfprintf_r+0x1166>
   114a6:	86cff06f          	j	10512 <_vfprintf_r+0x1ce>
   114aa:	7792                	ld	a5,288(sp)
   114ac:	11812683          	lw	a3,280(sp)
   114b0:	835a                	mv	t1,s6
   114b2:	b7e9                	j	1147c <_vfprintf_r+0x1138>
   114b4:	89ea                	mv	s3,s10
   114b6:	fb7fe06f          	j	1046c <_vfprintf_r+0x128>
   114ba:	0a10                	addi	a2,sp,272
   114bc:	85d2                	mv	a1,s4
   114be:	8556                	mv	a0,s5
   114c0:	40d060ef          	jal	ra,180cc <__sprint_r>
   114c4:	c119                	beqz	a0,114ca <_vfprintf_r+0x1186>
   114c6:	84cff06f          	j	10512 <_vfprintf_r+0x1ce>
   114ca:	7792                	ld	a5,288(sp)
   114cc:	11812683          	lw	a3,280(sp)
   114d0:	8c5a                	mv	s8,s6
   114d2:	b615                	j	10ff6 <_vfprintf_r+0xcb2>
   114d4:	0a10                	addi	a2,sp,272
   114d6:	85d2                	mv	a1,s4
   114d8:	8556                	mv	a0,s5
   114da:	3f3060ef          	jal	ra,180cc <__sprint_r>
   114de:	c119                	beqz	a0,114e4 <_vfprintf_r+0x11a0>
   114e0:	832ff06f          	j	10512 <_vfprintf_r+0x1ce>
   114e4:	7792                	ld	a5,288(sp)
   114e6:	11812803          	lw	a6,280(sp)
   114ea:	8c5a                	mv	s8,s6
   114ec:	b62d                	j	11016 <_vfprintf_r+0xcd2>
   114ee:	11812683          	lw	a3,280(sp)
   114f2:	0000b617          	auipc	a2,0xb
   114f6:	dc660613          	addi	a2,a2,-570 # 1c2b8 <zeroes.4541+0x98>
   114fa:	00c33023          	sd	a2,0(t1)
   114fe:	2685                	addiw	a3,a3,1
   11500:	4605                	li	a2,1
   11502:	0785                	addi	a5,a5,1
   11504:	00c33423          	sd	a2,8(t1)
   11508:	10d12c23          	sw	a3,280(sp)
   1150c:	0006861b          	sext.w	a2,a3
   11510:	f23e                	sd	a5,288(sp)
   11512:	469d                	li	a3,7
   11514:	0341                	addi	t1,t1,16
   11516:	2ec6c163          	blt	a3,a2,117f8 <_vfprintf_r+0x14b4>
   1151a:	e8059063          	bnez	a1,10b9a <_vfprintf_r+0x856>
   1151e:	7722                	ld	a4,40(sp)
   11520:	00147693          	andi	a3,s0,1
   11524:	8ed9                	or	a3,a3,a4
   11526:	e0068463          	beqz	a3,10b2e <_vfprintf_r+0x7ea>
   1152a:	11812603          	lw	a2,280(sp)
   1152e:	7766                	ld	a4,120(sp)
   11530:	668a                	ld	a3,128(sp)
   11532:	97ba                	add	a5,a5,a4
   11534:	00d33023          	sd	a3,0(t1)
   11538:	0016069b          	addiw	a3,a2,1
   1153c:	00e33423          	sd	a4,8(t1)
   11540:	f23e                	sd	a5,288(sp)
   11542:	10d12c23          	sw	a3,280(sp)
   11546:	461d                	li	a2,7
   11548:	e6d64b63          	blt	a2,a3,10bbe <_vfprintf_r+0x87a>
   1154c:	0341                	addi	t1,t1,16
   1154e:	e90ff06f          	j	10bde <_vfprintf_r+0x89a>
   11552:	0a10                	addi	a2,sp,272
   11554:	85d2                	mv	a1,s4
   11556:	8556                	mv	a0,s5
   11558:	375060ef          	jal	ra,180cc <__sprint_r>
   1155c:	c119                	beqz	a0,11562 <_vfprintf_r+0x121e>
   1155e:	fb5fe06f          	j	10512 <_vfprintf_r+0x1ce>
   11562:	835a                	mv	t1,s6
   11564:	b8d9                	j	10e3a <_vfprintf_r+0xaf6>
   11566:	0017069b          	addiw	a3,a4,1
   1156a:	8736                	mv	a4,a3
   1156c:	97e2                	add	a5,a5,s8
   1156e:	01233023          	sd	s2,0(t1)
   11572:	daaff06f          	j	10b1c <_vfprintf_r+0x7d8>
   11576:	6512                	ld	a0,256(sp)
   11578:	65b2                	ld	a1,264(sp)
   1157a:	4601                	li	a2,0
   1157c:	4681                	li	a3,0
   1157e:	ec1a                	sd	t1,24(sp)
   11580:	035090ef          	jal	ra,1adb4 <__letf2>
   11584:	6362                	ld	t1,24(sp)
   11586:	66054163          	bltz	a0,11be8 <_vfprintf_r+0x18a4>
   1158a:	0df14783          	lbu	a5,223(sp)
   1158e:	04700693          	li	a3,71
   11592:	0000bd17          	auipc	s10,0xb
   11596:	cced0d13          	addi	s10,s10,-818 # 1c260 <zeroes.4541+0x40>
   1159a:	2796cb63          	blt	a3,s9,11810 <_vfprintf_r+0x14cc>
   1159e:	f7f47413          	andi	s0,s0,-129
   115a2:	f002                	sd	zero,32(sp)
   115a4:	ec82                	sd	zero,88(sp)
   115a6:	f482                	sd	zero,104(sp)
   115a8:	f082                	sd	zero,96(sp)
   115aa:	2401                	sext.w	s0,s0
   115ac:	498d                	li	s3,3
   115ae:	4c0d                	li	s8,3
   115b0:	4e81                	li	t4,0
   115b2:	c399                	beqz	a5,115b8 <_vfprintf_r+0x1274>
   115b4:	838ff06f          	j	105ec <_vfprintf_r+0x2a8>
   115b8:	cc6ff06f          	j	10a7e <_vfprintf_r+0x73a>
   115bc:	856a                	mv	a0,s10
   115be:	ec1a                	sd	t1,24(sp)
   115c0:	e836                	sd	a3,16(sp)
   115c2:	589040ef          	jal	ra,1634a <strlen>
   115c6:	00050c1b          	sext.w	s8,a0
   115ca:	fffc4993          	not	s3,s8
   115ce:	0df14783          	lbu	a5,223(sp)
   115d2:	43f9d993          	srai	s3,s3,0x3f
   115d6:	013c79b3          	and	s3,s8,s3
   115da:	f002                	sd	zero,32(sp)
   115dc:	ec82                	sd	zero,88(sp)
   115de:	f482                	sd	zero,104(sp)
   115e0:	f082                	sd	zero,96(sp)
   115e2:	2981                	sext.w	s3,s3
   115e4:	4e81                	li	t4,0
   115e6:	6362                	ld	t1,24(sp)
   115e8:	c399                	beqz	a5,115ee <_vfprintf_r+0x12aa>
   115ea:	802ff06f          	j	105ec <_vfprintf_r+0x2a8>
   115ee:	c90ff06f          	j	10a7e <_vfprintf_r+0x73a>
   115f2:	20047793          	andi	a5,s0,512
   115f6:	2c078163          	beqz	a5,118b8 <_vfprintf_r+0x1574>
   115fa:	0ff9f993          	andi	s3,s3,255
   115fe:	f85fe06f          	j	10582 <_vfprintf_r+0x23e>
   11602:	20047793          	andi	a5,s0,512
   11606:	2a078163          	beqz	a5,118a8 <_vfprintf_r+0x1564>
   1160a:	0ff9f993          	andi	s3,s3,255
   1160e:	e83a                	sd	a4,16(sp)
   11610:	86a2                	mv	a3,s0
   11612:	4785                	li	a5,1
   11614:	f95fe06f          	j	105a8 <_vfprintf_r+0x264>
   11618:	20047793          	andi	a5,s0,512
   1161c:	2a078363          	beqz	a5,118c2 <_vfprintf_r+0x157e>
   11620:	0ff9f993          	andi	s3,s3,255
   11624:	e83a                	sd	a4,16(sp)
   11626:	b00ff06f          	j	10926 <_vfprintf_r+0x5e2>
   1162a:	20047793          	andi	a5,s0,512
   1162e:	24078f63          	beqz	a5,1188c <_vfprintf_r+0x1548>
   11632:	67c2                	ld	a5,16(sp)
   11634:	86a2                	mv	a3,s0
   11636:	e83a                	sd	a4,16(sp)
   11638:	00078983          	lb	s3,0(a5)
   1163c:	87ce                	mv	a5,s3
   1163e:	b26ff06f          	j	10964 <_vfprintf_r+0x620>
   11642:	67b2                	ld	a5,264(sp)
   11644:	2807c563          	bltz	a5,118ce <_vfprintf_r+0x158a>
   11648:	0df14783          	lbu	a5,223(sp)
   1164c:	04700693          	li	a3,71
   11650:	0000bd17          	auipc	s10,0xb
   11654:	c20d0d13          	addi	s10,s10,-992 # 1c270 <zeroes.4541+0x50>
   11658:	f596d3e3          	bge	a3,s9,1159e <_vfprintf_r+0x125a>
   1165c:	0000bd17          	auipc	s10,0xb
   11660:	c1cd0d13          	addi	s10,s10,-996 # 1c278 <zeroes.4541+0x58>
   11664:	bf2d                	j	1159e <_vfprintf_r+0x125a>
   11666:	0016861b          	addiw	a2,a3,1
   1166a:	97e2                	add	a5,a5,s8
   1166c:	01233023          	sd	s2,0(t1)
   11670:	01833423          	sd	s8,8(t1)
   11674:	f23e                	sd	a5,288(sp)
   11676:	10c12c23          	sw	a2,280(sp)
   1167a:	469d                	li	a3,7
   1167c:	0341                	addi	t1,t1,16
   1167e:	bcc6d8e3          	bge	a3,a2,1124e <_vfprintf_r+0xf0a>
   11682:	0a10                	addi	a2,sp,272
   11684:	85d2                	mv	a1,s4
   11686:	8556                	mv	a0,s5
   11688:	245060ef          	jal	ra,180cc <__sprint_r>
   1168c:	c119                	beqz	a0,11692 <_vfprintf_r+0x134e>
   1168e:	e85fe06f          	j	10512 <_vfprintf_r+0x1ce>
   11692:	7792                	ld	a5,288(sp)
   11694:	835a                	mv	t1,s6
   11696:	be65                	j	1124e <_vfprintf_r+0xf0a>
   11698:	7722                	ld	a4,40(sp)
   1169a:	4c9d                	li	s9,7
   1169c:	976a                	add	a4,a4,s10
   1169e:	fc3a                	sd	a4,56(sp)
   116a0:	7726                	ld	a4,104(sp)
   116a2:	cb51                	beqz	a4,11736 <_vfprintf_r+0x13f2>
   116a4:	6766                	ld	a4,88(sp)
   116a6:	eb59                	bnez	a4,1173c <_vfprintf_r+0x13f8>
   116a8:	7746                	ld	a4,112(sp)
   116aa:	177d                	addi	a4,a4,-1
   116ac:	f8ba                	sd	a4,112(sp)
   116ae:	7726                	ld	a4,104(sp)
   116b0:	377d                	addiw	a4,a4,-1
   116b2:	f4ba                	sd	a4,104(sp)
   116b4:	66ea                	ld	a3,152(sp)
   116b6:	672a                	ld	a4,136(sp)
   116b8:	0341                	addi	t1,t1,16
   116ba:	fed33823          	sd	a3,-16(t1)
   116be:	11812683          	lw	a3,280(sp)
   116c2:	97ba                	add	a5,a5,a4
   116c4:	fee33c23          	sd	a4,-8(t1)
   116c8:	0016861b          	addiw	a2,a3,1
   116cc:	f23e                	sd	a5,288(sp)
   116ce:	10c12c23          	sw	a2,280(sp)
   116d2:	0eccc163          	blt	s9,a2,117b4 <_vfprintf_r+0x1470>
   116d6:	7746                	ld	a4,112(sp)
   116d8:	00074603          	lbu	a2,0(a4)
   116dc:	7762                	ld	a4,56(sp)
   116de:	0006069b          	sext.w	a3,a2
   116e2:	418705bb          	subw	a1,a4,s8
   116e6:	0006881b          	sext.w	a6,a3
   116ea:	00d5d463          	bge	a1,a3,116f2 <_vfprintf_r+0x13ae>
   116ee:	0005881b          	sext.w	a6,a1
   116f2:	03005663          	blez	a6,1171e <_vfprintf_r+0x13da>
   116f6:	11812683          	lw	a3,280(sp)
   116fa:	97c2                	add	a5,a5,a6
   116fc:	01833023          	sd	s8,0(t1)
   11700:	0016861b          	addiw	a2,a3,1
   11704:	01033423          	sd	a6,8(t1)
   11708:	f23e                	sd	a5,288(sp)
   1170a:	10c12c23          	sw	a2,280(sp)
   1170e:	0accce63          	blt	s9,a2,117ca <_vfprintf_r+0x1486>
   11712:	7746                	ld	a4,112(sp)
   11714:	0341                	addi	t1,t1,16
   11716:	00074603          	lbu	a2,0(a4)
   1171a:	0006069b          	sext.w	a3,a2
   1171e:	fff84593          	not	a1,a6
   11722:	95fd                	srai	a1,a1,0x3f
   11724:	00b87833          	and	a6,a6,a1
   11728:	410686bb          	subw	a3,a3,a6
   1172c:	00d04c63          	bgtz	a3,11744 <_vfprintf_r+0x1400>
   11730:	9c32                	add	s8,s8,a2
   11732:	7726                	ld	a4,104(sp)
   11734:	fb25                	bnez	a4,116a4 <_vfprintf_r+0x1360>
   11736:	6766                	ld	a4,88(sp)
   11738:	34070763          	beqz	a4,11a86 <_vfprintf_r+0x1742>
   1173c:	6766                	ld	a4,88(sp)
   1173e:	377d                	addiw	a4,a4,-1
   11740:	ecba                	sd	a4,88(sp)
   11742:	bf8d                	j	116b4 <_vfprintf_r+0x1370>
   11744:	11812603          	lw	a2,280(sp)
   11748:	00ddc663          	blt	s11,a3,11754 <_vfprintf_r+0x1410>
   1174c:	a089                	j	1178e <_vfprintf_r+0x144a>
   1174e:	36c1                	addiw	a3,a3,-16
   11750:	02dddf63          	bge	s11,a3,1178e <_vfprintf_r+0x144a>
   11754:	2605                	addiw	a2,a2,1
   11756:	07c1                	addi	a5,a5,16
   11758:	01233023          	sd	s2,0(t1)
   1175c:	01b33423          	sd	s11,8(t1)
   11760:	f23e                	sd	a5,288(sp)
   11762:	10c12c23          	sw	a2,280(sp)
   11766:	0341                	addi	t1,t1,16
   11768:	feccd3e3          	bge	s9,a2,1174e <_vfprintf_r+0x140a>
   1176c:	0a10                	addi	a2,sp,272
   1176e:	85d2                	mv	a1,s4
   11770:	8556                	mv	a0,s5
   11772:	ec36                	sd	a3,24(sp)
   11774:	159060ef          	jal	ra,180cc <__sprint_r>
   11778:	c119                	beqz	a0,1177e <_vfprintf_r+0x143a>
   1177a:	d99fe06f          	j	10512 <_vfprintf_r+0x1ce>
   1177e:	66e2                	ld	a3,24(sp)
   11780:	7792                	ld	a5,288(sp)
   11782:	11812603          	lw	a2,280(sp)
   11786:	36c1                	addiw	a3,a3,-16
   11788:	835a                	mv	t1,s6
   1178a:	fcddc5e3          	blt	s11,a3,11754 <_vfprintf_r+0x1410>
   1178e:	2605                	addiw	a2,a2,1
   11790:	97b6                	add	a5,a5,a3
   11792:	00d33423          	sd	a3,8(t1)
   11796:	01233023          	sd	s2,0(t1)
   1179a:	f23e                	sd	a5,288(sp)
   1179c:	0006069b          	sext.w	a3,a2
   117a0:	10c12c23          	sw	a2,280(sp)
   117a4:	40dcc263          	blt	s9,a3,11ba8 <_vfprintf_r+0x1864>
   117a8:	7746                	ld	a4,112(sp)
   117aa:	0341                	addi	t1,t1,16
   117ac:	00074603          	lbu	a2,0(a4)
   117b0:	9c32                	add	s8,s8,a2
   117b2:	b741                	j	11732 <_vfprintf_r+0x13ee>
   117b4:	0a10                	addi	a2,sp,272
   117b6:	85d2                	mv	a1,s4
   117b8:	8556                	mv	a0,s5
   117ba:	113060ef          	jal	ra,180cc <__sprint_r>
   117be:	c119                	beqz	a0,117c4 <_vfprintf_r+0x1480>
   117c0:	d53fe06f          	j	10512 <_vfprintf_r+0x1ce>
   117c4:	7792                	ld	a5,288(sp)
   117c6:	835a                	mv	t1,s6
   117c8:	b739                	j	116d6 <_vfprintf_r+0x1392>
   117ca:	0a10                	addi	a2,sp,272
   117cc:	85d2                	mv	a1,s4
   117ce:	8556                	mv	a0,s5
   117d0:	ec42                	sd	a6,24(sp)
   117d2:	0fb060ef          	jal	ra,180cc <__sprint_r>
   117d6:	c119                	beqz	a0,117dc <_vfprintf_r+0x1498>
   117d8:	d3bfe06f          	j	10512 <_vfprintf_r+0x1ce>
   117dc:	77c6                	ld	a5,112(sp)
   117de:	835a                	mv	t1,s6
   117e0:	6862                	ld	a6,24(sp)
   117e2:	0007c603          	lbu	a2,0(a5)
   117e6:	7792                	ld	a5,288(sp)
   117e8:	0006069b          	sext.w	a3,a2
   117ec:	bf0d                	j	1171e <_vfprintf_r+0x13da>
   117ee:	2c85                	addiw	s9,s9,1
   117f0:	01070313          	addi	t1,a4,16
   117f4:	8c3a                	mv	s8,a4
   117f6:	b8b5                	j	11072 <_vfprintf_r+0xd2e>
   117f8:	0a10                	addi	a2,sp,272
   117fa:	85d2                	mv	a1,s4
   117fc:	8556                	mv	a0,s5
   117fe:	0cf060ef          	jal	ra,180cc <__sprint_r>
   11802:	c119                	beqz	a0,11808 <_vfprintf_r+0x14c4>
   11804:	d0ffe06f          	j	10512 <_vfprintf_r+0x1ce>
   11808:	55ae                	lw	a1,232(sp)
   1180a:	7792                	ld	a5,288(sp)
   1180c:	835a                	mv	t1,s6
   1180e:	b331                	j	1151a <_vfprintf_r+0x11d6>
   11810:	0000bd17          	auipc	s10,0xb
   11814:	a58d0d13          	addi	s10,s10,-1448 # 1c268 <zeroes.4541+0x48>
   11818:	b359                	j	1159e <_vfprintf_r+0x125a>
   1181a:	0a10                	addi	a2,sp,272
   1181c:	85d2                	mv	a1,s4
   1181e:	8556                	mv	a0,s5
   11820:	0ad060ef          	jal	ra,180cc <__sprint_r>
   11824:	c119                	beqz	a0,1182a <_vfprintf_r+0x14e6>
   11826:	cedfe06f          	j	10512 <_vfprintf_r+0x1ce>
   1182a:	7792                	ld	a5,288(sp)
   1182c:	835a                	mv	t1,s6
   1182e:	b431                	j	1123a <_vfprintf_r+0xef6>
   11830:	4e99                	li	t4,6
   11832:	b12d                	j	1145c <_vfprintf_r+0x1118>
   11834:	e0be                	sd	a5,64(sp)
   11836:	67aa                	ld	a5,136(sp)
   11838:	65ea                	ld	a1,152(sp)
   1183a:	fc1a                	sd	t1,56(sp)
   1183c:	40fd0d33          	sub	s10,s10,a5
   11840:	863e                	mv	a2,a5
   11842:	856a                	mv	a0,s10
   11844:	f076                	sd	t4,32(sp)
   11846:	ec36                	sd	a3,24(sp)
   11848:	39b040ef          	jal	ra,163e2 <strncpy>
   1184c:	77c6                	ld	a5,112(sp)
   1184e:	0289d633          	divu	a2,s3,s0
   11852:	f402                	sd	zero,40(sp)
   11854:	0017c583          	lbu	a1,1(a5)
   11858:	66e2                	ld	a3,24(sp)
   1185a:	7e82                	ld	t4,32(sp)
   1185c:	00b035b3          	snez	a1,a1
   11860:	97ae                	add	a5,a5,a1
   11862:	f8be                	sd	a5,112(sp)
   11864:	7362                	ld	t1,56(sp)
   11866:	6786                	ld	a5,64(sp)
   11868:	4825                	li	a6,9
   1186a:	0ff00893          	li	a7,255
   1186e:	d48ff06f          	j	10db6 <_vfprintf_r+0xa72>
   11872:	7622                	ld	a2,40(sp)
   11874:	00cd0733          	add	a4,s10,a2
   11878:	41870ebb          	subw	t4,a4,s8
   1187c:	9e15                	subw	a2,a2,a3
   1187e:	8c76                	mv	s8,t4
   11880:	01d65363          	bge	a2,t4,11886 <_vfprintf_r+0x1542>
   11884:	8c32                	mv	s8,a2
   11886:	000c0c9b          	sext.w	s9,s8
   1188a:	b489                	j	112cc <_vfprintf_r+0xf88>
   1188c:	67c2                	ld	a5,16(sp)
   1188e:	86a2                	mv	a3,s0
   11890:	e83a                	sd	a4,16(sp)
   11892:	0007a983          	lw	s3,0(a5)
   11896:	87ce                	mv	a5,s3
   11898:	8ccff06f          	j	10964 <_vfprintf_r+0x620>
   1189c:	67a2                	ld	a5,8(sp)
   1189e:	8d26                	mv	s10,s1
   118a0:	00f71023          	sh	a5,0(a4)
   118a4:	abcff06f          	j	10b60 <_vfprintf_r+0x81c>
   118a8:	1982                	slli	s3,s3,0x20
   118aa:	0209d993          	srli	s3,s3,0x20
   118ae:	e83a                	sd	a4,16(sp)
   118b0:	86a2                	mv	a3,s0
   118b2:	4785                	li	a5,1
   118b4:	cf5fe06f          	j	105a8 <_vfprintf_r+0x264>
   118b8:	1982                	slli	s3,s3,0x20
   118ba:	0209d993          	srli	s3,s3,0x20
   118be:	cc5fe06f          	j	10582 <_vfprintf_r+0x23e>
   118c2:	1982                	slli	s3,s3,0x20
   118c4:	0209d993          	srli	s3,s3,0x20
   118c8:	e83a                	sd	a4,16(sp)
   118ca:	85cff06f          	j	10926 <_vfprintf_r+0x5e2>
   118ce:	02d00793          	li	a5,45
   118d2:	0cf10fa3          	sb	a5,223(sp)
   118d6:	bb9d                	j	1164c <_vfprintf_r+0x1308>
   118d8:	03000793          	li	a5,48
   118dc:	0ef10023          	sb	a5,224(sp)
   118e0:	05800713          	li	a4,88
   118e4:	00246793          	ori	a5,s0,2
   118e8:	2781                	sext.w	a5,a5
   118ea:	0ee100a3          	sb	a4,225(sp)
   118ee:	06300693          	li	a3,99
   118f2:	f93e                	sd	a5,176(sp)
   118f4:	f002                	sd	zero,32(sp)
   118f6:	12810d13          	addi	s10,sp,296
   118fa:	41d6cc63          	blt	a3,t4,11d12 <_vfprintf_r+0x19ce>
   118fe:	6c32                	ld	s8,264(sp)
   11900:	fdfcf793          	andi	a5,s9,-33
   11904:	10246413          	ori	s0,s0,258
   11908:	f53e                	sd	a5,168(sp)
   1190a:	e582                	sd	zero,200(sp)
   1190c:	2401                	sext.w	s0,s0
   1190e:	6f92                	ld	t6,256(sp)
   11910:	280c4463          	bltz	s8,11b98 <_vfprintf_r+0x1854>
   11914:	06100793          	li	a5,97
   11918:	52fc8d63          	beq	s9,a5,11e52 <_vfprintf_r+0x1b0e>
   1191c:	04100793          	li	a5,65
   11920:	00fc8463          	beq	s9,a5,11928 <_vfprintf_r+0x15e4>
   11924:	df7fe06f          	j	1071a <_vfprintf_r+0x3d6>
   11928:	857e                	mv	a0,t6
   1192a:	85e2                	mv	a1,s8
   1192c:	fc1a                	sd	t1,56(sp)
   1192e:	f476                	sd	t4,40(sp)
   11930:	5040a0ef          	jal	ra,1be34 <__trunctfdf2>
   11934:	11a8                	addi	a0,sp,232
   11936:	69c040ef          	jal	ra,15fd2 <frexp>
   1193a:	4360a0ef          	jal	ra,1bd70 <__extenddftf2>
   1193e:	0000b797          	auipc	a5,0xb
   11942:	91278793          	addi	a5,a5,-1774 # 1c250 <zeroes.4541+0x30>
   11946:	6794                	ld	a3,8(a5)
   11948:	4601                	li	a2,0
   1194a:	518090ef          	jal	ra,1ae62 <__multf3>
   1194e:	4601                	li	a2,0
   11950:	4681                	li	a3,0
   11952:	8c2a                	mv	s8,a0
   11954:	ec2e                	sd	a1,24(sp)
   11956:	314090ef          	jal	ra,1ac6a <__eqtf2>
   1195a:	62e2                	ld	t0,24(sp)
   1195c:	7ea2                	ld	t4,40(sp)
   1195e:	7362                	ld	t1,56(sp)
   11960:	e119                	bnez	a0,11966 <_vfprintf_r+0x1622>
   11962:	4785                	li	a5,1
   11964:	d5be                	sw	a5,232(sp)
   11966:	0000b797          	auipc	a5,0xb
   1196a:	93278793          	addi	a5,a5,-1742 # 1c298 <zeroes.4541+0x78>
   1196e:	f0be                	sd	a5,96(sp)
   11970:	000e869b          	sext.w	a3,t4
   11974:	02069793          	slli	a5,a3,0x20
   11978:	9381                	srli	a5,a5,0x20
   1197a:	0785                	addi	a5,a5,1
   1197c:	97ea                	add	a5,a5,s10
   1197e:	f13e                	sd	a5,160(sp)
   11980:	00dd07bb          	addw	a5,s10,a3
   11984:	df3e                	sw	a5,188(sp)
   11986:	0000b797          	auipc	a5,0xb
   1198a:	8aa78793          	addi	a5,a5,-1878 # 1c230 <zeroes.4541+0x10>
   1198e:	679c                	ld	a5,8(a5)
   11990:	ec6a                	sd	s10,24(sp)
   11992:	e1be                	sd	a5,192(sp)
   11994:	a839                	j	119b2 <_vfprintf_r+0x166e>
   11996:	4601                	li	a2,0
   11998:	4681                	li	a3,0
   1199a:	ecae                	sd	a1,88(sp)
   1199c:	e8aa                	sd	a0,80(sp)
   1199e:	2cc090ef          	jal	ra,1ac6a <__eqtf2>
   119a2:	7ee2                	ld	t4,56(sp)
   119a4:	6306                	ld	t1,64(sp)
   119a6:	6fc6                	ld	t6,80(sp)
   119a8:	68e6                	ld	a7,88(sp)
   119aa:	77a2                	ld	a5,40(sp)
   119ac:	62a6                	ld	t0,72(sp)
   119ae:	c135                	beqz	a0,11a12 <_vfprintf_r+0x16ce>
   119b0:	ec3e                	sd	a5,24(sp)
   119b2:	668e                	ld	a3,192(sp)
   119b4:	4601                	li	a2,0
   119b6:	8596                	mv	a1,t0
   119b8:	8562                	mv	a0,s8
   119ba:	e09a                	sd	t1,64(sp)
   119bc:	fc76                	sd	t4,56(sp)
   119be:	4a4090ef          	jal	ra,1ae62 <__multf3>
   119c2:	8c2e                	mv	s8,a1
   119c4:	f42a                	sd	a0,40(sp)
   119c6:	2bc0a0ef          	jal	ra,1bc82 <__fixtfsi>
   119ca:	0005099b          	sext.w	s3,a0
   119ce:	854e                	mv	a0,s3
   119d0:	3420a0ef          	jal	ra,1bd12 <__floatsitf>
   119d4:	7822                	ld	a6,40(sp)
   119d6:	86ae                	mv	a3,a1
   119d8:	862a                	mv	a2,a0
   119da:	85e2                	mv	a1,s8
   119dc:	8542                	mv	a0,a6
   119de:	28b090ef          	jal	ra,1b468 <__subtf3>
   119e2:	7786                	ld	a5,96(sp)
   119e4:	577a                	lw	a4,188(sp)
   119e6:	e4ae                	sd	a1,72(sp)
   119e8:	97ce                	add	a5,a5,s3
   119ea:	0007c683          	lbu	a3,0(a5)
   119ee:	67e2                	ld	a5,24(sp)
   119f0:	8faa                	mv	t6,a0
   119f2:	88ae                	mv	a7,a1
   119f4:	00d78023          	sb	a3,0(a5)
   119f8:	0785                	addi	a5,a5,1
   119fa:	9f1d                	subw	a4,a4,a5
   119fc:	f4ba                	sd	a4,104(sp)
   119fe:	770a                	ld	a4,160(sp)
   11a00:	f43e                	sd	a5,40(sp)
   11a02:	8c2a                	mv	s8,a0
   11a04:	7ee2                	ld	t4,56(sp)
   11a06:	6306                	ld	t1,64(sp)
   11a08:	f8e797e3          	bne	a5,a4,11996 <_vfprintf_r+0x1652>
   11a0c:	778a                	ld	a5,160(sp)
   11a0e:	577d                	li	a4,-1
   11a10:	f4ba                	sd	a4,104(sp)
   11a12:	0000b697          	auipc	a3,0xb
   11a16:	82e68693          	addi	a3,a3,-2002 # 1c240 <zeroes.4541+0x20>
   11a1a:	e4be                	sd	a5,72(sp)
   11a1c:	669c                	ld	a5,8(a3)
   11a1e:	4601                	li	a2,0
   11a20:	857e                	mv	a0,t6
   11a22:	86be                	mv	a3,a5
   11a24:	85c6                	mv	a1,a7
   11a26:	e09a                	sd	t1,64(sp)
   11a28:	fc76                	sd	t4,56(sp)
   11a2a:	f43e                	sd	a5,40(sp)
   11a2c:	ecfe                	sd	t6,88(sp)
   11a2e:	e8c6                	sd	a7,80(sp)
   11a30:	2d6090ef          	jal	ra,1ad06 <__getf2>
   11a34:	7ee2                	ld	t4,56(sp)
   11a36:	6306                	ld	t1,64(sp)
   11a38:	67a6                	ld	a5,72(sp)
   11a3a:	30a04163          	bgtz	a0,11d3c <_vfprintf_r+0x19f8>
   11a3e:	6fe6                	ld	t6,88(sp)
   11a40:	68c6                	ld	a7,80(sp)
   11a42:	76a2                	ld	a3,40(sp)
   11a44:	4601                	li	a2,0
   11a46:	857e                	mv	a0,t6
   11a48:	85c6                	mv	a1,a7
   11a4a:	220090ef          	jal	ra,1ac6a <__eqtf2>
   11a4e:	7ee2                	ld	t4,56(sp)
   11a50:	6306                	ld	t1,64(sp)
   11a52:	67a6                	ld	a5,72(sp)
   11a54:	e509                	bnez	a0,11a5e <_vfprintf_r+0x171a>
   11a56:	0019f993          	andi	s3,s3,1
   11a5a:	2e099163          	bnez	s3,11d3c <_vfprintf_r+0x19f8>
   11a5e:	7726                	ld	a4,104(sp)
   11a60:	03000613          	li	a2,48
   11a64:	00170693          	addi	a3,a4,1
   11a68:	96be                	add	a3,a3,a5
   11a6a:	00075463          	bgez	a4,11a72 <_vfprintf_r+0x172e>
   11a6e:	d0bfe06f          	j	10778 <_vfprintf_r+0x434>
   11a72:	0785                	addi	a5,a5,1
   11a74:	fec78fa3          	sb	a2,-1(a5)
   11a78:	fef69de3          	bne	a3,a5,11a72 <_vfprintf_r+0x172e>
   11a7c:	cfdfe06f          	j	10778 <_vfprintf_r+0x434>
   11a80:	86a2                	mv	a3,s0
   11a82:	b02ff06f          	j	10d84 <_vfprintf_r+0xa40>
   11a86:	7722                	ld	a4,40(sp)
   11a88:	00ed06b3          	add	a3,s10,a4
   11a8c:	fd86f863          	bgeu	a3,s8,1125c <_vfprintf_r+0xf18>
   11a90:	8c36                	mv	s8,a3
   11a92:	fcaff06f          	j	1125c <_vfprintf_r+0xf18>
   11a96:	7706                	ld	a4,96(sp)
   11a98:	57f5                	li	a5,-3
   11a9a:	00f74463          	blt	a4,a5,11aa2 <_vfprintf_r+0x175e>
   11a9e:	0aeed463          	bge	t4,a4,11b46 <_vfprintf_r+0x1802>
   11aa2:	3cf9                	addiw	s9,s9,-2
   11aa4:	fdfcf793          	andi	a5,s9,-33
   11aa8:	f53e                	sd	a5,168(sp)
   11aaa:	cf5fe06f          	j	1079e <_vfprintf_r+0x45a>
   11aae:	11bc                	addi	a5,sp,232
   11ab0:	8776                	mv	a4,t4
   11ab2:	468d                	li	a3,3
   11ab4:	85fe                	mv	a1,t6
   11ab6:	0f810893          	addi	a7,sp,248
   11aba:	0ec10813          	addi	a6,sp,236
   11abe:	8662                	mv	a2,s8
   11ac0:	8556                	mv	a0,s5
   11ac2:	fc1a                	sd	t1,56(sp)
   11ac4:	f476                	sd	t4,40(sp)
   11ac6:	ec7e                	sd	t6,24(sp)
   11ac8:	19c020ef          	jal	ra,13c64 <_ldtoa_r>
   11acc:	00054683          	lbu	a3,0(a0)
   11ad0:	03000793          	li	a5,48
   11ad4:	8d2a                	mv	s10,a0
   11ad6:	6fe2                	ld	t6,24(sp)
   11ad8:	7ea2                	ld	t4,40(sp)
   11ada:	7362                	ld	t1,56(sp)
   11adc:	0ef69563          	bne	a3,a5,11bc6 <_vfprintf_r+0x1882>
   11ae0:	857e                	mv	a0,t6
   11ae2:	4601                	li	a2,0
   11ae4:	4681                	li	a3,0
   11ae6:	85e2                	mv	a1,s8
   11ae8:	fc1a                	sd	t1,56(sp)
   11aea:	f476                	sd	t4,40(sp)
   11aec:	ec7e                	sd	t6,24(sp)
   11aee:	17c090ef          	jal	ra,1ac6a <__eqtf2>
   11af2:	6fe2                	ld	t6,24(sp)
   11af4:	7ea2                	ld	t4,40(sp)
   11af6:	7362                	ld	t1,56(sp)
   11af8:	c579                	beqz	a0,11bc6 <_vfprintf_r+0x1882>
   11afa:	4685                	li	a3,1
   11afc:	41d687bb          	subw	a5,a3,t4
   11b00:	d5be                	sw	a5,232(sp)
   11b02:	01d789b3          	add	s3,a5,t4
   11b06:	99ea                	add	s3,s3,s10
   11b08:	4601                	li	a2,0
   11b0a:	4681                	li	a3,0
   11b0c:	857e                	mv	a0,t6
   11b0e:	85e2                	mv	a1,s8
   11b10:	f41a                	sd	t1,40(sp)
   11b12:	ec76                	sd	t4,24(sp)
   11b14:	156090ef          	jal	ra,1ac6a <__eqtf2>
   11b18:	87ce                	mv	a5,s3
   11b1a:	6ee2                	ld	t4,24(sp)
   11b1c:	7322                	ld	t1,40(sp)
   11b1e:	e119                	bnez	a0,11b24 <_vfprintf_r+0x17e0>
   11b20:	c59fe06f          	j	10778 <_vfprintf_r+0x434>
   11b24:	77ee                	ld	a5,248(sp)
   11b26:	03000613          	li	a2,48
   11b2a:	0137e463          	bltu	a5,s3,11b32 <_vfprintf_r+0x17ee>
   11b2e:	c4bfe06f          	j	10778 <_vfprintf_r+0x434>
   11b32:	00178693          	addi	a3,a5,1
   11b36:	fdb6                	sd	a3,248(sp)
   11b38:	00c78023          	sb	a2,0(a5)
   11b3c:	77ee                	ld	a5,248(sp)
   11b3e:	ff37eae3          	bltu	a5,s3,11b32 <_vfprintf_r+0x17ee>
   11b42:	c37fe06f          	j	10778 <_vfprintf_r+0x434>
   11b46:	77a2                	ld	a5,40(sp)
   11b48:	7706                	ld	a4,96(sp)
   11b4a:	0ef74c63          	blt	a4,a5,11c42 <_vfprintf_r+0x18fe>
   11b4e:	77ca                	ld	a5,176(sp)
   11b50:	8c3a                	mv	s8,a4
   11b52:	8b85                	andi	a5,a5,1
   11b54:	c781                	beqz	a5,11b5c <_vfprintf_r+0x1818>
   11b56:	77e6                	ld	a5,120(sp)
   11b58:	00e78c3b          	addw	s8,a5,a4
   11b5c:	77ca                	ld	a5,176(sp)
   11b5e:	4007f793          	andi	a5,a5,1024
   11b62:	c781                	beqz	a5,11b6a <_vfprintf_r+0x1826>
   11b64:	7786                	ld	a5,96(sp)
   11b66:	26f04863          	bgtz	a5,11dd6 <_vfprintf_r+0x1a92>
   11b6a:	fffc4993          	not	s3,s8
   11b6e:	43f9d993          	srai	s3,s3,0x3f
   11b72:	013c79b3          	and	s3,s8,s3
   11b76:	2981                	sext.w	s3,s3
   11b78:	06700c93          	li	s9,103
   11b7c:	ec82                	sd	zero,88(sp)
   11b7e:	f482                	sd	zero,104(sp)
   11b80:	d05fe06f          	j	10884 <_vfprintf_r+0x540>
   11b84:	0df14783          	lbu	a5,223(sp)
   11b88:	4e81                	li	t4,0
   11b8a:	c399                	beqz	a5,11b90 <_vfprintf_r+0x184c>
   11b8c:	a61fe06f          	j	105ec <_vfprintf_r+0x2a8>
   11b90:	eeffe06f          	j	10a7e <_vfprintf_r+0x73a>
   11b94:	f002                	sd	zero,32(sp)
   11b96:	843e                	mv	s0,a5
   11b98:	57fd                	li	a5,-1
   11b9a:	17fe                	slli	a5,a5,0x3f
   11b9c:	00fc4c33          	xor	s8,s8,a5
   11ba0:	02d00793          	li	a5,45
   11ba4:	e5be                	sd	a5,200(sp)
   11ba6:	b3bd                	j	11914 <_vfprintf_r+0x15d0>
   11ba8:	0a10                	addi	a2,sp,272
   11baa:	85d2                	mv	a1,s4
   11bac:	8556                	mv	a0,s5
   11bae:	51e060ef          	jal	ra,180cc <__sprint_r>
   11bb2:	c119                	beqz	a0,11bb8 <_vfprintf_r+0x1874>
   11bb4:	95ffe06f          	j	10512 <_vfprintf_r+0x1ce>
   11bb8:	77c6                	ld	a5,112(sp)
   11bba:	835a                	mv	t1,s6
   11bbc:	0007c603          	lbu	a2,0(a5)
   11bc0:	7792                	ld	a5,288(sp)
   11bc2:	9c32                	add	s8,s8,a2
   11bc4:	b6bd                	j	11732 <_vfprintf_r+0x13ee>
   11bc6:	57ae                	lw	a5,232(sp)
   11bc8:	01d789b3          	add	s3,a5,t4
   11bcc:	bf2d                	j	11b06 <_vfprintf_r+0x17c2>
   11bce:	0a10                	addi	a2,sp,272
   11bd0:	85d2                	mv	a1,s4
   11bd2:	8556                	mv	a0,s5
   11bd4:	4f8060ef          	jal	ra,180cc <__sprint_r>
   11bd8:	c119                	beqz	a0,11bde <_vfprintf_r+0x189a>
   11bda:	939fe06f          	j	10512 <_vfprintf_r+0x1ce>
   11bde:	56ae                	lw	a3,232(sp)
   11be0:	7792                	ld	a5,288(sp)
   11be2:	835a                	mv	t1,s6
   11be4:	eacff06f          	j	11290 <_vfprintf_r+0xf4c>
   11be8:	02d00793          	li	a5,45
   11bec:	0cf10fa3          	sb	a5,223(sp)
   11bf0:	ba79                	j	1158e <_vfprintf_r+0x124a>
   11bf2:	0df14783          	lbu	a5,223(sp)
   11bf6:	e836                	sd	a3,16(sp)
   11bf8:	ec82                	sd	zero,88(sp)
   11bfa:	f482                	sd	zero,104(sp)
   11bfc:	f082                	sd	zero,96(sp)
   11bfe:	89f6                	mv	s3,t4
   11c00:	8c76                	mv	s8,t4
   11c02:	4e81                	li	t4,0
   11c04:	c399                	beqz	a5,11c0a <_vfprintf_r+0x18c6>
   11c06:	9e7fe06f          	j	105ec <_vfprintf_r+0x2a8>
   11c0a:	e75fe06f          	j	10a7e <_vfprintf_r+0x73a>
   11c0e:	77ca                	ld	a5,176(sp)
   11c10:	7706                	ld	a4,96(sp)
   11c12:	8b85                	andi	a5,a5,1
   11c14:	00fee7b3          	or	a5,t4,a5
   11c18:	2781                	sext.w	a5,a5
   11c1a:	2ce05163          	blez	a4,11edc <_vfprintf_r+0x1b98>
   11c1e:	22079263          	bnez	a5,11e42 <_vfprintf_r+0x1afe>
   11c22:	7c06                	ld	s8,96(sp)
   11c24:	06600c93          	li	s9,102
   11c28:	77ca                	ld	a5,176(sp)
   11c2a:	4007f793          	andi	a5,a5,1024
   11c2e:	1a079663          	bnez	a5,11dda <_vfprintf_r+0x1a96>
   11c32:	fffc4993          	not	s3,s8
   11c36:	43f9d993          	srai	s3,s3,0x3f
   11c3a:	013c79b3          	and	s3,s8,s3
   11c3e:	2981                	sext.w	s3,s3
   11c40:	bf35                	j	11b7c <_vfprintf_r+0x1838>
   11c42:	7722                	ld	a4,40(sp)
   11c44:	77e6                	ld	a5,120(sp)
   11c46:	06700c93          	li	s9,103
   11c4a:	00e78c3b          	addw	s8,a5,a4
   11c4e:	7706                	ld	a4,96(sp)
   11c50:	fce04ce3          	bgtz	a4,11c28 <_vfprintf_r+0x18e4>
   11c54:	40ec07bb          	subw	a5,s8,a4
   11c58:	2785                	addiw	a5,a5,1
   11c5a:	00078c1b          	sext.w	s8,a5
   11c5e:	fffc4993          	not	s3,s8
   11c62:	43f9d993          	srai	s3,s3,0x3f
   11c66:	0137f7b3          	and	a5,a5,s3
   11c6a:	0007899b          	sext.w	s3,a5
   11c6e:	b739                	j	11b7c <_vfprintf_r+0x1838>
   11c70:	0a10                	addi	a2,sp,272
   11c72:	85d2                	mv	a1,s4
   11c74:	8556                	mv	a0,s5
   11c76:	456060ef          	jal	ra,180cc <__sprint_r>
   11c7a:	c119                	beqz	a0,11c80 <_vfprintf_r+0x193c>
   11c7c:	897fe06f          	j	10512 <_vfprintf_r+0x1ce>
   11c80:	562e                	lw	a2,232(sp)
   11c82:	7722                	ld	a4,40(sp)
   11c84:	7792                	ld	a5,288(sp)
   11c86:	835a                	mv	t1,s6
   11c88:	40c7063b          	subw	a2,a4,a2
   11c8c:	e40ff06f          	j	112cc <_vfprintf_r+0xf88>
   11c90:	57fd                	li	a5,-1
   11c92:	e43e                	sd	a5,8(sp)
   11c94:	899fe06f          	j	1052c <_vfprintf_r+0x1e8>
   11c98:	5641                	li	a2,-16
   11c9a:	40b00c3b          	negw	s8,a1
   11c9e:	04c5d063          	bge	a1,a2,11cde <_vfprintf_r+0x199a>
   11ca2:	4c9d                	li	s9,7
   11ca4:	a021                	j	11cac <_vfprintf_r+0x1968>
   11ca6:	3c41                	addiw	s8,s8,-16
   11ca8:	038ddb63          	bge	s11,s8,11cde <_vfprintf_r+0x199a>
   11cac:	2685                	addiw	a3,a3,1
   11cae:	07c1                	addi	a5,a5,16
   11cb0:	01233023          	sd	s2,0(t1)
   11cb4:	01b33423          	sd	s11,8(t1)
   11cb8:	f23e                	sd	a5,288(sp)
   11cba:	10d12c23          	sw	a3,280(sp)
   11cbe:	0341                	addi	t1,t1,16
   11cc0:	fedcd3e3          	bge	s9,a3,11ca6 <_vfprintf_r+0x1962>
   11cc4:	0a10                	addi	a2,sp,272
   11cc6:	85d2                	mv	a1,s4
   11cc8:	8556                	mv	a0,s5
   11cca:	402060ef          	jal	ra,180cc <__sprint_r>
   11cce:	c119                	beqz	a0,11cd4 <_vfprintf_r+0x1990>
   11cd0:	843fe06f          	j	10512 <_vfprintf_r+0x1ce>
   11cd4:	7792                	ld	a5,288(sp)
   11cd6:	11812683          	lw	a3,280(sp)
   11cda:	835a                	mv	t1,s6
   11cdc:	b7e9                	j	11ca6 <_vfprintf_r+0x1962>
   11cde:	2685                	addiw	a3,a3,1
   11ce0:	97e2                	add	a5,a5,s8
   11ce2:	01233023          	sd	s2,0(t1)
   11ce6:	01833423          	sd	s8,8(t1)
   11cea:	f23e                	sd	a5,288(sp)
   11cec:	10d12c23          	sw	a3,280(sp)
   11cf0:	461d                	li	a2,7
   11cf2:	84d65de3          	bge	a2,a3,1154c <_vfprintf_r+0x1208>
   11cf6:	0a10                	addi	a2,sp,272
   11cf8:	85d2                	mv	a1,s4
   11cfa:	8556                	mv	a0,s5
   11cfc:	3d0060ef          	jal	ra,180cc <__sprint_r>
   11d00:	c119                	beqz	a0,11d06 <_vfprintf_r+0x19c2>
   11d02:	811fe06f          	j	10512 <_vfprintf_r+0x1ce>
   11d06:	7792                	ld	a5,288(sp)
   11d08:	11812683          	lw	a3,280(sp)
   11d0c:	835a                	mv	t1,s6
   11d0e:	ed1fe06f          	j	10bde <_vfprintf_r+0x89a>
   11d12:	001e859b          	addiw	a1,t4,1
   11d16:	8556                	mv	a0,s5
   11d18:	f01a                	sd	t1,32(sp)
   11d1a:	ec76                	sd	t4,24(sp)
   11d1c:	000030ef          	jal	ra,14d1c <_malloc_r>
   11d20:	8d2a                	mv	s10,a0
   11d22:	6ee2                	ld	t4,24(sp)
   11d24:	7302                	ld	t1,32(sp)
   11d26:	1e050f63          	beqz	a0,11f24 <_vfprintf_r+0x1be0>
   11d2a:	f02a                	sd	a0,32(sp)
   11d2c:	bec9                	j	118fe <_vfprintf_r+0x15ba>
   11d2e:	03000793          	li	a5,48
   11d32:	0ef10023          	sb	a5,224(sp)
   11d36:	07800713          	li	a4,120
   11d3a:	b66d                	j	118e4 <_vfprintf_r+0x15a0>
   11d3c:	6762                	ld	a4,24(sp)
   11d3e:	86be                	mv	a3,a5
   11d40:	fdba                	sd	a4,248(sp)
   11d42:	7706                	ld	a4,96(sp)
   11d44:	fff7c603          	lbu	a2,-1(a5)
   11d48:	00f74583          	lbu	a1,15(a4)
   11d4c:	00c59e63          	bne	a1,a2,11d68 <_vfprintf_r+0x1a24>
   11d50:	03000513          	li	a0,48
   11d54:	fea68fa3          	sb	a0,-1(a3)
   11d58:	76ee                	ld	a3,248(sp)
   11d5a:	fff68613          	addi	a2,a3,-1
   11d5e:	fdb2                	sd	a2,248(sp)
   11d60:	fff6c603          	lbu	a2,-1(a3)
   11d64:	fec588e3          	beq	a1,a2,11d54 <_vfprintf_r+0x1a10>
   11d68:	0016059b          	addiw	a1,a2,1
   11d6c:	03900513          	li	a0,57
   11d70:	0ff5f593          	andi	a1,a1,255
   11d74:	00a60663          	beq	a2,a0,11d80 <_vfprintf_r+0x1a3c>
   11d78:	feb68fa3          	sb	a1,-1(a3)
   11d7c:	9fdfe06f          	j	10778 <_vfprintf_r+0x434>
   11d80:	7706                	ld	a4,96(sp)
   11d82:	00a74583          	lbu	a1,10(a4)
   11d86:	feb68fa3          	sb	a1,-1(a3)
   11d8a:	9effe06f          	j	10778 <_vfprintf_r+0x434>
   11d8e:	001e899b          	addiw	s3,t4,1
   11d92:	874e                	mv	a4,s3
   11d94:	85fe                	mv	a1,t6
   11d96:	0f810893          	addi	a7,sp,248
   11d9a:	0ec10813          	addi	a6,sp,236
   11d9e:	11bc                	addi	a5,sp,232
   11da0:	4689                	li	a3,2
   11da2:	8662                	mv	a2,s8
   11da4:	8556                	mv	a0,s5
   11da6:	f476                	sd	t4,40(sp)
   11da8:	ec7e                	sd	t6,24(sp)
   11daa:	6bb010ef          	jal	ra,13c64 <_ldtoa_r>
   11dae:	8d2a                	mv	s10,a0
   11db0:	6fe2                	ld	t6,24(sp)
   11db2:	7ea2                	ld	t4,40(sp)
   11db4:	7362                	ld	t1,56(sp)
   11db6:	99ea                	add	s3,s3,s10
   11db8:	bb81                	j	11b08 <_vfprintf_r+0x17c4>
   11dba:	000e8463          	beqz	t4,11dc2 <_vfprintf_r+0x1a7e>
   11dbe:	943fe06f          	j	10700 <_vfprintf_r+0x3bc>
   11dc2:	4e85                	li	t4,1
   11dc4:	93dfe06f          	j	10700 <_vfprintf_r+0x3bc>
   11dc8:	c31c                	sw	a5,0(a4)
   11dca:	8d26                	mv	s10,s1
   11dcc:	d95fe06f          	j	10b60 <_vfprintf_r+0x81c>
   11dd0:	4e99                	li	t4,6
   11dd2:	92ffe06f          	j	10700 <_vfprintf_r+0x3bc>
   11dd6:	06700c93          	li	s9,103
   11dda:	77c6                	ld	a5,112(sp)
   11ddc:	ec82                	sd	zero,88(sp)
   11dde:	f482                	sd	zero,104(sp)
   11de0:	0007c783          	lbu	a5,0(a5)
   11de4:	0ff00593          	li	a1,255
   11de8:	02b78963          	beq	a5,a1,11e1a <_vfprintf_r+0x1ad6>
   11dec:	7706                	ld	a4,96(sp)
   11dee:	0007869b          	sext.w	a3,a5
   11df2:	02e6d463          	bge	a3,a4,11e1a <_vfprintf_r+0x1ad6>
   11df6:	7546                	ld	a0,112(sp)
   11df8:	9f15                	subw	a4,a4,a3
   11dfa:	f0ba                	sd	a4,96(sp)
   11dfc:	00154603          	lbu	a2,1(a0)
   11e00:	ca09                	beqz	a2,11e12 <_vfprintf_r+0x1ace>
   11e02:	77a6                	ld	a5,104(sp)
   11e04:	2785                	addiw	a5,a5,1
   11e06:	f4be                	sd	a5,104(sp)
   11e08:	00150793          	addi	a5,a0,1
   11e0c:	f8be                	sd	a5,112(sp)
   11e0e:	87b2                	mv	a5,a2
   11e10:	bfe1                	j	11de8 <_vfprintf_r+0x1aa4>
   11e12:	6766                	ld	a4,88(sp)
   11e14:	2705                	addiw	a4,a4,1
   11e16:	ecba                	sd	a4,88(sp)
   11e18:	bfc1                	j	11de8 <_vfprintf_r+0x1aa4>
   11e1a:	6766                	ld	a4,88(sp)
   11e1c:	77a6                	ld	a5,104(sp)
   11e1e:	9fb9                	addw	a5,a5,a4
   11e20:	672a                	ld	a4,136(sp)
   11e22:	02e787bb          	mulw	a5,a5,a4
   11e26:	018787bb          	addw	a5,a5,s8
   11e2a:	00078c1b          	sext.w	s8,a5
   11e2e:	fffc4993          	not	s3,s8
   11e32:	43f9d993          	srai	s3,s3,0x3f
   11e36:	0137f7b3          	and	a5,a5,s3
   11e3a:	0007899b          	sext.w	s3,a5
   11e3e:	a47fe06f          	j	10884 <_vfprintf_r+0x540>
   11e42:	77e6                	ld	a5,120(sp)
   11e44:	06600c93          	li	s9,102
   11e48:	00e78c3b          	addw	s8,a5,a4
   11e4c:	01dc0c3b          	addw	s8,s8,t4
   11e50:	bbe1                	j	11c28 <_vfprintf_r+0x18e4>
   11e52:	857e                	mv	a0,t6
   11e54:	85e2                	mv	a1,s8
   11e56:	fc1a                	sd	t1,56(sp)
   11e58:	f476                	sd	t4,40(sp)
   11e5a:	7db090ef          	jal	ra,1be34 <__trunctfdf2>
   11e5e:	11a8                	addi	a0,sp,232
   11e60:	172040ef          	jal	ra,15fd2 <frexp>
   11e64:	70d090ef          	jal	ra,1bd70 <__extenddftf2>
   11e68:	0000a797          	auipc	a5,0xa
   11e6c:	3e878793          	addi	a5,a5,1000 # 1c250 <zeroes.4541+0x30>
   11e70:	6794                	ld	a3,8(a5)
   11e72:	4601                	li	a2,0
   11e74:	7ef080ef          	jal	ra,1ae62 <__multf3>
   11e78:	4601                	li	a2,0
   11e7a:	4681                	li	a3,0
   11e7c:	8c2a                	mv	s8,a0
   11e7e:	ec2e                	sd	a1,24(sp)
   11e80:	5eb080ef          	jal	ra,1ac6a <__eqtf2>
   11e84:	62e2                	ld	t0,24(sp)
   11e86:	7ea2                	ld	t4,40(sp)
   11e88:	7362                	ld	t1,56(sp)
   11e8a:	e119                	bnez	a0,11e90 <_vfprintf_r+0x1b4c>
   11e8c:	4785                	li	a5,1
   11e8e:	d5be                	sw	a5,232(sp)
   11e90:	0000a797          	auipc	a5,0xa
   11e94:	3f078793          	addi	a5,a5,1008 # 1c280 <zeroes.4541+0x60>
   11e98:	f0be                	sd	a5,96(sp)
   11e9a:	bcd9                	j	11970 <_vfprintf_r+0x162c>
   11e9c:	0f210693          	addi	a3,sp,242
   11ea0:	e619                	bnez	a2,11eae <_vfprintf_r+0x1b6a>
   11ea2:	03000693          	li	a3,48
   11ea6:	0ed10923          	sb	a3,242(sp)
   11eaa:	0f310693          	addi	a3,sp,243
   11eae:	0c18                	addi	a4,sp,528
   11eb0:	0307879b          	addiw	a5,a5,48
   11eb4:	40e68633          	sub	a2,a3,a4
   11eb8:	00f68023          	sb	a5,0(a3)
   11ebc:	1216079b          	addiw	a5,a2,289
   11ec0:	e93e                	sd	a5,144(sp)
   11ec2:	989fe06f          	j	1084a <_vfprintf_r+0x506>
   11ec6:	774a                	ld	a4,176(sp)
   11ec8:	00177693          	andi	a3,a4,1
   11ecc:	e299                	bnez	a3,11ed2 <_vfprintf_r+0x1b8e>
   11ece:	997fe06f          	j	10864 <_vfprintf_r+0x520>
   11ed2:	98dfe06f          	j	1085e <_vfprintf_r+0x51a>
   11ed6:	871a                	mv	a4,t1
   11ed8:	d10ff06f          	j	113e8 <_vfprintf_r+0x10a4>
   11edc:	e791                	bnez	a5,11ee8 <_vfprintf_r+0x1ba4>
   11ede:	4985                	li	s3,1
   11ee0:	06600c93          	li	s9,102
   11ee4:	4c05                	li	s8,1
   11ee6:	b959                	j	11b7c <_vfprintf_r+0x1838>
   11ee8:	77e6                	ld	a5,120(sp)
   11eea:	06600c93          	li	s9,102
   11eee:	2785                	addiw	a5,a5,1
   11ef0:	01d78ebb          	addw	t4,a5,t4
   11ef4:	000e8c1b          	sext.w	s8,t4
   11ef8:	fffc4993          	not	s3,s8
   11efc:	43f9d993          	srai	s3,s3,0x3f
   11f00:	013efeb3          	and	t4,t4,s3
   11f04:	000e899b          	sext.w	s3,t4
   11f08:	b995                	j	11b7c <_vfprintf_r+0x1838>
   11f0a:	6742                	ld	a4,16(sp)
   11f0c:	00072e83          	lw	t4,0(a4)
   11f10:	0721                	addi	a4,a4,8
   11f12:	000ed363          	bgez	t4,11f18 <_vfprintf_r+0x1bd4>
   11f16:	5efd                	li	t4,-1
   11f18:	0014cf03          	lbu	t5,1(s1)
   11f1c:	e83a                	sd	a4,16(sp)
   11f1e:	84be                	mv	s1,a5
   11f20:	d64fe06f          	j	10484 <_vfprintf_r+0x140>
   11f24:	010a5783          	lhu	a5,16(s4)
   11f28:	0407e793          	ori	a5,a5,64
   11f2c:	00fa1823          	sh	a5,16(s4)
   11f30:	deefe06f          	j	1051e <_vfprintf_r+0x1da>
   11f34:	89f6                	mv	s3,t4
   11f36:	99ea                	add	s3,s3,s10
   11f38:	bec1                	j	11b08 <_vfprintf_r+0x17c4>
   11f3a:	4789                	li	a5,2
   11f3c:	e93e                	sd	a5,144(sp)
   11f3e:	90dfe06f          	j	1084a <_vfprintf_r+0x506>

0000000000011f42 <vfprintf>:
   11f42:	75818793          	addi	a5,gp,1880 # 1eef8 <_impure_ptr>
   11f46:	86b2                	mv	a3,a2
   11f48:	862e                	mv	a2,a1
   11f4a:	85aa                	mv	a1,a0
   11f4c:	6388                	ld	a0,0(a5)
   11f4e:	bf6fe06f          	j	10344 <_vfprintf_r>

0000000000011f52 <__sbprintf>:
   11f52:	0105d783          	lhu	a5,16(a1)
   11f56:	0ac5ae03          	lw	t3,172(a1)
   11f5a:	0125d303          	lhu	t1,18(a1)
   11f5e:	0305b883          	ld	a7,48(a1)
   11f62:	0405b803          	ld	a6,64(a1)
   11f66:	b3010113          	addi	sp,sp,-1232
   11f6a:	9bf5                	andi	a5,a5,-3
   11f6c:	40000713          	li	a4,1024
   11f70:	4c813023          	sd	s0,1216(sp)
   11f74:	00f11823          	sh	a5,16(sp)
   11f78:	842e                	mv	s0,a1
   11f7a:	191c                	addi	a5,sp,176
   11f7c:	858a                	mv	a1,sp
   11f7e:	4a913c23          	sd	s1,1208(sp)
   11f82:	4b213823          	sd	s2,1200(sp)
   11f86:	4c113423          	sd	ra,1224(sp)
   11f8a:	892a                	mv	s2,a0
   11f8c:	d772                	sw	t3,172(sp)
   11f8e:	00611923          	sh	t1,18(sp)
   11f92:	f846                	sd	a7,48(sp)
   11f94:	e0c2                	sd	a6,64(sp)
   11f96:	e03e                	sd	a5,0(sp)
   11f98:	ec3e                	sd	a5,24(sp)
   11f9a:	c63a                	sw	a4,12(sp)
   11f9c:	d03a                	sw	a4,32(sp)
   11f9e:	d402                	sw	zero,40(sp)
   11fa0:	ba4fe0ef          	jal	ra,10344 <_vfprintf_r>
   11fa4:	84aa                	mv	s1,a0
   11fa6:	02055963          	bgez	a0,11fd8 <__sbprintf+0x86>
   11faa:	01015783          	lhu	a5,16(sp)
   11fae:	0407f793          	andi	a5,a5,64
   11fb2:	c799                	beqz	a5,11fc0 <__sbprintf+0x6e>
   11fb4:	01045783          	lhu	a5,16(s0)
   11fb8:	0407e793          	ori	a5,a5,64
   11fbc:	00f41823          	sh	a5,16(s0)
   11fc0:	4c813083          	ld	ra,1224(sp)
   11fc4:	4c013403          	ld	s0,1216(sp)
   11fc8:	8526                	mv	a0,s1
   11fca:	4b013903          	ld	s2,1200(sp)
   11fce:	4b813483          	ld	s1,1208(sp)
   11fd2:	4d010113          	addi	sp,sp,1232
   11fd6:	8082                	ret
   11fd8:	858a                	mv	a1,sp
   11fda:	854a                	mv	a0,s2
   11fdc:	3ce000ef          	jal	ra,123aa <_fflush_r>
   11fe0:	d569                	beqz	a0,11faa <__sbprintf+0x58>
   11fe2:	54fd                	li	s1,-1
   11fe4:	b7d9                	j	11faa <__sbprintf+0x58>

0000000000011fe6 <__swsetup_r>:
   11fe6:	75818793          	addi	a5,gp,1880 # 1eef8 <_impure_ptr>
   11fea:	639c                	ld	a5,0(a5)
   11fec:	1101                	addi	sp,sp,-32
   11fee:	e822                	sd	s0,16(sp)
   11ff0:	e426                	sd	s1,8(sp)
   11ff2:	ec06                	sd	ra,24(sp)
   11ff4:	84aa                	mv	s1,a0
   11ff6:	842e                	mv	s0,a1
   11ff8:	c399                	beqz	a5,11ffe <__swsetup_r+0x18>
   11ffa:	4bb8                	lw	a4,80(a5)
   11ffc:	cf29                	beqz	a4,12056 <__swsetup_r+0x70>
   11ffe:	01041703          	lh	a4,16(s0)
   12002:	03071793          	slli	a5,a4,0x30
   12006:	93c1                	srli	a5,a5,0x30
   12008:	0087f693          	andi	a3,a5,8
   1200c:	c2a5                	beqz	a3,1206c <__swsetup_r+0x86>
   1200e:	6c14                	ld	a3,24(s0)
   12010:	cabd                	beqz	a3,12086 <__swsetup_r+0xa0>
   12012:	0017f713          	andi	a4,a5,1
   12016:	cf11                	beqz	a4,12032 <__swsetup_r+0x4c>
   12018:	501c                	lw	a5,32(s0)
   1201a:	00042623          	sw	zero,12(s0)
   1201e:	4501                	li	a0,0
   12020:	40f007bb          	negw	a5,a5
   12024:	d41c                	sw	a5,40(s0)
   12026:	ce89                	beqz	a3,12040 <__swsetup_r+0x5a>
   12028:	60e2                	ld	ra,24(sp)
   1202a:	6442                	ld	s0,16(sp)
   1202c:	64a2                	ld	s1,8(sp)
   1202e:	6105                	addi	sp,sp,32
   12030:	8082                	ret
   12032:	8b89                	andi	a5,a5,2
   12034:	4701                	li	a4,0
   12036:	e391                	bnez	a5,1203a <__swsetup_r+0x54>
   12038:	5018                	lw	a4,32(s0)
   1203a:	c458                	sw	a4,12(s0)
   1203c:	4501                	li	a0,0
   1203e:	f6ed                	bnez	a3,12028 <__swsetup_r+0x42>
   12040:	01041783          	lh	a5,16(s0)
   12044:	0807f713          	andi	a4,a5,128
   12048:	d365                	beqz	a4,12028 <__swsetup_r+0x42>
   1204a:	0407e793          	ori	a5,a5,64
   1204e:	00f41823          	sh	a5,16(s0)
   12052:	557d                	li	a0,-1
   12054:	bfd1                	j	12028 <__swsetup_r+0x42>
   12056:	853e                	mv	a0,a5
   12058:	5f2000ef          	jal	ra,1264a <__sinit>
   1205c:	01041703          	lh	a4,16(s0)
   12060:	03071793          	slli	a5,a4,0x30
   12064:	93c1                	srli	a5,a5,0x30
   12066:	0087f693          	andi	a3,a5,8
   1206a:	f2d5                	bnez	a3,1200e <__swsetup_r+0x28>
   1206c:	0107f693          	andi	a3,a5,16
   12070:	cea9                	beqz	a3,120ca <__swsetup_r+0xe4>
   12072:	8b91                	andi	a5,a5,4
   12074:	e79d                	bnez	a5,120a2 <__swsetup_r+0xbc>
   12076:	6c14                	ld	a3,24(s0)
   12078:	00876793          	ori	a5,a4,8
   1207c:	00f41823          	sh	a5,16(s0)
   12080:	17c2                	slli	a5,a5,0x30
   12082:	93c1                	srli	a5,a5,0x30
   12084:	f6d9                	bnez	a3,12012 <__swsetup_r+0x2c>
   12086:	2807f713          	andi	a4,a5,640
   1208a:	20000613          	li	a2,512
   1208e:	f8c702e3          	beq	a4,a2,12012 <__swsetup_r+0x2c>
   12092:	85a2                	mv	a1,s0
   12094:	8526                	mv	a0,s1
   12096:	3cb020ef          	jal	ra,14c60 <__smakebuf_r>
   1209a:	01045783          	lhu	a5,16(s0)
   1209e:	6c14                	ld	a3,24(s0)
   120a0:	bf8d                	j	12012 <__swsetup_r+0x2c>
   120a2:	6c2c                	ld	a1,88(s0)
   120a4:	cd81                	beqz	a1,120bc <__swsetup_r+0xd6>
   120a6:	07440793          	addi	a5,s0,116
   120aa:	00f58763          	beq	a1,a5,120b8 <__swsetup_r+0xd2>
   120ae:	8526                	mv	a0,s1
   120b0:	6a2000ef          	jal	ra,12752 <_free_r>
   120b4:	01041703          	lh	a4,16(s0)
   120b8:	04043c23          	sd	zero,88(s0)
   120bc:	6c14                	ld	a3,24(s0)
   120be:	fdb77713          	andi	a4,a4,-37
   120c2:	00042423          	sw	zero,8(s0)
   120c6:	e014                	sd	a3,0(s0)
   120c8:	bf45                	j	12078 <__swsetup_r+0x92>
   120ca:	47a5                	li	a5,9
   120cc:	c09c                	sw	a5,0(s1)
   120ce:	04076713          	ori	a4,a4,64
   120d2:	00e41823          	sh	a4,16(s0)
   120d6:	557d                	li	a0,-1
   120d8:	bf81                	j	12028 <__swsetup_r+0x42>

00000000000120da <__register_exitproc>:
   120da:	74818793          	addi	a5,gp,1864 # 1eee8 <_global_impure_ptr>
   120de:	6398                	ld	a4,0(a5)
   120e0:	1f873783          	ld	a5,504(a4)
   120e4:	c3b1                	beqz	a5,12128 <__register_exitproc+0x4e>
   120e6:	4798                	lw	a4,8(a5)
   120e8:	487d                	li	a6,31
   120ea:	06e84263          	blt	a6,a4,1214e <__register_exitproc+0x74>
   120ee:	c505                	beqz	a0,12116 <__register_exitproc+0x3c>
   120f0:	00371813          	slli	a6,a4,0x3
   120f4:	983e                	add	a6,a6,a5
   120f6:	10c83823          	sd	a2,272(a6)
   120fa:	3107a883          	lw	a7,784(a5)
   120fe:	4605                	li	a2,1
   12100:	00e6163b          	sllw	a2,a2,a4
   12104:	00c8e8b3          	or	a7,a7,a2
   12108:	3117a823          	sw	a7,784(a5)
   1210c:	20d83823          	sd	a3,528(a6)
   12110:	4689                	li	a3,2
   12112:	02d50063          	beq	a0,a3,12132 <__register_exitproc+0x58>
   12116:	00270693          	addi	a3,a4,2
   1211a:	068e                	slli	a3,a3,0x3
   1211c:	2705                	addiw	a4,a4,1
   1211e:	c798                	sw	a4,8(a5)
   12120:	97b6                	add	a5,a5,a3
   12122:	e38c                	sd	a1,0(a5)
   12124:	4501                	li	a0,0
   12126:	8082                	ret
   12128:	20070793          	addi	a5,a4,512
   1212c:	1ef73c23          	sd	a5,504(a4)
   12130:	bf5d                	j	120e6 <__register_exitproc+0xc>
   12132:	3147a683          	lw	a3,788(a5)
   12136:	4501                	li	a0,0
   12138:	8e55                	or	a2,a2,a3
   1213a:	00270693          	addi	a3,a4,2
   1213e:	068e                	slli	a3,a3,0x3
   12140:	2705                	addiw	a4,a4,1
   12142:	30c7aa23          	sw	a2,788(a5)
   12146:	c798                	sw	a4,8(a5)
   12148:	97b6                	add	a5,a5,a3
   1214a:	e38c                	sd	a1,0(a5)
   1214c:	8082                	ret
   1214e:	557d                	li	a0,-1
   12150:	8082                	ret

0000000000012152 <__call_exitprocs>:
   12152:	715d                	addi	sp,sp,-80
   12154:	74818793          	addi	a5,gp,1864 # 1eee8 <_global_impure_ptr>
   12158:	e062                	sd	s8,0(sp)
   1215a:	0007bc03          	ld	s8,0(a5)
   1215e:	f44e                	sd	s3,40(sp)
   12160:	f052                	sd	s4,32(sp)
   12162:	ec56                	sd	s5,24(sp)
   12164:	e85a                	sd	s6,16(sp)
   12166:	e486                	sd	ra,72(sp)
   12168:	e0a2                	sd	s0,64(sp)
   1216a:	fc26                	sd	s1,56(sp)
   1216c:	f84a                	sd	s2,48(sp)
   1216e:	e45e                	sd	s7,8(sp)
   12170:	8aaa                	mv	s5,a0
   12172:	8b2e                	mv	s6,a1
   12174:	4a05                	li	s4,1
   12176:	59fd                	li	s3,-1
   12178:	1f8c3903          	ld	s2,504(s8)
   1217c:	02090463          	beqz	s2,121a4 <__call_exitprocs+0x52>
   12180:	00892483          	lw	s1,8(s2)
   12184:	fff4841b          	addiw	s0,s1,-1
   12188:	00044e63          	bltz	s0,121a4 <__call_exitprocs+0x52>
   1218c:	048e                	slli	s1,s1,0x3
   1218e:	94ca                	add	s1,s1,s2
   12190:	020b0663          	beqz	s6,121bc <__call_exitprocs+0x6a>
   12194:	2084b783          	ld	a5,520(s1)
   12198:	03678263          	beq	a5,s6,121bc <__call_exitprocs+0x6a>
   1219c:	347d                	addiw	s0,s0,-1
   1219e:	14e1                	addi	s1,s1,-8
   121a0:	ff3418e3          	bne	s0,s3,12190 <__call_exitprocs+0x3e>
   121a4:	60a6                	ld	ra,72(sp)
   121a6:	6406                	ld	s0,64(sp)
   121a8:	74e2                	ld	s1,56(sp)
   121aa:	7942                	ld	s2,48(sp)
   121ac:	79a2                	ld	s3,40(sp)
   121ae:	7a02                	ld	s4,32(sp)
   121b0:	6ae2                	ld	s5,24(sp)
   121b2:	6b42                	ld	s6,16(sp)
   121b4:	6ba2                	ld	s7,8(sp)
   121b6:	6c02                	ld	s8,0(sp)
   121b8:	6161                	addi	sp,sp,80
   121ba:	8082                	ret
   121bc:	00892783          	lw	a5,8(s2)
   121c0:	6498                	ld	a4,8(s1)
   121c2:	37fd                	addiw	a5,a5,-1
   121c4:	04878263          	beq	a5,s0,12208 <__call_exitprocs+0xb6>
   121c8:	0004b423          	sd	zero,8(s1)
   121cc:	db61                	beqz	a4,1219c <__call_exitprocs+0x4a>
   121ce:	31092783          	lw	a5,784(s2)
   121d2:	008a16bb          	sllw	a3,s4,s0
   121d6:	00892b83          	lw	s7,8(s2)
   121da:	8ff5                	and	a5,a5,a3
   121dc:	2781                	sext.w	a5,a5
   121de:	eb99                	bnez	a5,121f4 <__call_exitprocs+0xa2>
   121e0:	9702                	jalr	a4
   121e2:	00892783          	lw	a5,8(s2)
   121e6:	f97799e3          	bne	a5,s7,12178 <__call_exitprocs+0x26>
   121ea:	1f8c3783          	ld	a5,504(s8)
   121ee:	fb2787e3          	beq	a5,s2,1219c <__call_exitprocs+0x4a>
   121f2:	b759                	j	12178 <__call_exitprocs+0x26>
   121f4:	31492783          	lw	a5,788(s2)
   121f8:	1084b583          	ld	a1,264(s1)
   121fc:	8ff5                	and	a5,a5,a3
   121fe:	2781                	sext.w	a5,a5
   12200:	e799                	bnez	a5,1220e <__call_exitprocs+0xbc>
   12202:	8556                	mv	a0,s5
   12204:	9702                	jalr	a4
   12206:	bff1                	j	121e2 <__call_exitprocs+0x90>
   12208:	00892423          	sw	s0,8(s2)
   1220c:	b7c1                	j	121cc <__call_exitprocs+0x7a>
   1220e:	852e                	mv	a0,a1
   12210:	9702                	jalr	a4
   12212:	bfc1                	j	121e2 <__call_exitprocs+0x90>

0000000000012214 <__sflush_r>:
   12214:	01059783          	lh	a5,16(a1)
   12218:	7179                	addi	sp,sp,-48
   1221a:	f022                	sd	s0,32(sp)
   1221c:	03079713          	slli	a4,a5,0x30
   12220:	9341                	srli	a4,a4,0x30
   12222:	e44e                	sd	s3,8(sp)
   12224:	f406                	sd	ra,40(sp)
   12226:	ec26                	sd	s1,24(sp)
   12228:	e84a                	sd	s2,16(sp)
   1222a:	00877693          	andi	a3,a4,8
   1222e:	842e                	mv	s0,a1
   12230:	89aa                	mv	s3,a0
   12232:	eadd                	bnez	a3,122e8 <__sflush_r+0xd4>
   12234:	6705                	lui	a4,0x1
   12236:	80070713          	addi	a4,a4,-2048 # 800 <register_fini-0xf8b0>
   1223a:	4594                	lw	a3,8(a1)
   1223c:	8fd9                	or	a5,a5,a4
   1223e:	00f59823          	sh	a5,16(a1)
   12242:	0ed05e63          	blez	a3,1233e <__sflush_r+0x12a>
   12246:	6438                	ld	a4,72(s0)
   12248:	cb41                	beqz	a4,122d8 <__sflush_r+0xc4>
   1224a:	17c2                	slli	a5,a5,0x30
   1224c:	93c1                	srli	a5,a5,0x30
   1224e:	0009a483          	lw	s1,0(s3)
   12252:	03379693          	slli	a3,a5,0x33
   12256:	0009a023          	sw	zero,0(s3)
   1225a:	780c                	ld	a1,48(s0)
   1225c:	0e06c563          	bltz	a3,12346 <__sflush_r+0x132>
   12260:	4601                	li	a2,0
   12262:	4685                	li	a3,1
   12264:	854e                	mv	a0,s3
   12266:	9702                	jalr	a4
   12268:	57fd                	li	a5,-1
   1226a:	862a                	mv	a2,a0
   1226c:	10f50563          	beq	a0,a5,12376 <__sflush_r+0x162>
   12270:	01045783          	lhu	a5,16(s0)
   12274:	6438                	ld	a4,72(s0)
   12276:	780c                	ld	a1,48(s0)
   12278:	8b91                	andi	a5,a5,4
   1227a:	c799                	beqz	a5,12288 <__sflush_r+0x74>
   1227c:	4414                	lw	a3,8(s0)
   1227e:	6c3c                	ld	a5,88(s0)
   12280:	8e15                	sub	a2,a2,a3
   12282:	c399                	beqz	a5,12288 <__sflush_r+0x74>
   12284:	583c                	lw	a5,112(s0)
   12286:	8e1d                	sub	a2,a2,a5
   12288:	4681                	li	a3,0
   1228a:	854e                	mv	a0,s3
   1228c:	9702                	jalr	a4
   1228e:	57fd                	li	a5,-1
   12290:	0af51d63          	bne	a0,a5,1234a <__sflush_r+0x136>
   12294:	0009a703          	lw	a4,0(s3)
   12298:	01041783          	lh	a5,16(s0)
   1229c:	cb7d                	beqz	a4,12392 <__sflush_r+0x17e>
   1229e:	46f5                	li	a3,29
   122a0:	00d70563          	beq	a4,a3,122aa <__sflush_r+0x96>
   122a4:	46d9                	li	a3,22
   122a6:	0ed71c63          	bne	a4,a3,1239e <__sflush_r+0x18a>
   122aa:	6c14                	ld	a3,24(s0)
   122ac:	777d                	lui	a4,0xfffff
   122ae:	7ff70713          	addi	a4,a4,2047 # fffffffffffff7ff <__BSS_END__+0xfffffffffffe085f>
   122b2:	8ff9                	and	a5,a5,a4
   122b4:	00f41823          	sh	a5,16(s0)
   122b8:	00042423          	sw	zero,8(s0)
   122bc:	e014                	sd	a3,0(s0)
   122be:	6c2c                	ld	a1,88(s0)
   122c0:	0099a023          	sw	s1,0(s3)
   122c4:	c991                	beqz	a1,122d8 <__sflush_r+0xc4>
   122c6:	07440793          	addi	a5,s0,116
   122ca:	00f58563          	beq	a1,a5,122d4 <__sflush_r+0xc0>
   122ce:	854e                	mv	a0,s3
   122d0:	482000ef          	jal	ra,12752 <_free_r>
   122d4:	04043c23          	sd	zero,88(s0)
   122d8:	4501                	li	a0,0
   122da:	70a2                	ld	ra,40(sp)
   122dc:	7402                	ld	s0,32(sp)
   122de:	64e2                	ld	s1,24(sp)
   122e0:	6942                	ld	s2,16(sp)
   122e2:	69a2                	ld	s3,8(sp)
   122e4:	6145                	addi	sp,sp,48
   122e6:	8082                	ret
   122e8:	0185b903          	ld	s2,24(a1)
   122ec:	fe0906e3          	beqz	s2,122d8 <__sflush_r+0xc4>
   122f0:	6184                	ld	s1,0(a1)
   122f2:	8b0d                	andi	a4,a4,3
   122f4:	0125b023          	sd	s2,0(a1)
   122f8:	412484bb          	subw	s1,s1,s2
   122fc:	4781                	li	a5,0
   122fe:	e311                	bnez	a4,12302 <__sflush_r+0xee>
   12300:	519c                	lw	a5,32(a1)
   12302:	c45c                	sw	a5,12(s0)
   12304:	00904663          	bgtz	s1,12310 <__sflush_r+0xfc>
   12308:	bfc1                	j	122d8 <__sflush_r+0xc4>
   1230a:	992a                	add	s2,s2,a0
   1230c:	fc9056e3          	blez	s1,122d8 <__sflush_r+0xc4>
   12310:	603c                	ld	a5,64(s0)
   12312:	780c                	ld	a1,48(s0)
   12314:	86a6                	mv	a3,s1
   12316:	864a                	mv	a2,s2
   12318:	854e                	mv	a0,s3
   1231a:	9782                	jalr	a5
   1231c:	9c89                	subw	s1,s1,a0
   1231e:	fea046e3          	bgtz	a0,1230a <__sflush_r+0xf6>
   12322:	01045783          	lhu	a5,16(s0)
   12326:	70a2                	ld	ra,40(sp)
   12328:	64e2                	ld	s1,24(sp)
   1232a:	0407e793          	ori	a5,a5,64
   1232e:	00f41823          	sh	a5,16(s0)
   12332:	7402                	ld	s0,32(sp)
   12334:	6942                	ld	s2,16(sp)
   12336:	69a2                	ld	s3,8(sp)
   12338:	557d                	li	a0,-1
   1233a:	6145                	addi	sp,sp,48
   1233c:	8082                	ret
   1233e:	59b8                	lw	a4,112(a1)
   12340:	f0e043e3          	bgtz	a4,12246 <__sflush_r+0x32>
   12344:	bf51                	j	122d8 <__sflush_r+0xc4>
   12346:	6850                	ld	a2,144(s0)
   12348:	bf05                	j	12278 <__sflush_r+0x64>
   1234a:	01045783          	lhu	a5,16(s0)
   1234e:	777d                	lui	a4,0xfffff
   12350:	7ff70713          	addi	a4,a4,2047 # fffffffffffff7ff <__BSS_END__+0xfffffffffffe085f>
   12354:	8ff9                	and	a5,a5,a4
   12356:	6c14                	ld	a3,24(s0)
   12358:	0107979b          	slliw	a5,a5,0x10
   1235c:	4107d79b          	sraiw	a5,a5,0x10
   12360:	00f41823          	sh	a5,16(s0)
   12364:	00042423          	sw	zero,8(s0)
   12368:	e014                	sd	a3,0(s0)
   1236a:	03379713          	slli	a4,a5,0x33
   1236e:	f40758e3          	bgez	a4,122be <__sflush_r+0xaa>
   12372:	e848                	sd	a0,144(s0)
   12374:	b7a9                	j	122be <__sflush_r+0xaa>
   12376:	0009a783          	lw	a5,0(s3)
   1237a:	ee078be3          	beqz	a5,12270 <__sflush_r+0x5c>
   1237e:	4775                	li	a4,29
   12380:	00e78563          	beq	a5,a4,1238a <__sflush_r+0x176>
   12384:	4759                	li	a4,22
   12386:	f8e79ee3          	bne	a5,a4,12322 <__sflush_r+0x10e>
   1238a:	0099a023          	sw	s1,0(s3)
   1238e:	4501                	li	a0,0
   12390:	b7a9                	j	122da <__sflush_r+0xc6>
   12392:	777d                	lui	a4,0xfffff
   12394:	7ff70713          	addi	a4,a4,2047 # fffffffffffff7ff <__BSS_END__+0xfffffffffffe085f>
   12398:	6c14                	ld	a3,24(s0)
   1239a:	8ff9                	and	a5,a5,a4
   1239c:	b7d1                	j	12360 <__sflush_r+0x14c>
   1239e:	0407e793          	ori	a5,a5,64
   123a2:	00f41823          	sh	a5,16(s0)
   123a6:	557d                	li	a0,-1
   123a8:	bf0d                	j	122da <__sflush_r+0xc6>

00000000000123aa <_fflush_r>:
   123aa:	1101                	addi	sp,sp,-32
   123ac:	e822                	sd	s0,16(sp)
   123ae:	ec06                	sd	ra,24(sp)
   123b0:	842a                	mv	s0,a0
   123b2:	c119                	beqz	a0,123b8 <_fflush_r+0xe>
   123b4:	493c                	lw	a5,80(a0)
   123b6:	cb89                	beqz	a5,123c8 <_fflush_r+0x1e>
   123b8:	01059783          	lh	a5,16(a1)
   123bc:	ef89                	bnez	a5,123d6 <_fflush_r+0x2c>
   123be:	60e2                	ld	ra,24(sp)
   123c0:	6442                	ld	s0,16(sp)
   123c2:	4501                	li	a0,0
   123c4:	6105                	addi	sp,sp,32
   123c6:	8082                	ret
   123c8:	e42e                	sd	a1,8(sp)
   123ca:	280000ef          	jal	ra,1264a <__sinit>
   123ce:	65a2                	ld	a1,8(sp)
   123d0:	01059783          	lh	a5,16(a1)
   123d4:	d7ed                	beqz	a5,123be <_fflush_r+0x14>
   123d6:	8522                	mv	a0,s0
   123d8:	6442                	ld	s0,16(sp)
   123da:	60e2                	ld	ra,24(sp)
   123dc:	6105                	addi	sp,sp,32
   123de:	bd1d                	j	12214 <__sflush_r>

00000000000123e0 <fflush>:
   123e0:	85aa                	mv	a1,a0
   123e2:	c509                	beqz	a0,123ec <fflush+0xc>
   123e4:	75818793          	addi	a5,gp,1880 # 1eef8 <_impure_ptr>
   123e8:	6388                	ld	a0,0(a5)
   123ea:	b7c1                	j	123aa <_fflush_r>
   123ec:	74818793          	addi	a5,gp,1864 # 1eee8 <_global_impure_ptr>
   123f0:	6388                	ld	a0,0(a5)
   123f2:	00000597          	auipc	a1,0x0
   123f6:	fb858593          	addi	a1,a1,-72 # 123aa <_fflush_r>
   123fa:	a5b1                	j	12a46 <_fwalk_reent>

00000000000123fc <__fp_lock>:
   123fc:	4501                	li	a0,0
   123fe:	8082                	ret

0000000000012400 <_cleanup_r>:
   12400:	00007597          	auipc	a1,0x7
   12404:	b2058593          	addi	a1,a1,-1248 # 18f20 <_fclose_r>
   12408:	ad3d                	j	12a46 <_fwalk_reent>

000000000001240a <__sinit.part.0>:
   1240a:	7139                	addi	sp,sp,-64
   1240c:	fc06                	sd	ra,56(sp)
   1240e:	f822                	sd	s0,48(sp)
   12410:	f426                	sd	s1,40(sp)
   12412:	f04a                	sd	s2,32(sp)
   12414:	ec4e                	sd	s3,24(sp)
   12416:	e852                	sd	s4,16(sp)
   12418:	e456                	sd	s5,8(sp)
   1241a:	e05a                	sd	s6,0(sp)
   1241c:	6500                	ld	s0,8(a0)
   1241e:	00000717          	auipc	a4,0x0
   12422:	fe270713          	addi	a4,a4,-30 # 12400 <_cleanup_r>
   12426:	ed38                	sd	a4,88(a0)
   12428:	53850793          	addi	a5,a0,1336
   1242c:	470d                	li	a4,3
   1242e:	52e52423          	sw	a4,1320(a0)
   12432:	52f53823          	sd	a5,1328(a0)
   12436:	52053023          	sd	zero,1312(a0)
   1243a:	4791                	li	a5,4
   1243c:	892a                	mv	s2,a0
   1243e:	c81c                	sw	a5,16(s0)
   12440:	4621                	li	a2,8
   12442:	4581                	li	a1,0
   12444:	0a042623          	sw	zero,172(s0)
   12448:	00043023          	sd	zero,0(s0)
   1244c:	00043423          	sd	zero,8(s0)
   12450:	00043c23          	sd	zero,24(s0)
   12454:	02042023          	sw	zero,32(s0)
   12458:	02042423          	sw	zero,40(s0)
   1245c:	0a440513          	addi	a0,s0,164
   12460:	de5fd0ef          	jal	ra,10244 <memset>
   12464:	01093483          	ld	s1,16(s2)
   12468:	00004b17          	auipc	s6,0x4
   1246c:	c7ab0b13          	addi	s6,s6,-902 # 160e2 <__sread>
   12470:	00004a97          	auipc	s5,0x4
   12474:	caea8a93          	addi	s5,s5,-850 # 1611e <__swrite>
   12478:	00004a17          	auipc	s4,0x4
   1247c:	cfaa0a13          	addi	s4,s4,-774 # 16172 <__sseek>
   12480:	00004997          	auipc	s3,0x4
   12484:	d3498993          	addi	s3,s3,-716 # 161b4 <__sclose>
   12488:	67c1                	lui	a5,0x10
   1248a:	03643c23          	sd	s6,56(s0)
   1248e:	05543023          	sd	s5,64(s0)
   12492:	05443423          	sd	s4,72(s0)
   12496:	05343823          	sd	s3,80(s0)
   1249a:	f800                	sd	s0,48(s0)
   1249c:	07a5                	addi	a5,a5,9
   1249e:	c89c                	sw	a5,16(s1)
   124a0:	4621                	li	a2,8
   124a2:	4581                	li	a1,0
   124a4:	0a04a623          	sw	zero,172(s1)
   124a8:	0004b023          	sd	zero,0(s1)
   124ac:	0004b423          	sd	zero,8(s1)
   124b0:	0004bc23          	sd	zero,24(s1)
   124b4:	0204a023          	sw	zero,32(s1)
   124b8:	0204a423          	sw	zero,40(s1)
   124bc:	0a448513          	addi	a0,s1,164
   124c0:	d85fd0ef          	jal	ra,10244 <memset>
   124c4:	01893403          	ld	s0,24(s2)
   124c8:	000207b7          	lui	a5,0x20
   124cc:	0364bc23          	sd	s6,56(s1)
   124d0:	0554b023          	sd	s5,64(s1)
   124d4:	0544b423          	sd	s4,72(s1)
   124d8:	0534b823          	sd	s3,80(s1)
   124dc:	f884                	sd	s1,48(s1)
   124de:	07c9                	addi	a5,a5,18
   124e0:	c81c                	sw	a5,16(s0)
   124e2:	0a042623          	sw	zero,172(s0)
   124e6:	00043023          	sd	zero,0(s0)
   124ea:	00043423          	sd	zero,8(s0)
   124ee:	00043c23          	sd	zero,24(s0)
   124f2:	02042023          	sw	zero,32(s0)
   124f6:	02042423          	sw	zero,40(s0)
   124fa:	0a440513          	addi	a0,s0,164
   124fe:	4621                	li	a2,8
   12500:	4581                	li	a1,0
   12502:	d43fd0ef          	jal	ra,10244 <memset>
   12506:	70e2                	ld	ra,56(sp)
   12508:	03643c23          	sd	s6,56(s0)
   1250c:	05543023          	sd	s5,64(s0)
   12510:	05443423          	sd	s4,72(s0)
   12514:	05343823          	sd	s3,80(s0)
   12518:	f800                	sd	s0,48(s0)
   1251a:	7442                	ld	s0,48(sp)
   1251c:	4785                	li	a5,1
   1251e:	04f92823          	sw	a5,80(s2)
   12522:	74a2                	ld	s1,40(sp)
   12524:	7902                	ld	s2,32(sp)
   12526:	69e2                	ld	s3,24(sp)
   12528:	6a42                	ld	s4,16(sp)
   1252a:	6aa2                	ld	s5,8(sp)
   1252c:	6b02                	ld	s6,0(sp)
   1252e:	6121                	addi	sp,sp,64
   12530:	8082                	ret

0000000000012532 <__fp_unlock>:
   12532:	4501                	li	a0,0
   12534:	8082                	ret

0000000000012536 <__sfmoreglue>:
   12536:	1101                	addi	sp,sp,-32
   12538:	e426                	sd	s1,8(sp)
   1253a:	0b000613          	li	a2,176
   1253e:	fff5849b          	addiw	s1,a1,-1
   12542:	02c484b3          	mul	s1,s1,a2
   12546:	e04a                	sd	s2,0(sp)
   12548:	892e                	mv	s2,a1
   1254a:	e822                	sd	s0,16(sp)
   1254c:	ec06                	sd	ra,24(sp)
   1254e:	0c848593          	addi	a1,s1,200
   12552:	7ca020ef          	jal	ra,14d1c <_malloc_r>
   12556:	842a                	mv	s0,a0
   12558:	cd01                	beqz	a0,12570 <__sfmoreglue+0x3a>
   1255a:	0561                	addi	a0,a0,24
   1255c:	00043023          	sd	zero,0(s0)
   12560:	01242423          	sw	s2,8(s0)
   12564:	e808                	sd	a0,16(s0)
   12566:	0b048613          	addi	a2,s1,176
   1256a:	4581                	li	a1,0
   1256c:	cd9fd0ef          	jal	ra,10244 <memset>
   12570:	8522                	mv	a0,s0
   12572:	60e2                	ld	ra,24(sp)
   12574:	6442                	ld	s0,16(sp)
   12576:	64a2                	ld	s1,8(sp)
   12578:	6902                	ld	s2,0(sp)
   1257a:	6105                	addi	sp,sp,32
   1257c:	8082                	ret

000000000001257e <__sfp>:
   1257e:	7179                	addi	sp,sp,-48
   12580:	74818793          	addi	a5,gp,1864 # 1eee8 <_global_impure_ptr>
   12584:	ec26                	sd	s1,24(sp)
   12586:	6384                	ld	s1,0(a5)
   12588:	e44e                	sd	s3,8(sp)
   1258a:	f406                	sd	ra,40(sp)
   1258c:	48bc                	lw	a5,80(s1)
   1258e:	f022                	sd	s0,32(sp)
   12590:	e84a                	sd	s2,16(sp)
   12592:	89aa                	mv	s3,a0
   12594:	c7c1                	beqz	a5,1261c <__sfp+0x9e>
   12596:	52048493          	addi	s1,s1,1312
   1259a:	0b000913          	li	s2,176
   1259e:	449c                	lw	a5,8(s1)
   125a0:	6880                	ld	s0,16(s1)
   125a2:	02f05463          	blez	a5,125ca <__sfp+0x4c>
   125a6:	01041703          	lh	a4,16(s0)
   125aa:	c705                	beqz	a4,125d2 <__sfp+0x54>
   125ac:	37fd                	addiw	a5,a5,-1
   125ae:	1782                	slli	a5,a5,0x20
   125b0:	9381                	srli	a5,a5,0x20
   125b2:	0785                	addi	a5,a5,1
   125b4:	032787b3          	mul	a5,a5,s2
   125b8:	97a2                	add	a5,a5,s0
   125ba:	a021                	j	125c2 <__sfp+0x44>
   125bc:	01041703          	lh	a4,16(s0)
   125c0:	cb09                	beqz	a4,125d2 <__sfp+0x54>
   125c2:	0b040413          	addi	s0,s0,176
   125c6:	fef41be3          	bne	s0,a5,125bc <__sfp+0x3e>
   125ca:	6080                	ld	s0,0(s1)
   125cc:	cc21                	beqz	s0,12624 <__sfp+0xa6>
   125ce:	84a2                	mv	s1,s0
   125d0:	b7f9                	j	1259e <__sfp+0x20>
   125d2:	77c1                	lui	a5,0xffff0
   125d4:	0785                	addi	a5,a5,1
   125d6:	0a042623          	sw	zero,172(s0)
   125da:	00043023          	sd	zero,0(s0)
   125de:	00043423          	sd	zero,8(s0)
   125e2:	c81c                	sw	a5,16(s0)
   125e4:	00043c23          	sd	zero,24(s0)
   125e8:	02042023          	sw	zero,32(s0)
   125ec:	02042423          	sw	zero,40(s0)
   125f0:	4621                	li	a2,8
   125f2:	4581                	li	a1,0
   125f4:	0a440513          	addi	a0,s0,164
   125f8:	c4dfd0ef          	jal	ra,10244 <memset>
   125fc:	04043c23          	sd	zero,88(s0)
   12600:	06042023          	sw	zero,96(s0)
   12604:	06043c23          	sd	zero,120(s0)
   12608:	08042023          	sw	zero,128(s0)
   1260c:	8522                	mv	a0,s0
   1260e:	70a2                	ld	ra,40(sp)
   12610:	7402                	ld	s0,32(sp)
   12612:	64e2                	ld	s1,24(sp)
   12614:	6942                	ld	s2,16(sp)
   12616:	69a2                	ld	s3,8(sp)
   12618:	6145                	addi	sp,sp,48
   1261a:	8082                	ret
   1261c:	8526                	mv	a0,s1
   1261e:	dedff0ef          	jal	ra,1240a <__sinit.part.0>
   12622:	bf95                	j	12596 <__sfp+0x18>
   12624:	4591                	li	a1,4
   12626:	854e                	mv	a0,s3
   12628:	f0fff0ef          	jal	ra,12536 <__sfmoreglue>
   1262c:	e088                	sd	a0,0(s1)
   1262e:	842a                	mv	s0,a0
   12630:	fd59                	bnez	a0,125ce <__sfp+0x50>
   12632:	47b1                	li	a5,12
   12634:	00f9a023          	sw	a5,0(s3)
   12638:	bfd1                	j	1260c <__sfp+0x8e>

000000000001263a <_cleanup>:
   1263a:	74818793          	addi	a5,gp,1864 # 1eee8 <_global_impure_ptr>
   1263e:	6388                	ld	a0,0(a5)
   12640:	00007597          	auipc	a1,0x7
   12644:	8e058593          	addi	a1,a1,-1824 # 18f20 <_fclose_r>
   12648:	aefd                	j	12a46 <_fwalk_reent>

000000000001264a <__sinit>:
   1264a:	493c                	lw	a5,80(a0)
   1264c:	c391                	beqz	a5,12650 <__sinit+0x6>
   1264e:	8082                	ret
   12650:	bb6d                	j	1240a <__sinit.part.0>

0000000000012652 <__sfp_lock_acquire>:
   12652:	8082                	ret

0000000000012654 <__sfp_lock_release>:
   12654:	8082                	ret

0000000000012656 <__sinit_lock_acquire>:
   12656:	8082                	ret

0000000000012658 <__sinit_lock_release>:
   12658:	8082                	ret

000000000001265a <__fp_lock_all>:
   1265a:	75818793          	addi	a5,gp,1880 # 1eef8 <_impure_ptr>
   1265e:	6388                	ld	a0,0(a5)
   12660:	00000597          	auipc	a1,0x0
   12664:	d9c58593          	addi	a1,a1,-612 # 123fc <__fp_lock>
   12668:	ae91                	j	129bc <_fwalk>

000000000001266a <__fp_unlock_all>:
   1266a:	75818793          	addi	a5,gp,1880 # 1eef8 <_impure_ptr>
   1266e:	6388                	ld	a0,0(a5)
   12670:	00000597          	auipc	a1,0x0
   12674:	ec258593          	addi	a1,a1,-318 # 12532 <__fp_unlock>
   12678:	a691                	j	129bc <_fwalk>

000000000001267a <_malloc_trim_r>:
   1267a:	7179                	addi	sp,sp,-48
   1267c:	f022                	sd	s0,32(sp)
   1267e:	ec26                	sd	s1,24(sp)
   12680:	e84a                	sd	s2,16(sp)
   12682:	e44e                	sd	s3,8(sp)
   12684:	842e                	mv	s0,a1
   12686:	f406                	sd	ra,40(sp)
   12688:	0000c997          	auipc	s3,0xc
   1268c:	02098993          	addi	s3,s3,32 # 1e6a8 <__malloc_av_>
   12690:	892a                	mv	s2,a0
   12692:	5e5020ef          	jal	ra,15476 <__malloc_lock>
   12696:	0109b683          	ld	a3,16(s3)
   1269a:	6705                	lui	a4,0x1
   1269c:	fdf70793          	addi	a5,a4,-33 # fdf <register_fini-0xf0d1>
   126a0:	6684                	ld	s1,8(a3)
   126a2:	40878433          	sub	s0,a5,s0
   126a6:	98f1                	andi	s1,s1,-4
   126a8:	9426                	add	s0,s0,s1
   126aa:	8031                	srli	s0,s0,0xc
   126ac:	147d                	addi	s0,s0,-1
   126ae:	0432                	slli	s0,s0,0xc
   126b0:	00e44b63          	blt	s0,a4,126c6 <_malloc_trim_r+0x4c>
   126b4:	4581                	li	a1,0
   126b6:	854a                	mv	a0,s2
   126b8:	0e1030ef          	jal	ra,15f98 <_sbrk_r>
   126bc:	0109b783          	ld	a5,16(s3)
   126c0:	97a6                	add	a5,a5,s1
   126c2:	00f50d63          	beq	a0,a5,126dc <_malloc_trim_r+0x62>
   126c6:	854a                	mv	a0,s2
   126c8:	5b1020ef          	jal	ra,15478 <__malloc_unlock>
   126cc:	70a2                	ld	ra,40(sp)
   126ce:	7402                	ld	s0,32(sp)
   126d0:	64e2                	ld	s1,24(sp)
   126d2:	6942                	ld	s2,16(sp)
   126d4:	69a2                	ld	s3,8(sp)
   126d6:	4501                	li	a0,0
   126d8:	6145                	addi	sp,sp,48
   126da:	8082                	ret
   126dc:	408005b3          	neg	a1,s0
   126e0:	854a                	mv	a0,s2
   126e2:	0b7030ef          	jal	ra,15f98 <_sbrk_r>
   126e6:	57fd                	li	a5,-1
   126e8:	02f50e63          	beq	a0,a5,12724 <_malloc_trim_r+0xaa>
   126ec:	0000d797          	auipc	a5,0xd
   126f0:	88478793          	addi	a5,a5,-1916 # 1ef70 <__malloc_current_mallinfo>
   126f4:	439c                	lw	a5,0(a5)
   126f6:	0109b703          	ld	a4,16(s3)
   126fa:	8c81                	sub	s1,s1,s0
   126fc:	0014e493          	ori	s1,s1,1
   12700:	4087843b          	subw	s0,a5,s0
   12704:	854a                	mv	a0,s2
   12706:	e704                	sd	s1,8(a4)
   12708:	0000d797          	auipc	a5,0xd
   1270c:	8687a423          	sw	s0,-1944(a5) # 1ef70 <__malloc_current_mallinfo>
   12710:	569020ef          	jal	ra,15478 <__malloc_unlock>
   12714:	70a2                	ld	ra,40(sp)
   12716:	7402                	ld	s0,32(sp)
   12718:	64e2                	ld	s1,24(sp)
   1271a:	6942                	ld	s2,16(sp)
   1271c:	69a2                	ld	s3,8(sp)
   1271e:	4505                	li	a0,1
   12720:	6145                	addi	sp,sp,48
   12722:	8082                	ret
   12724:	4581                	li	a1,0
   12726:	854a                	mv	a0,s2
   12728:	071030ef          	jal	ra,15f98 <_sbrk_r>
   1272c:	0109b703          	ld	a4,16(s3)
   12730:	46fd                	li	a3,31
   12732:	40e507b3          	sub	a5,a0,a4
   12736:	f8f6d8e3          	bge	a3,a5,126c6 <_malloc_trim_r+0x4c>
   1273a:	76018693          	addi	a3,gp,1888 # 1ef00 <__malloc_sbrk_base>
   1273e:	6294                	ld	a3,0(a3)
   12740:	0017e793          	ori	a5,a5,1
   12744:	e71c                	sd	a5,8(a4)
   12746:	8d15                	sub	a0,a0,a3
   12748:	0000d797          	auipc	a5,0xd
   1274c:	82a7a423          	sw	a0,-2008(a5) # 1ef70 <__malloc_current_mallinfo>
   12750:	bf9d                	j	126c6 <_malloc_trim_r+0x4c>

0000000000012752 <_free_r>:
   12752:	c9e5                	beqz	a1,12842 <_free_r+0xf0>
   12754:	1101                	addi	sp,sp,-32
   12756:	e822                	sd	s0,16(sp)
   12758:	e426                	sd	s1,8(sp)
   1275a:	842e                	mv	s0,a1
   1275c:	84aa                	mv	s1,a0
   1275e:	ec06                	sd	ra,24(sp)
   12760:	517020ef          	jal	ra,15476 <__malloc_lock>
   12764:	ff843583          	ld	a1,-8(s0)
   12768:	ff040713          	addi	a4,s0,-16
   1276c:	0000c517          	auipc	a0,0xc
   12770:	f3c50513          	addi	a0,a0,-196 # 1e6a8 <__malloc_av_>
   12774:	ffe5f793          	andi	a5,a1,-2
   12778:	00f70633          	add	a2,a4,a5
   1277c:	6614                	ld	a3,8(a2)
   1277e:	01053803          	ld	a6,16(a0)
   12782:	9af1                	andi	a3,a3,-4
   12784:	12c80d63          	beq	a6,a2,128be <_free_r+0x16c>
   12788:	e614                	sd	a3,8(a2)
   1278a:	8985                	andi	a1,a1,1
   1278c:	00d60833          	add	a6,a2,a3
   12790:	e1d1                	bnez	a1,12814 <_free_r+0xc2>
   12792:	ff043303          	ld	t1,-16(s0)
   12796:	00883583          	ld	a1,8(a6)
   1279a:	0000c897          	auipc	a7,0xc
   1279e:	f1e88893          	addi	a7,a7,-226 # 1e6b8 <__malloc_av_+0x10>
   127a2:	40670733          	sub	a4,a4,t1
   127a6:	01073803          	ld	a6,16(a4)
   127aa:	979a                	add	a5,a5,t1
   127ac:	8985                	andi	a1,a1,1
   127ae:	0f180b63          	beq	a6,a7,128a4 <_free_r+0x152>
   127b2:	01873303          	ld	t1,24(a4)
   127b6:	00683c23          	sd	t1,24(a6)
   127ba:	01033823          	sd	a6,16(t1)
   127be:	16058063          	beqz	a1,1291e <_free_r+0x1cc>
   127c2:	0017e693          	ori	a3,a5,1
   127c6:	e714                	sd	a3,8(a4)
   127c8:	e21c                	sd	a5,0(a2)
   127ca:	1ff00693          	li	a3,511
   127ce:	08f6e463          	bltu	a3,a5,12856 <_free_r+0x104>
   127d2:	838d                	srli	a5,a5,0x3
   127d4:	2781                	sext.w	a5,a5
   127d6:	0017869b          	addiw	a3,a5,1
   127da:	0016969b          	slliw	a3,a3,0x1
   127de:	068e                	slli	a3,a3,0x3
   127e0:	650c                	ld	a1,8(a0)
   127e2:	9536                	add	a0,a0,a3
   127e4:	6110                	ld	a2,0(a0)
   127e6:	4685                	li	a3,1
   127e8:	4027d79b          	sraiw	a5,a5,0x2
   127ec:	00f697b3          	sll	a5,a3,a5
   127f0:	8fcd                	or	a5,a5,a1
   127f2:	ff050693          	addi	a3,a0,-16
   127f6:	ef14                	sd	a3,24(a4)
   127f8:	eb10                	sd	a2,16(a4)
   127fa:	0000c697          	auipc	a3,0xc
   127fe:	eaf6bb23          	sd	a5,-330(a3) # 1e6b0 <__malloc_av_+0x8>
   12802:	e118                	sd	a4,0(a0)
   12804:	ee18                	sd	a4,24(a2)
   12806:	6442                	ld	s0,16(sp)
   12808:	60e2                	ld	ra,24(sp)
   1280a:	8526                	mv	a0,s1
   1280c:	64a2                	ld	s1,8(sp)
   1280e:	6105                	addi	sp,sp,32
   12810:	4690206f          	j	15478 <__malloc_unlock>
   12814:	00883583          	ld	a1,8(a6)
   12818:	8985                	andi	a1,a1,1
   1281a:	e58d                	bnez	a1,12844 <_free_r+0xf2>
   1281c:	97b6                	add	a5,a5,a3
   1281e:	0000c897          	auipc	a7,0xc
   12822:	e9a88893          	addi	a7,a7,-358 # 1e6b8 <__malloc_av_+0x10>
   12826:	6a14                	ld	a3,16(a2)
   12828:	0017e813          	ori	a6,a5,1
   1282c:	00f705b3          	add	a1,a4,a5
   12830:	11168263          	beq	a3,a7,12934 <_free_r+0x1e2>
   12834:	6e10                	ld	a2,24(a2)
   12836:	ee90                	sd	a2,24(a3)
   12838:	ea14                	sd	a3,16(a2)
   1283a:	01073423          	sd	a6,8(a4)
   1283e:	e19c                	sd	a5,0(a1)
   12840:	b769                	j	127ca <_free_r+0x78>
   12842:	8082                	ret
   12844:	0017e693          	ori	a3,a5,1
   12848:	fed43c23          	sd	a3,-8(s0)
   1284c:	e21c                	sd	a5,0(a2)
   1284e:	1ff00693          	li	a3,511
   12852:	f8f6f0e3          	bgeu	a3,a5,127d2 <_free_r+0x80>
   12856:	0097d693          	srli	a3,a5,0x9
   1285a:	4611                	li	a2,4
   1285c:	08d66f63          	bltu	a2,a3,128fa <_free_r+0x1a8>
   12860:	0067d693          	srli	a3,a5,0x6
   12864:	2681                	sext.w	a3,a3
   12866:	0396859b          	addiw	a1,a3,57
   1286a:	0015959b          	slliw	a1,a1,0x1
   1286e:	0386861b          	addiw	a2,a3,56
   12872:	058e                	slli	a1,a1,0x3
   12874:	95aa                	add	a1,a1,a0
   12876:	6194                	ld	a3,0(a1)
   12878:	15c1                	addi	a1,a1,-16
   1287a:	0cd58d63          	beq	a1,a3,12954 <_free_r+0x202>
   1287e:	6690                	ld	a2,8(a3)
   12880:	9a71                	andi	a2,a2,-4
   12882:	00c7f563          	bgeu	a5,a2,1288c <_free_r+0x13a>
   12886:	6a94                	ld	a3,16(a3)
   12888:	fed59be3          	bne	a1,a3,1287e <_free_r+0x12c>
   1288c:	6e8c                	ld	a1,24(a3)
   1288e:	ef0c                	sd	a1,24(a4)
   12890:	eb14                	sd	a3,16(a4)
   12892:	6442                	ld	s0,16(sp)
   12894:	e998                	sd	a4,16(a1)
   12896:	60e2                	ld	ra,24(sp)
   12898:	8526                	mv	a0,s1
   1289a:	64a2                	ld	s1,8(sp)
   1289c:	ee98                	sd	a4,24(a3)
   1289e:	6105                	addi	sp,sp,32
   128a0:	3d90206f          	j	15478 <__malloc_unlock>
   128a4:	10059763          	bnez	a1,129b2 <_free_r+0x260>
   128a8:	6a0c                	ld	a1,16(a2)
   128aa:	6e10                	ld	a2,24(a2)
   128ac:	97b6                	add	a5,a5,a3
   128ae:	0017e693          	ori	a3,a5,1
   128b2:	ed90                	sd	a2,24(a1)
   128b4:	ea0c                	sd	a1,16(a2)
   128b6:	e714                	sd	a3,8(a4)
   128b8:	973e                	add	a4,a4,a5
   128ba:	e31c                	sd	a5,0(a4)
   128bc:	b7a9                	j	12806 <_free_r+0xb4>
   128be:	8985                	andi	a1,a1,1
   128c0:	97b6                	add	a5,a5,a3
   128c2:	e989                	bnez	a1,128d4 <_free_r+0x182>
   128c4:	ff043583          	ld	a1,-16(s0)
   128c8:	8f0d                	sub	a4,a4,a1
   128ca:	6f14                	ld	a3,24(a4)
   128cc:	6b10                	ld	a2,16(a4)
   128ce:	97ae                	add	a5,a5,a1
   128d0:	ee14                	sd	a3,24(a2)
   128d2:	ea90                	sd	a2,16(a3)
   128d4:	76818693          	addi	a3,gp,1896 # 1ef08 <__malloc_trim_threshold>
   128d8:	0017e613          	ori	a2,a5,1
   128dc:	6294                	ld	a3,0(a3)
   128de:	e710                	sd	a2,8(a4)
   128e0:	0000c617          	auipc	a2,0xc
   128e4:	dce63c23          	sd	a4,-552(a2) # 1e6b8 <__malloc_av_+0x10>
   128e8:	f0d7efe3          	bltu	a5,a3,12806 <_free_r+0xb4>
   128ec:	78818793          	addi	a5,gp,1928 # 1ef28 <__malloc_top_pad>
   128f0:	638c                	ld	a1,0(a5)
   128f2:	8526                	mv	a0,s1
   128f4:	d87ff0ef          	jal	ra,1267a <_malloc_trim_r>
   128f8:	b739                	j	12806 <_free_r+0xb4>
   128fa:	4651                	li	a2,20
   128fc:	02d67363          	bgeu	a2,a3,12922 <_free_r+0x1d0>
   12900:	05400613          	li	a2,84
   12904:	06d66463          	bltu	a2,a3,1296c <_free_r+0x21a>
   12908:	00c7d693          	srli	a3,a5,0xc
   1290c:	2681                	sext.w	a3,a3
   1290e:	06f6859b          	addiw	a1,a3,111
   12912:	0015959b          	slliw	a1,a1,0x1
   12916:	06e6861b          	addiw	a2,a3,110
   1291a:	058e                	slli	a1,a1,0x3
   1291c:	bfa1                	j	12874 <_free_r+0x122>
   1291e:	97b6                	add	a5,a5,a3
   12920:	b719                	j	12826 <_free_r+0xd4>
   12922:	2681                	sext.w	a3,a3
   12924:	05c6859b          	addiw	a1,a3,92
   12928:	0015959b          	slliw	a1,a1,0x1
   1292c:	05b6861b          	addiw	a2,a3,91
   12930:	058e                	slli	a1,a1,0x3
   12932:	b789                	j	12874 <_free_r+0x122>
   12934:	0000c697          	auipc	a3,0xc
   12938:	d8e6be23          	sd	a4,-612(a3) # 1e6d0 <__malloc_av_+0x28>
   1293c:	0000c697          	auipc	a3,0xc
   12940:	d8e6b623          	sd	a4,-628(a3) # 1e6c8 <__malloc_av_+0x20>
   12944:	01173c23          	sd	a7,24(a4)
   12948:	01173823          	sd	a7,16(a4)
   1294c:	01073423          	sd	a6,8(a4)
   12950:	e19c                	sd	a5,0(a1)
   12952:	bd55                	j	12806 <_free_r+0xb4>
   12954:	6508                	ld	a0,8(a0)
   12956:	4785                	li	a5,1
   12958:	4026561b          	sraiw	a2,a2,0x2
   1295c:	00c79633          	sll	a2,a5,a2
   12960:	8e49                	or	a2,a2,a0
   12962:	0000c797          	auipc	a5,0xc
   12966:	d4c7b723          	sd	a2,-690(a5) # 1e6b0 <__malloc_av_+0x8>
   1296a:	b715                	j	1288e <_free_r+0x13c>
   1296c:	15400613          	li	a2,340
   12970:	00d66d63          	bltu	a2,a3,1298a <_free_r+0x238>
   12974:	00f7d693          	srli	a3,a5,0xf
   12978:	2681                	sext.w	a3,a3
   1297a:	0786859b          	addiw	a1,a3,120
   1297e:	0015959b          	slliw	a1,a1,0x1
   12982:	0776861b          	addiw	a2,a3,119
   12986:	058e                	slli	a1,a1,0x3
   12988:	b5f5                	j	12874 <_free_r+0x122>
   1298a:	55400613          	li	a2,1364
   1298e:	00d66d63          	bltu	a2,a3,129a8 <_free_r+0x256>
   12992:	0127d693          	srli	a3,a5,0x12
   12996:	2681                	sext.w	a3,a3
   12998:	07d6859b          	addiw	a1,a3,125
   1299c:	0015959b          	slliw	a1,a1,0x1
   129a0:	07c6861b          	addiw	a2,a3,124
   129a4:	058e                	slli	a1,a1,0x3
   129a6:	b5f9                	j	12874 <_free_r+0x122>
   129a8:	7f000593          	li	a1,2032
   129ac:	07e00613          	li	a2,126
   129b0:	b5d1                	j	12874 <_free_r+0x122>
   129b2:	0017e693          	ori	a3,a5,1
   129b6:	e714                	sd	a3,8(a4)
   129b8:	e21c                	sd	a5,0(a2)
   129ba:	b5b1                	j	12806 <_free_r+0xb4>

00000000000129bc <_fwalk>:
   129bc:	715d                	addi	sp,sp,-80
   129be:	f84a                	sd	s2,48(sp)
   129c0:	e486                	sd	ra,72(sp)
   129c2:	e0a2                	sd	s0,64(sp)
   129c4:	fc26                	sd	s1,56(sp)
   129c6:	f44e                	sd	s3,40(sp)
   129c8:	f052                	sd	s4,32(sp)
   129ca:	ec56                	sd	s5,24(sp)
   129cc:	e85a                	sd	s6,16(sp)
   129ce:	e45e                	sd	s7,8(sp)
   129d0:	52050913          	addi	s2,a0,1312
   129d4:	06090763          	beqz	s2,12a42 <_fwalk+0x86>
   129d8:	8a2e                	mv	s4,a1
   129da:	4b01                	li	s6,0
   129dc:	0b000a93          	li	s5,176
   129e0:	4b85                	li	s7,1
   129e2:	59fd                	li	s3,-1
   129e4:	00892783          	lw	a5,8(s2)
   129e8:	01093403          	ld	s0,16(s2)
   129ec:	02f05b63          	blez	a5,12a22 <_fwalk+0x66>
   129f0:	fff7849b          	addiw	s1,a5,-1
   129f4:	1482                	slli	s1,s1,0x20
   129f6:	9081                	srli	s1,s1,0x20
   129f8:	0485                	addi	s1,s1,1
   129fa:	035484b3          	mul	s1,s1,s5
   129fe:	94a2                	add	s1,s1,s0
   12a00:	01045783          	lhu	a5,16(s0)
   12a04:	00fbfb63          	bgeu	s7,a5,12a1a <_fwalk+0x5e>
   12a08:	01241783          	lh	a5,18(s0)
   12a0c:	8522                	mv	a0,s0
   12a0e:	01378663          	beq	a5,s3,12a1a <_fwalk+0x5e>
   12a12:	9a02                	jalr	s4
   12a14:	01656b33          	or	s6,a0,s6
   12a18:	2b01                	sext.w	s6,s6
   12a1a:	0b040413          	addi	s0,s0,176
   12a1e:	fe9411e3          	bne	s0,s1,12a00 <_fwalk+0x44>
   12a22:	00093903          	ld	s2,0(s2)
   12a26:	fa091fe3          	bnez	s2,129e4 <_fwalk+0x28>
   12a2a:	60a6                	ld	ra,72(sp)
   12a2c:	6406                	ld	s0,64(sp)
   12a2e:	855a                	mv	a0,s6
   12a30:	74e2                	ld	s1,56(sp)
   12a32:	7942                	ld	s2,48(sp)
   12a34:	79a2                	ld	s3,40(sp)
   12a36:	7a02                	ld	s4,32(sp)
   12a38:	6ae2                	ld	s5,24(sp)
   12a3a:	6b42                	ld	s6,16(sp)
   12a3c:	6ba2                	ld	s7,8(sp)
   12a3e:	6161                	addi	sp,sp,80
   12a40:	8082                	ret
   12a42:	4b01                	li	s6,0
   12a44:	b7dd                	j	12a2a <_fwalk+0x6e>

0000000000012a46 <_fwalk_reent>:
   12a46:	715d                	addi	sp,sp,-80
   12a48:	f84a                	sd	s2,48(sp)
   12a4a:	e486                	sd	ra,72(sp)
   12a4c:	e0a2                	sd	s0,64(sp)
   12a4e:	fc26                	sd	s1,56(sp)
   12a50:	f44e                	sd	s3,40(sp)
   12a52:	f052                	sd	s4,32(sp)
   12a54:	ec56                	sd	s5,24(sp)
   12a56:	e85a                	sd	s6,16(sp)
   12a58:	e45e                	sd	s7,8(sp)
   12a5a:	e062                	sd	s8,0(sp)
   12a5c:	52050913          	addi	s2,a0,1312
   12a60:	06090a63          	beqz	s2,12ad4 <_fwalk_reent+0x8e>
   12a64:	8aae                	mv	s5,a1
   12a66:	89aa                	mv	s3,a0
   12a68:	4b81                	li	s7,0
   12a6a:	0b000b13          	li	s6,176
   12a6e:	4c05                	li	s8,1
   12a70:	5a7d                	li	s4,-1
   12a72:	00892783          	lw	a5,8(s2)
   12a76:	01093403          	ld	s0,16(s2)
   12a7a:	02f05c63          	blez	a5,12ab2 <_fwalk_reent+0x6c>
   12a7e:	fff7849b          	addiw	s1,a5,-1
   12a82:	1482                	slli	s1,s1,0x20
   12a84:	9081                	srli	s1,s1,0x20
   12a86:	0485                	addi	s1,s1,1
   12a88:	036484b3          	mul	s1,s1,s6
   12a8c:	94a2                	add	s1,s1,s0
   12a8e:	01045783          	lhu	a5,16(s0)
   12a92:	00fc7c63          	bgeu	s8,a5,12aaa <_fwalk_reent+0x64>
   12a96:	01241783          	lh	a5,18(s0)
   12a9a:	85a2                	mv	a1,s0
   12a9c:	854e                	mv	a0,s3
   12a9e:	01478663          	beq	a5,s4,12aaa <_fwalk_reent+0x64>
   12aa2:	9a82                	jalr	s5
   12aa4:	01756bb3          	or	s7,a0,s7
   12aa8:	2b81                	sext.w	s7,s7
   12aaa:	0b040413          	addi	s0,s0,176
   12aae:	fe9410e3          	bne	s0,s1,12a8e <_fwalk_reent+0x48>
   12ab2:	00093903          	ld	s2,0(s2)
   12ab6:	fa091ee3          	bnez	s2,12a72 <_fwalk_reent+0x2c>
   12aba:	60a6                	ld	ra,72(sp)
   12abc:	6406                	ld	s0,64(sp)
   12abe:	855e                	mv	a0,s7
   12ac0:	74e2                	ld	s1,56(sp)
   12ac2:	7942                	ld	s2,48(sp)
   12ac4:	79a2                	ld	s3,40(sp)
   12ac6:	7a02                	ld	s4,32(sp)
   12ac8:	6ae2                	ld	s5,24(sp)
   12aca:	6b42                	ld	s6,16(sp)
   12acc:	6ba2                	ld	s7,8(sp)
   12ace:	6c02                	ld	s8,0(sp)
   12ad0:	6161                	addi	sp,sp,80
   12ad2:	8082                	ret
   12ad4:	4b81                	li	s7,0
   12ad6:	b7d5                	j	12aba <_fwalk_reent+0x74>

0000000000012ad8 <eshdn1>:
   12ad8:	00450693          	addi	a3,a0,4
   12adc:	4781                	li	a5,0
   12ade:	0569                	addi	a0,a0,26
   12ae0:	7861                	lui	a6,0xffff8
   12ae2:	a811                	j	12af6 <eshdn1+0x1e>
   12ae4:	0017979b          	slliw	a5,a5,0x1
   12ae8:	00e69023          	sh	a4,0(a3)
   12aec:	17c2                	slli	a5,a5,0x30
   12aee:	0689                	addi	a3,a3,2
   12af0:	93c1                	srli	a5,a5,0x30
   12af2:	02d50863          	beq	a0,a3,12b22 <eshdn1+0x4a>
   12af6:	0006d703          	lhu	a4,0(a3)
   12afa:	00177613          	andi	a2,a4,1
   12afe:	c219                	beqz	a2,12b04 <eshdn1+0x2c>
   12b00:	0017e793          	ori	a5,a5,1
   12b04:	8305                	srli	a4,a4,0x1
   12b06:	0027f613          	andi	a2,a5,2
   12b0a:	010765b3          	or	a1,a4,a6
   12b0e:	da79                	beqz	a2,12ae4 <eshdn1+0xc>
   12b10:	0017979b          	slliw	a5,a5,0x1
   12b14:	00b69023          	sh	a1,0(a3)
   12b18:	17c2                	slli	a5,a5,0x30
   12b1a:	0689                	addi	a3,a3,2
   12b1c:	93c1                	srli	a5,a5,0x30
   12b1e:	fcd51ce3          	bne	a0,a3,12af6 <eshdn1+0x1e>
   12b22:	8082                	ret

0000000000012b24 <eshup1>:
   12b24:	01850693          	addi	a3,a0,24
   12b28:	4701                	li	a4,0
   12b2a:	0509                	addi	a0,a0,2
   12b2c:	a811                	j	12b40 <eshup1+0x1c>
   12b2e:	0017171b          	slliw	a4,a4,0x1
   12b32:	00f69023          	sh	a5,0(a3)
   12b36:	1742                	slli	a4,a4,0x30
   12b38:	16f9                	addi	a3,a3,-2
   12b3a:	9341                	srli	a4,a4,0x30
   12b3c:	04d50063          	beq	a0,a3,12b7c <eshup1+0x58>
   12b40:	0006d783          	lhu	a5,0(a3)
   12b44:	0107961b          	slliw	a2,a5,0x10
   12b48:	4106561b          	sraiw	a2,a2,0x10
   12b4c:	02061593          	slli	a1,a2,0x20
   12b50:	0017979b          	slliw	a5,a5,0x1
   12b54:	0005d463          	bgez	a1,12b5c <eshup1+0x38>
   12b58:	00176713          	ori	a4,a4,1
   12b5c:	17c2                	slli	a5,a5,0x30
   12b5e:	93c1                	srli	a5,a5,0x30
   12b60:	00277613          	andi	a2,a4,2
   12b64:	0017e593          	ori	a1,a5,1
   12b68:	d279                	beqz	a2,12b2e <eshup1+0xa>
   12b6a:	0017171b          	slliw	a4,a4,0x1
   12b6e:	00b69023          	sh	a1,0(a3)
   12b72:	1742                	slli	a4,a4,0x30
   12b74:	16f9                	addi	a3,a3,-2
   12b76:	9341                	srli	a4,a4,0x30
   12b78:	fcd514e3          	bne	a0,a3,12b40 <eshup1+0x1c>
   12b7c:	8082                	ret

0000000000012b7e <m16m>:
   12b7e:	1101                	addi	sp,sp,-32
   12b80:	6e41                	lui	t3,0x10
   12b82:	00011b23          	sh	zero,22(sp)
   12b86:	00011c23          	sh	zero,24(sp)
   12b8a:	05e1                	addi	a1,a1,24
   12b8c:	083c                	addi	a5,sp,24
   12b8e:	00410813          	addi	a6,sp,4
   12b92:	1e7d                	addi	t3,t3,-1
   12b94:	0005d703          	lhu	a4,0(a1)
   12b98:	17f9                	addi	a5,a5,-2
   12b9a:	15f9                	addi	a1,a1,-2
   12b9c:	e315                	bnez	a4,12bc0 <m16m+0x42>
   12b9e:	fe079f23          	sh	zero,-2(a5)
   12ba2:	ff0799e3          	bne	a5,a6,12b94 <m16m+0x16>
   12ba6:	0611                	addi	a2,a2,4
   12ba8:	01a10693          	addi	a3,sp,26
   12bac:	0007d703          	lhu	a4,0(a5)
   12bb0:	0609                	addi	a2,a2,2
   12bb2:	0789                	addi	a5,a5,2
   12bb4:	fee61f23          	sh	a4,-2(a2)
   12bb8:	fed79ae3          	bne	a5,a3,12bac <m16m+0x2e>
   12bbc:	6105                	addi	sp,sp,32
   12bbe:	8082                	ret
   12bc0:	02a70733          	mul	a4,a4,a0
   12bc4:	0027d883          	lhu	a7,2(a5)
   12bc8:	0007d303          	lhu	t1,0(a5)
   12bcc:	01c776b3          	and	a3,a4,t3
   12bd0:	96c6                	add	a3,a3,a7
   12bd2:	8341                	srli	a4,a4,0x10
   12bd4:	0106d893          	srli	a7,a3,0x10
   12bd8:	971a                	add	a4,a4,t1
   12bda:	9746                	add	a4,a4,a7
   12bdc:	01075893          	srli	a7,a4,0x10
   12be0:	00d79123          	sh	a3,2(a5)
   12be4:	00e79023          	sh	a4,0(a5)
   12be8:	ff179f23          	sh	a7,-2(a5)
   12bec:	fb0794e3          	bne	a5,a6,12b94 <m16m+0x16>
   12bf0:	bf5d                	j	12ba6 <m16m+0x28>

0000000000012bf2 <eisnan.part.0>:
   12bf2:	01250713          	addi	a4,a0,18
   12bf6:	0509                	addi	a0,a0,2
   12bf8:	ffe55783          	lhu	a5,-2(a0)
   12bfc:	e789                	bnez	a5,12c06 <eisnan.part.0+0x14>
   12bfe:	fea71ce3          	bne	a4,a0,12bf6 <eisnan.part.0+0x4>
   12c02:	4501                	li	a0,0
   12c04:	8082                	ret
   12c06:	4505                	li	a0,1
   12c08:	8082                	ret

0000000000012c0a <eneg>:
   12c0a:	1101                	addi	sp,sp,-32
   12c0c:	e822                	sd	s0,16(sp)
   12c0e:	01255403          	lhu	s0,18(a0)
   12c12:	e426                	sd	s1,8(sp)
   12c14:	ec06                	sd	ra,24(sp)
   12c16:	fff44793          	not	a5,s0
   12c1a:	03179713          	slli	a4,a5,0x31
   12c1e:	84aa                	mv	s1,a0
   12c20:	e701                	bnez	a4,12c28 <eneg+0x1e>
   12c22:	fd1ff0ef          	jal	ra,12bf2 <eisnan.part.0>
   12c26:	e509                	bnez	a0,12c30 <eneg+0x26>
   12c28:	77e1                	lui	a5,0xffff8
   12c2a:	8c3d                	xor	s0,s0,a5
   12c2c:	00849923          	sh	s0,18(s1)
   12c30:	60e2                	ld	ra,24(sp)
   12c32:	6442                	ld	s0,16(sp)
   12c34:	64a2                	ld	s1,8(sp)
   12c36:	6105                	addi	sp,sp,32
   12c38:	8082                	ret

0000000000012c3a <eisneg>:
   12c3a:	1141                	addi	sp,sp,-16
   12c3c:	e022                	sd	s0,0(sp)
   12c3e:	01255403          	lhu	s0,18(a0)
   12c42:	e406                	sd	ra,8(sp)
   12c44:	fff44793          	not	a5,s0
   12c48:	03179713          	slli	a4,a5,0x31
   12c4c:	e709                	bnez	a4,12c56 <eisneg+0x1c>
   12c4e:	fa5ff0ef          	jal	ra,12bf2 <eisnan.part.0>
   12c52:	4781                	li	a5,0
   12c54:	e119                	bnez	a0,12c5a <eisneg+0x20>
   12c56:	00f45793          	srli	a5,s0,0xf
   12c5a:	60a2                	ld	ra,8(sp)
   12c5c:	6402                	ld	s0,0(sp)
   12c5e:	853e                	mv	a0,a5
   12c60:	0141                	addi	sp,sp,16
   12c62:	8082                	ret

0000000000012c64 <emovi>:
   12c64:	01255783          	lhu	a5,18(a0)
   12c68:	1101                	addi	sp,sp,-32
   12c6a:	e822                	sd	s0,16(sp)
   12c6c:	00f7d79b          	srliw	a5,a5,0xf
   12c70:	e426                	sd	s1,8(sp)
   12c72:	ec06                	sd	ra,24(sp)
   12c74:	e04a                	sd	s2,0(sp)
   12c76:	40f007bb          	negw	a5,a5
   12c7a:	00f59023          	sh	a5,0(a1)
   12c7e:	01255783          	lhu	a5,18(a0)
   12c82:	66a1                	lui	a3,0x8
   12c84:	16fd                	addi	a3,a3,-1
   12c86:	8ff5                	and	a5,a5,a3
   12c88:	00f59123          	sh	a5,2(a1)
   12c8c:	2781                	sext.w	a5,a5
   12c8e:	84aa                	mv	s1,a0
   12c90:	01050413          	addi	s0,a0,16
   12c94:	02d78763          	beq	a5,a3,12cc2 <emovi+0x5e>
   12c98:	00658793          	addi	a5,a1,6
   12c9c:	00059223          	sh	zero,4(a1)
   12ca0:	1579                	addi	a0,a0,-2
   12ca2:	1479                	addi	s0,s0,-2
   12ca4:	00245703          	lhu	a4,2(s0)
   12ca8:	0789                	addi	a5,a5,2
   12caa:	fee79f23          	sh	a4,-2(a5) # ffffffffffff7ffe <__BSS_END__+0xfffffffffffd905e>
   12cae:	fea41ae3          	bne	s0,a0,12ca2 <emovi+0x3e>
   12cb2:	00059c23          	sh	zero,24(a1)
   12cb6:	60e2                	ld	ra,24(sp)
   12cb8:	6442                	ld	s0,16(sp)
   12cba:	64a2                	ld	s1,8(sp)
   12cbc:	6902                	ld	s2,0(sp)
   12cbe:	6105                	addi	sp,sp,32
   12cc0:	8082                	ret
   12cc2:	01255703          	lhu	a4,18(a0)
   12cc6:	892e                	mv	s2,a1
   12cc8:	8f7d                	and	a4,a4,a5
   12cca:	02f71463          	bne	a4,a5,12cf2 <emovi+0x8e>
   12cce:	f25ff0ef          	jal	ra,12bf2 <eisnan.part.0>
   12cd2:	c105                	beqz	a0,12cf2 <emovi+0x8e>
   12cd4:	00690713          	addi	a4,s2,6
   12cd8:	00091223          	sh	zero,4(s2)
   12cdc:	ffc48793          	addi	a5,s1,-4
   12ce0:	1479                	addi	s0,s0,-2
   12ce2:	00245683          	lhu	a3,2(s0)
   12ce6:	0709                	addi	a4,a4,2
   12ce8:	fed71f23          	sh	a3,-2(a4)
   12cec:	fe879ae3          	bne	a5,s0,12ce0 <emovi+0x7c>
   12cf0:	b7d9                	j	12cb6 <emovi+0x52>
   12cf2:	00490793          	addi	a5,s2,4
   12cf6:	01a90593          	addi	a1,s2,26
   12cfa:	0789                	addi	a5,a5,2
   12cfc:	fe079f23          	sh	zero,-2(a5)
   12d00:	fef59de3          	bne	a1,a5,12cfa <emovi+0x96>
   12d04:	60e2                	ld	ra,24(sp)
   12d06:	6442                	ld	s0,16(sp)
   12d08:	64a2                	ld	s1,8(sp)
   12d0a:	6902                	ld	s2,0(sp)
   12d0c:	6105                	addi	sp,sp,32
   12d0e:	8082                	ret

0000000000012d10 <ecmp>:
   12d10:	01255783          	lhu	a5,18(a0)
   12d14:	711d                	addi	sp,sp,-96
   12d16:	e8a2                	sd	s0,80(sp)
   12d18:	fff7c793          	not	a5,a5
   12d1c:	e4a6                	sd	s1,72(sp)
   12d1e:	ec86                	sd	ra,88(sp)
   12d20:	03179713          	slli	a4,a5,0x31
   12d24:	84aa                	mv	s1,a0
   12d26:	842e                	mv	s0,a1
   12d28:	e701                	bnez	a4,12d30 <ecmp+0x20>
   12d2a:	ec9ff0ef          	jal	ra,12bf2 <eisnan.part.0>
   12d2e:	ed39                	bnez	a0,12d8c <ecmp+0x7c>
   12d30:	01245783          	lhu	a5,18(s0)
   12d34:	fff7c793          	not	a5,a5
   12d38:	03179713          	slli	a4,a5,0x31
   12d3c:	c721                	beqz	a4,12d84 <ecmp+0x74>
   12d3e:	858a                	mv	a1,sp
   12d40:	8526                	mv	a0,s1
   12d42:	f23ff0ef          	jal	ra,12c64 <emovi>
   12d46:	100c                	addi	a1,sp,32
   12d48:	8522                	mv	a0,s0
   12d4a:	f1bff0ef          	jal	ra,12c64 <emovi>
   12d4e:	00015583          	lhu	a1,0(sp)
   12d52:	02015783          	lhu	a5,32(sp)
   12d56:	02b78d63          	beq	a5,a1,12d90 <ecmp+0x80>
   12d5a:	00210793          	addi	a5,sp,2
   12d5e:	02210713          	addi	a4,sp,34
   12d62:	0830                	addi	a2,sp,24
   12d64:	0007d683          	lhu	a3,0(a5)
   12d68:	0789                	addi	a5,a5,2
   12d6a:	e2ad                	bnez	a3,12dcc <ecmp+0xbc>
   12d6c:	00075683          	lhu	a3,0(a4)
   12d70:	0709                	addi	a4,a4,2
   12d72:	eea9                	bnez	a3,12dcc <ecmp+0xbc>
   12d74:	fec798e3          	bne	a5,a2,12d64 <ecmp+0x54>
   12d78:	4501                	li	a0,0
   12d7a:	60e6                	ld	ra,88(sp)
   12d7c:	6446                	ld	s0,80(sp)
   12d7e:	64a6                	ld	s1,72(sp)
   12d80:	6125                	addi	sp,sp,96
   12d82:	8082                	ret
   12d84:	8522                	mv	a0,s0
   12d86:	e6dff0ef          	jal	ra,12bf2 <eisnan.part.0>
   12d8a:	d955                	beqz	a0,12d3e <ecmp+0x2e>
   12d8c:	5579                	li	a0,-2
   12d8e:	b7f5                	j	12d7a <ecmp+0x6a>
   12d90:	4505                	li	a0,1
   12d92:	e1a9                	bnez	a1,12dd4 <ecmp+0xc4>
   12d94:	00210713          	addi	a4,sp,2
   12d98:	02210793          	addi	a5,sp,34
   12d9c:	0789                	addi	a5,a5,2
   12d9e:	0709                	addi	a4,a4,2
   12da0:	ffe75603          	lhu	a2,-2(a4)
   12da4:	ffe7d683          	lhu	a3,-2(a5)
   12da8:	182c                	addi	a1,sp,56
   12daa:	00d61c63          	bne	a2,a3,12dc2 <ecmp+0xb2>
   12dae:	fcb785e3          	beq	a5,a1,12d78 <ecmp+0x68>
   12db2:	0789                	addi	a5,a5,2
   12db4:	0709                	addi	a4,a4,2
   12db6:	ffe75603          	lhu	a2,-2(a4)
   12dba:	ffe7d683          	lhu	a3,-2(a5)
   12dbe:	fed608e3          	beq	a2,a3,12dae <ecmp+0x9e>
   12dc2:	fac6ece3          	bltu	a3,a2,12d7a <ecmp+0x6a>
   12dc6:	40a0053b          	negw	a0,a0
   12dca:	bf45                	j	12d7a <ecmp+0x6a>
   12dcc:	4505                	li	a0,1
   12dce:	d5d5                	beqz	a1,12d7a <ecmp+0x6a>
   12dd0:	557d                	li	a0,-1
   12dd2:	b765                	j	12d7a <ecmp+0x6a>
   12dd4:	557d                	li	a0,-1
   12dd6:	bf7d                	j	12d94 <ecmp+0x84>

0000000000012dd8 <eisinf.part.1>:
   12dd8:	1141                	addi	sp,sp,-16
   12dda:	e406                	sd	ra,8(sp)
   12ddc:	e17ff0ef          	jal	ra,12bf2 <eisnan.part.0>
   12de0:	60a2                	ld	ra,8(sp)
   12de2:	00153513          	seqz	a0,a0
   12de6:	0141                	addi	sp,sp,16
   12de8:	8082                	ret

0000000000012dea <eshift.part.3>:
   12dea:	1101                	addi	sp,sp,-32
   12dec:	e822                	sd	s0,16(sp)
   12dee:	e04a                	sd	s2,0(sp)
   12df0:	ec06                	sd	ra,24(sp)
   12df2:	e426                	sd	s1,8(sp)
   12df4:	892e                	mv	s2,a1
   12df6:	842a                	mv	s0,a0
   12df8:	0605cd63          	bltz	a1,12e72 <eshift.part.3+0x88>
   12dfc:	47bd                	li	a5,15
   12dfe:	862e                	mv	a2,a1
   12e00:	0511                	addi	a0,a0,4
   12e02:	01840693          	addi	a3,s0,24
   12e06:	45bd                	li	a1,15
   12e08:	0327d163          	bge	a5,s2,12e2a <eshift.part.3+0x40>
   12e0c:	87aa                	mv	a5,a0
   12e0e:	0789                	addi	a5,a5,2
   12e10:	0007d703          	lhu	a4,0(a5)
   12e14:	fee79f23          	sh	a4,-2(a5)
   12e18:	fed79be3          	bne	a5,a3,12e0e <eshift.part.3+0x24>
   12e1c:	00041c23          	sh	zero,24(s0)
   12e20:	3641                	addiw	a2,a2,-16
   12e22:	fec5c5e3          	blt	a1,a2,12e0c <eshift.part.3+0x22>
   12e26:	00f97913          	andi	s2,s2,15
   12e2a:	479d                	li	a5,7
   12e2c:	0327d463          	bge	a5,s2,12e54 <eshift.part.3+0x6a>
   12e30:	01840793          	addi	a5,s0,24
   12e34:	00240593          	addi	a1,s0,2
   12e38:	4701                	li	a4,0
   12e3a:	0007d683          	lhu	a3,0(a5)
   12e3e:	17f9                	addi	a5,a5,-2
   12e40:	00869613          	slli	a2,a3,0x8
   12e44:	8f51                	or	a4,a4,a2
   12e46:	00e79123          	sh	a4,2(a5)
   12e4a:	0086d713          	srli	a4,a3,0x8
   12e4e:	feb796e3          	bne	a5,a1,12e3a <eshift.part.3+0x50>
   12e52:	3961                	addiw	s2,s2,-8
   12e54:	00090863          	beqz	s2,12e64 <eshift.part.3+0x7a>
   12e58:	397d                	addiw	s2,s2,-1
   12e5a:	8522                	mv	a0,s0
   12e5c:	cc9ff0ef          	jal	ra,12b24 <eshup1>
   12e60:	fe091ce3          	bnez	s2,12e58 <eshift.part.3+0x6e>
   12e64:	60e2                	ld	ra,24(sp)
   12e66:	6442                	ld	s0,16(sp)
   12e68:	64a2                	ld	s1,8(sp)
   12e6a:	6902                	ld	s2,0(sp)
   12e6c:	4501                	li	a0,0
   12e6e:	6105                	addi	sp,sp,32
   12e70:	8082                	ret
   12e72:	57c5                	li	a5,-15
   12e74:	40b004bb          	negw	s1,a1
   12e78:	08f5dd63          	bge	a1,a5,12f12 <eshift.part.3+0x128>
   12e7c:	01850593          	addi	a1,a0,24
   12e80:	4901                	li	s2,0
   12e82:	00450693          	addi	a3,a0,4
   12e86:	463d                	li	a2,15
   12e88:	01845703          	lhu	a4,24(s0)
   12e8c:	87ae                	mv	a5,a1
   12e8e:	00e96933          	or	s2,s2,a4
   12e92:	17f9                	addi	a5,a5,-2
   12e94:	0007d703          	lhu	a4,0(a5)
   12e98:	00e79123          	sh	a4,2(a5)
   12e9c:	fed79be3          	bne	a5,a3,12e92 <eshift.part.3+0xa8>
   12ea0:	00041223          	sh	zero,4(s0)
   12ea4:	34c1                	addiw	s1,s1,-16
   12ea6:	fe9641e3          	blt	a2,s1,12e88 <eshift.part.3+0x9e>
   12eaa:	479d                	li	a5,7
   12eac:	0497d063          	bge	a5,s1,12eec <eshift.part.3+0x102>
   12eb0:	0109191b          	slliw	s2,s2,0x10
   12eb4:	4109591b          	sraiw	s2,s2,0x10
   12eb8:	01844783          	lbu	a5,24(s0)
   12ebc:	01a40593          	addi	a1,s0,26
   12ec0:	4701                	li	a4,0
   12ec2:	00f96933          	or	s2,s2,a5
   12ec6:	1942                	slli	s2,s2,0x30
   12ec8:	03095913          	srli	s2,s2,0x30
   12ecc:	0006d783          	lhu	a5,0(a3) # 8000 <register_fini-0x80b0>
   12ed0:	0689                	addi	a3,a3,2
   12ed2:	0087d61b          	srliw	a2,a5,0x8
   12ed6:	8f51                	or	a4,a4,a2
   12ed8:	0087979b          	slliw	a5,a5,0x8
   12edc:	fee69f23          	sh	a4,-2(a3)
   12ee0:	03079713          	slli	a4,a5,0x30
   12ee4:	9341                	srli	a4,a4,0x30
   12ee6:	feb693e3          	bne	a3,a1,12ecc <eshift.part.3+0xe2>
   12eea:	34e1                	addiw	s1,s1,-8
   12eec:	c899                	beqz	s1,12f02 <eshift.part.3+0x118>
   12eee:	01845783          	lhu	a5,24(s0)
   12ef2:	34fd                	addiw	s1,s1,-1
   12ef4:	8522                	mv	a0,s0
   12ef6:	8b85                	andi	a5,a5,1
   12ef8:	0127e933          	or	s2,a5,s2
   12efc:	bddff0ef          	jal	ra,12ad8 <eshdn1>
   12f00:	f4fd                	bnez	s1,12eee <eshift.part.3+0x104>
   12f02:	60e2                	ld	ra,24(sp)
   12f04:	6442                	ld	s0,16(sp)
   12f06:	01203533          	snez	a0,s2
   12f0a:	64a2                	ld	s1,8(sp)
   12f0c:	6902                	ld	s2,0(sp)
   12f0e:	6105                	addi	sp,sp,32
   12f10:	8082                	ret
   12f12:	57e5                	li	a5,-7
   12f14:	00f5c463          	blt	a1,a5,12f1c <eshift.part.3+0x132>
   12f18:	4901                	li	s2,0
   12f1a:	bfd1                	j	12eee <eshift.part.3+0x104>
   12f1c:	4901                	li	s2,0
   12f1e:	00440693          	addi	a3,s0,4
   12f22:	bf59                	j	12eb8 <eshift.part.3+0xce>

0000000000012f24 <enormlz>:
   12f24:	00455783          	lhu	a5,4(a0)
   12f28:	1101                	addi	sp,sp,-32
   12f2a:	e426                	sd	s1,8(sp)
   12f2c:	ec06                	sd	ra,24(sp)
   12f2e:	e822                	sd	s0,16(sp)
   12f30:	e04a                	sd	s2,0(sp)
   12f32:	84aa                	mv	s1,a0
   12f34:	ebc5                	bnez	a5,12fe4 <enormlz+0xc0>
   12f36:	00655703          	lhu	a4,6(a0)
   12f3a:	4401                	li	s0,0
   12f3c:	0107179b          	slliw	a5,a4,0x10
   12f40:	4107d79b          	sraiw	a5,a5,0x10
   12f44:	02079693          	slli	a3,a5,0x20
   12f48:	0806c763          	bltz	a3,12fd6 <enormlz+0xb2>
   12f4c:	01a50693          	addi	a3,a0,26
   12f50:	0a000613          	li	a2,160
   12f54:	e31d                	bnez	a4,12f7a <enormlz+0x56>
   12f56:	00648793          	addi	a5,s1,6
   12f5a:	a019                	j	12f60 <enormlz+0x3c>
   12f5c:	0007d703          	lhu	a4,0(a5)
   12f60:	0789                	addi	a5,a5,2
   12f62:	fee79e23          	sh	a4,-4(a5)
   12f66:	fef69be3          	bne	a3,a5,12f5c <enormlz+0x38>
   12f6a:	00049c23          	sh	zero,24(s1)
   12f6e:	2441                	addiw	s0,s0,16
   12f70:	06c40363          	beq	s0,a2,12fd6 <enormlz+0xb2>
   12f74:	0064d703          	lhu	a4,6(s1)
   12f78:	df79                	beqz	a4,12f56 <enormlz+0x32>
   12f7a:	f0077793          	andi	a5,a4,-256
   12f7e:	eb8d                	bnez	a5,12fb0 <enormlz+0x8c>
   12f80:	01848513          	addi	a0,s1,24
   12f84:	00248593          	addi	a1,s1,2
   12f88:	4701                	li	a4,0
   12f8a:	87aa                	mv	a5,a0
   12f8c:	0007d683          	lhu	a3,0(a5)
   12f90:	17f9                	addi	a5,a5,-2
   12f92:	00869613          	slli	a2,a3,0x8
   12f96:	8f51                	or	a4,a4,a2
   12f98:	00e79123          	sh	a4,2(a5)
   12f9c:	0086d713          	srli	a4,a3,0x8
   12fa0:	fef596e3          	bne	a1,a5,12f8c <enormlz+0x68>
   12fa4:	0064d703          	lhu	a4,6(s1)
   12fa8:	2421                	addiw	s0,s0,8
   12faa:	f0077793          	andi	a5,a4,-256
   12fae:	dfe9                	beqz	a5,12f88 <enormlz+0x64>
   12fb0:	0a000913          	li	s2,160
   12fb4:	a801                	j	12fc4 <enormlz+0xa0>
   12fb6:	2405                	addiw	s0,s0,1
   12fb8:	b6dff0ef          	jal	ra,12b24 <eshup1>
   12fbc:	00894d63          	blt	s2,s0,12fd6 <enormlz+0xb2>
   12fc0:	0064d703          	lhu	a4,6(s1)
   12fc4:	0107171b          	slliw	a4,a4,0x10
   12fc8:	4107571b          	sraiw	a4,a4,0x10
   12fcc:	02071793          	slli	a5,a4,0x20
   12fd0:	8526                	mv	a0,s1
   12fd2:	fe07d2e3          	bgez	a5,12fb6 <enormlz+0x92>
   12fd6:	8522                	mv	a0,s0
   12fd8:	60e2                	ld	ra,24(sp)
   12fda:	6442                	ld	s0,16(sp)
   12fdc:	64a2                	ld	s1,8(sp)
   12fde:	6902                	ld	s2,0(sp)
   12fe0:	6105                	addi	sp,sp,32
   12fe2:	8082                	ret
   12fe4:	f007f713          	andi	a4,a5,-256
   12fe8:	4401                	li	s0,0
   12fea:	e705                	bnez	a4,13012 <enormlz+0xee>
   12fec:	f6f00913          	li	s2,-145
   12ff0:	a801                	j	13000 <enormlz+0xdc>
   12ff2:	347d                	addiw	s0,s0,-1
   12ff4:	ae5ff0ef          	jal	ra,12ad8 <eshdn1>
   12ff8:	fd240fe3          	beq	s0,s2,12fd6 <enormlz+0xb2>
   12ffc:	0044d783          	lhu	a5,4(s1)
   13000:	8526                	mv	a0,s1
   13002:	fbe5                	bnez	a5,12ff2 <enormlz+0xce>
   13004:	8522                	mv	a0,s0
   13006:	60e2                	ld	ra,24(sp)
   13008:	6442                	ld	s0,16(sp)
   1300a:	64a2                	ld	s1,8(sp)
   1300c:	6902                	ld	s2,0(sp)
   1300e:	6105                	addi	sp,sp,32
   13010:	8082                	ret
   13012:	00450693          	addi	a3,a0,4
   13016:	01a50593          	addi	a1,a0,26
   1301a:	4701                	li	a4,0
   1301c:	a019                	j	13022 <enormlz+0xfe>
   1301e:	0006d783          	lhu	a5,0(a3)
   13022:	0087d61b          	srliw	a2,a5,0x8
   13026:	8f51                	or	a4,a4,a2
   13028:	0087979b          	slliw	a5,a5,0x8
   1302c:	00e69023          	sh	a4,0(a3)
   13030:	03079713          	slli	a4,a5,0x30
   13034:	0689                	addi	a3,a3,2
   13036:	9341                	srli	a4,a4,0x30
   13038:	feb693e3          	bne	a3,a1,1301e <enormlz+0xfa>
   1303c:	0044d783          	lhu	a5,4(s1)
   13040:	5461                	li	s0,-8
   13042:	b76d                	j	12fec <enormlz+0xc8>

0000000000013044 <emdnorm>:
   13044:	7139                	addi	sp,sp,-64
   13046:	f822                	sd	s0,48(sp)
   13048:	f426                	sd	s1,40(sp)
   1304a:	f04a                	sd	s2,32(sp)
   1304c:	ec4e                	sd	s3,24(sp)
   1304e:	e852                	sd	s4,16(sp)
   13050:	e456                	sd	s5,8(sp)
   13052:	8936                	mv	s2,a3
   13054:	84be                	mv	s1,a5
   13056:	fc06                	sd	ra,56(sp)
   13058:	842a                	mv	s0,a0
   1305a:	89ae                	mv	s3,a1
   1305c:	8a32                	mv	s4,a2
   1305e:	8aba                	mv	s5,a4
   13060:	ec5ff0ef          	jal	ra,12f24 <enormlz>
   13064:	09000793          	li	a5,144
   13068:	40a90933          	sub	s2,s2,a0
   1306c:	06a7d163          	bge	a5,a0,130ce <emdnorm+0x8a>
   13070:	67a1                	lui	a5,0x8
   13072:	17f9                	addi	a5,a5,-2
   13074:	1b27da63          	bge	a5,s2,13228 <emdnorm+0x1e4>
   13078:	180a8863          	beqz	s5,13208 <emdnorm+0x1c4>
   1307c:	40c8                	lw	a0,4(s1)
   1307e:	409c                	lw	a5,0(s1)
   13080:	0ca78163          	beq	a5,a0,13142 <emdnorm+0xfe>
   13084:	01a48713          	addi	a4,s1,26
   13088:	03448793          	addi	a5,s1,52
   1308c:	0709                	addi	a4,a4,2
   1308e:	fe071f23          	sh	zero,-2(a4)
   13092:	fef71de3          	bne	a4,a5,1308c <emdnorm+0x48>
   13096:	03800793          	li	a5,56
   1309a:	28f50c63          	beq	a0,a5,13332 <emdnorm+0x2ee>
   1309e:	04a7d763          	bge	a5,a0,130ec <emdnorm+0xa8>
   130a2:	04000793          	li	a5,64
   130a6:	24f50963          	beq	a0,a5,132f8 <emdnorm+0x2b4>
   130aa:	07100793          	li	a5,113
   130ae:	26f51263          	bne	a0,a5,13312 <emdnorm+0x2ce>
   130b2:	47a9                	li	a5,10
   130b4:	40008737          	lui	a4,0x40008
   130b8:	177d                	addi	a4,a4,-1
   130ba:	1782                	slli	a5,a5,0x20
   130bc:	07a9                	addi	a5,a5,10
   130be:	c8d8                	sw	a4,20(s1)
   130c0:	7761                	lui	a4,0xffff8
   130c2:	00e49c23          	sh	a4,24(s1)
   130c6:	e49c                	sd	a5,8(s1)
   130c8:	6721                	lui	a4,0x8
   130ca:	47a9                	li	a5,10
   130cc:	a0b1                	j	13118 <emdnorm+0xd4>
   130ce:	18095463          	bgez	s2,13256 <emdnorm+0x212>
   130d2:	f7000793          	li	a5,-144
   130d6:	16f95263          	bge	s2,a5,1323a <emdnorm+0x1f6>
   130da:	00240793          	addi	a5,s0,2
   130de:	0469                	addi	s0,s0,26
   130e0:	0789                	addi	a5,a5,2
   130e2:	fe079f23          	sh	zero,-2(a5) # 7ffe <register_fini-0x80b2>
   130e6:	fe879de3          	bne	a5,s0,130e0 <emdnorm+0x9c>
   130ea:	a231                	j	131f6 <emdnorm+0x1b2>
   130ec:	47e1                	li	a5,24
   130ee:	1ef50663          	beq	a0,a5,132da <emdnorm+0x296>
   130f2:	03500793          	li	a5,53
   130f6:	20f51e63          	bne	a0,a5,13312 <emdnorm+0x2ce>
   130fa:	040006b7          	lui	a3,0x4000
   130fe:	6705                	lui	a4,0x1
   13100:	7ff68693          	addi	a3,a3,2047 # 40007ff <__BSS_END__+0x3fe185f>
   13104:	4799                	li	a5,6
   13106:	80070713          	addi	a4,a4,-2048 # 800 <register_fini-0xf8b0>
   1310a:	c8d4                	sw	a3,20(s1)
   1310c:	1782                	slli	a5,a5,0x20
   1310e:	0799                	addi	a5,a5,6
   13110:	e49c                	sd	a5,8(s1)
   13112:	00e49c23          	sh	a4,24(s1)
   13116:	4799                	li	a5,6
   13118:	07a1                	addi	a5,a5,8
   1311a:	0786                	slli	a5,a5,0x1
   1311c:	97a6                	add	a5,a5,s1
   1311e:	00e79523          	sh	a4,10(a5)
   13122:	c088                	sw	a0,0(s1)
   13124:	01204f63          	bgtz	s2,13142 <emdnorm+0xfe>
   13128:	09000793          	li	a5,144
   1312c:	18f50763          	beq	a0,a5,132ba <emdnorm+0x276>
   13130:	01845783          	lhu	a5,24(s0)
   13134:	8522                	mv	a0,s0
   13136:	8b85                	andi	a5,a5,1
   13138:	00f9e9b3          	or	s3,s3,a5
   1313c:	99dff0ef          	jal	ra,12ad8 <eshdn1>
   13140:	40c8                	lw	a0,4(s1)
   13142:	4494                	lw	a3,8(s1)
   13144:	0144d603          	lhu	a2,20(s1)
   13148:	08f00793          	li	a5,143
   1314c:	00169713          	slli	a4,a3,0x1
   13150:	00e40833          	add	a6,s0,a4
   13154:	00085883          	lhu	a7,0(a6) # ffffffffffff8000 <__BSS_END__+0xfffffffffffd9060>
   13158:	00c8f5b3          	and	a1,a7,a2
   1315c:	02a7ce63          	blt	a5,a0,13198 <emdnorm+0x154>
   13160:	47ad                	li	a5,11
   13162:	02d7cb63          	blt	a5,a3,13198 <emdnorm+0x154>
   13166:	9f95                	subw	a5,a5,a3
   13168:	1782                	slli	a5,a5,0x20
   1316a:	9381                	srli	a5,a5,0x20
   1316c:	97b6                	add	a5,a5,a3
   1316e:	00179693          	slli	a3,a5,0x1
   13172:	0709                	addi	a4,a4,2
   13174:	00440793          	addi	a5,s0,4
   13178:	9722                	add	a4,a4,s0
   1317a:	97b6                	add	a5,a5,a3
   1317c:	00075683          	lhu	a3,0(a4)
   13180:	c299                	beqz	a3,13186 <emdnorm+0x142>
   13182:	0015e593          	ori	a1,a1,1
   13186:	00071023          	sh	zero,0(a4)
   1318a:	0709                	addi	a4,a4,2
   1318c:	fee798e3          	bne	a5,a4,1317c <emdnorm+0x138>
   13190:	00085883          	lhu	a7,0(a6)
   13194:	0144d603          	lhu	a2,20(s1)
   13198:	fff64613          	not	a2,a2
   1319c:	01167633          	and	a2,a2,a7
   131a0:	00c81023          	sh	a2,0(a6)
   131a4:	0164d783          	lhu	a5,22(s1)
   131a8:	00b7f733          	and	a4,a5,a1
   131ac:	cb05                	beqz	a4,131dc <emdnorm+0x198>
   131ae:	0cb78a63          	beq	a5,a1,13282 <emdnorm+0x23e>
   131b2:	03248613          	addi	a2,s1,50
   131b6:	01840713          	addi	a4,s0,24
   131ba:	04f1                	addi	s1,s1,28
   131bc:	4681                	li	a3,0
   131be:	00065783          	lhu	a5,0(a2)
   131c2:	00075583          	lhu	a1,0(a4)
   131c6:	1779                	addi	a4,a4,-2
   131c8:	1679                	addi	a2,a2,-2
   131ca:	97ae                	add	a5,a5,a1
   131cc:	97b6                	add	a5,a5,a3
   131ce:	00f71123          	sh	a5,2(a4)
   131d2:	83c1                	srli	a5,a5,0x10
   131d4:	0017f693          	andi	a3,a5,1
   131d8:	fe9613e3          	bne	a2,s1,131be <emdnorm+0x17a>
   131dc:	0d205063          	blez	s2,1329c <emdnorm+0x258>
   131e0:	00445783          	lhu	a5,4(s0)
   131e4:	e3c1                	bnez	a5,13264 <emdnorm+0x220>
   131e6:	67a1                	lui	a5,0x8
   131e8:	00041c23          	sh	zero,24(s0)
   131ec:	17f9                	addi	a5,a5,-2
   131ee:	0127cf63          	blt	a5,s2,1320c <emdnorm+0x1c8>
   131f2:	01241123          	sh	s2,2(s0)
   131f6:	70e2                	ld	ra,56(sp)
   131f8:	7442                	ld	s0,48(sp)
   131fa:	74a2                	ld	s1,40(sp)
   131fc:	7902                	ld	s2,32(sp)
   131fe:	69e2                	ld	s3,24(sp)
   13200:	6a42                	ld	s4,16(sp)
   13202:	6aa2                	ld	s5,8(sp)
   13204:	6121                	addi	sp,sp,64
   13206:	8082                	ret
   13208:	00041c23          	sh	zero,24(s0)
   1320c:	77e1                	lui	a5,0xffff8
   1320e:	fff7c793          	not	a5,a5
   13212:	00f41123          	sh	a5,2(s0)
   13216:	00440793          	addi	a5,s0,4
   1321a:	0461                	addi	s0,s0,24
   1321c:	00079023          	sh	zero,0(a5) # ffffffffffff8000 <__BSS_END__+0xfffffffffffd9060>
   13220:	0789                	addi	a5,a5,2
   13222:	fef41de3          	bne	s0,a5,1321c <emdnorm+0x1d8>
   13226:	bfc1                	j	131f6 <emdnorm+0x1b2>
   13228:	00240793          	addi	a5,s0,2
   1322c:	0469                	addi	s0,s0,26
   1322e:	0789                	addi	a5,a5,2
   13230:	fe079f23          	sh	zero,-2(a5)
   13234:	fe879de3          	bne	a5,s0,1322e <emdnorm+0x1ea>
   13238:	bf7d                	j	131f6 <emdnorm+0x1b2>
   1323a:	0009059b          	sext.w	a1,s2
   1323e:	8522                	mv	a0,s0
   13240:	babff0ef          	jal	ra,12dea <eshift.part.3>
   13244:	c111                	beqz	a0,13248 <emdnorm+0x204>
   13246:	4985                	li	s3,1
   13248:	080a8463          	beqz	s5,132d0 <emdnorm+0x28c>
   1324c:	40c8                	lw	a0,4(s1)
   1324e:	409c                	lw	a5,0(s1)
   13250:	e2a79ae3          	bne	a5,a0,13084 <emdnorm+0x40>
   13254:	bdd1                	j	13128 <emdnorm+0xe4>
   13256:	f80a88e3          	beqz	s5,131e6 <emdnorm+0x1a2>
   1325a:	40c8                	lw	a0,4(s1)
   1325c:	409c                	lw	a5,0(s1)
   1325e:	e2a793e3          	bne	a5,a0,13084 <emdnorm+0x40>
   13262:	b5c9                	j	13124 <emdnorm+0xe0>
   13264:	8522                	mv	a0,s0
   13266:	873ff0ef          	jal	ra,12ad8 <eshdn1>
   1326a:	67a1                	lui	a5,0x8
   1326c:	0905                	addi	s2,s2,1
   1326e:	00041c23          	sh	zero,24(s0)
   13272:	17f9                	addi	a5,a5,-2
   13274:	f927cce3          	blt	a5,s2,1320c <emdnorm+0x1c8>
   13278:	f6095de3          	bgez	s2,131f2 <emdnorm+0x1ae>
   1327c:	00041123          	sh	zero,2(s0)
   13280:	bf9d                	j	131f6 <emdnorm+0x1b2>
   13282:	0a099563          	bnez	s3,1332c <emdnorm+0x2e8>
   13286:	44dc                	lw	a5,12(s1)
   13288:	0184d703          	lhu	a4,24(s1)
   1328c:	0786                	slli	a5,a5,0x1
   1328e:	97a2                	add	a5,a5,s0
   13290:	0007d783          	lhu	a5,0(a5) # 8000 <register_fini-0x80b0>
   13294:	8ff9                	and	a5,a5,a4
   13296:	ff91                	bnez	a5,131b2 <emdnorm+0x16e>
   13298:	f52044e3          	bgtz	s2,131e0 <emdnorm+0x19c>
   1329c:	09000793          	li	a5,144
   132a0:	00f50563          	beq	a0,a5,132aa <emdnorm+0x266>
   132a4:	8522                	mv	a0,s0
   132a6:	87fff0ef          	jal	ra,12b24 <eshup1>
   132aa:	00445783          	lhu	a5,4(s0)
   132ae:	fbdd                	bnez	a5,13264 <emdnorm+0x220>
   132b0:	00041c23          	sh	zero,24(s0)
   132b4:	fc0944e3          	bltz	s2,1327c <emdnorm+0x238>
   132b8:	bf2d                	j	131f2 <emdnorm+0x1ae>
   132ba:	0084a803          	lw	a6,8(s1)
   132be:	0144d603          	lhu	a2,20(s1)
   132c2:	0806                	slli	a6,a6,0x1
   132c4:	9822                	add	a6,a6,s0
   132c6:	00085883          	lhu	a7,0(a6)
   132ca:	011675b3          	and	a1,a2,a7
   132ce:	b5e9                	j	13198 <emdnorm+0x154>
   132d0:	00041c23          	sh	zero,24(s0)
   132d4:	00041123          	sh	zero,2(s0)
   132d8:	bf39                	j	131f6 <emdnorm+0x1b2>
   132da:	4791                	li	a5,4
   132dc:	00800737          	lui	a4,0x800
   132e0:	0ff70713          	addi	a4,a4,255 # 8000ff <__BSS_END__+0x7e115f>
   132e4:	1782                	slli	a5,a5,0x20
   132e6:	0791                	addi	a5,a5,4
   132e8:	c8d8                	sw	a4,20(s1)
   132ea:	10000713          	li	a4,256
   132ee:	e49c                	sd	a5,8(s1)
   132f0:	00e49c23          	sh	a4,24(s1)
   132f4:	4791                	li	a5,4
   132f6:	b50d                	j	13118 <emdnorm+0xd4>
   132f8:	478d                	li	a5,3
   132fa:	80010737          	lui	a4,0x80010
   132fe:	177d                	addi	a4,a4,-1
   13300:	1786                	slli	a5,a5,0x21
   13302:	079d                	addi	a5,a5,7
   13304:	c8d8                	sw	a4,20(s1)
   13306:	4705                	li	a4,1
   13308:	e49c                	sd	a5,8(s1)
   1330a:	00e49c23          	sh	a4,24(s1)
   1330e:	4799                	li	a5,6
   13310:	b521                	j	13118 <emdnorm+0xd4>
   13312:	47ad                	li	a5,11
   13314:	80010737          	lui	a4,0x80010
   13318:	177d                	addi	a4,a4,-1
   1331a:	1782                	slli	a5,a5,0x20
   1331c:	07b1                	addi	a5,a5,12
   1331e:	c8d8                	sw	a4,20(s1)
   13320:	4705                	li	a4,1
   13322:	e49c                	sd	a5,8(s1)
   13324:	00e49c23          	sh	a4,24(s1)
   13328:	47ad                	li	a5,11
   1332a:	b3fd                	j	13118 <emdnorm+0xd4>
   1332c:	e80a03e3          	beqz	s4,131b2 <emdnorm+0x16e>
   13330:	b575                	j	131dc <emdnorm+0x198>
   13332:	00800737          	lui	a4,0x800
   13336:	0ff70713          	addi	a4,a4,255 # 8000ff <__BSS_END__+0x7e115f>
   1333a:	c8d8                	sw	a4,20(s1)
   1333c:	4799                	li	a5,6
   1333e:	10000713          	li	a4,256
   13342:	b3e9                	j	1310c <emdnorm+0xc8>

0000000000013344 <eiremain>:
   13344:	711d                	addi	sp,sp,-96
   13346:	fc4e                	sd	s3,56(sp)
   13348:	00255983          	lhu	s3,2(a0)
   1334c:	e4a6                	sd	s1,72(sp)
   1334e:	84ae                	mv	s1,a1
   13350:	ec86                	sd	ra,88(sp)
   13352:	e8a2                	sd	s0,80(sp)
   13354:	e0ca                	sd	s2,64(sp)
   13356:	f852                	sd	s4,48(sp)
   13358:	8932                	mv	s2,a2
   1335a:	f456                	sd	s5,40(sp)
   1335c:	f05a                	sd	s6,32(sp)
   1335e:	ec5e                	sd	s7,24(sp)
   13360:	e862                	sd	s8,16(sp)
   13362:	e466                	sd	s9,8(sp)
   13364:	e06a                	sd	s10,0(sp)
   13366:	8a2a                	mv	s4,a0
   13368:	bbdff0ef          	jal	ra,12f24 <enormlz>
   1336c:	0024d403          	lhu	s0,2(s1)
   13370:	40a989b3          	sub	s3,s3,a0
   13374:	8526                	mv	a0,s1
   13376:	bafff0ef          	jal	ra,12f24 <enormlz>
   1337a:	03490a93          	addi	s5,s2,52
   1337e:	8c09                	sub	s0,s0,a0
   13380:	04e90713          	addi	a4,s2,78
   13384:	87d6                	mv	a5,s5
   13386:	0789                	addi	a5,a5,2
   13388:	fe079f23          	sh	zero,-2(a5)
   1338c:	fee79de3          	bne	a5,a4,13386 <eiremain+0x42>
   13390:	07344b63          	blt	s0,s3,13406 <eiremain+0xc2>
   13394:	004a0b93          	addi	s7,s4,4
   13398:	00448b13          	addi	s6,s1,4
   1339c:	19fd                	addi	s3,s3,-1
   1339e:	01aa0c93          	addi	s9,s4,26
   133a2:	00248c13          	addi	s8,s1,2
   133a6:	875a                	mv	a4,s6
   133a8:	87de                	mv	a5,s7
   133aa:	0789                	addi	a5,a5,2
   133ac:	0709                	addi	a4,a4,2
   133ae:	ffe7d603          	lhu	a2,-2(a5)
   133b2:	ffe75683          	lhu	a3,-2(a4)
   133b6:	06d61c63          	bne	a2,a3,1342e <eiremain+0xea>
   133ba:	fefc98e3          	bne	s9,a5,133aa <eiremain+0x66>
   133be:	018a0693          	addi	a3,s4,24
   133c2:	01848713          	addi	a4,s1,24
   133c6:	4601                	li	a2,0
   133c8:	00075783          	lhu	a5,0(a4)
   133cc:	0006d583          	lhu	a1,0(a3)
   133d0:	1779                	addi	a4,a4,-2
   133d2:	8f91                	sub	a5,a5,a2
   133d4:	8f8d                	sub	a5,a5,a1
   133d6:	00f71123          	sh	a5,2(a4)
   133da:	83c1                	srli	a5,a5,0x10
   133dc:	16f9                	addi	a3,a3,-2
   133de:	0017f613          	andi	a2,a5,1
   133e2:	feec13e3          	bne	s8,a4,133c8 <eiremain+0x84>
   133e6:	4d05                	li	s10,1
   133e8:	8556                	mv	a0,s5
   133ea:	f3aff0ef          	jal	ra,12b24 <eshup1>
   133ee:	04c95783          	lhu	a5,76(s2)
   133f2:	147d                	addi	s0,s0,-1
   133f4:	8526                	mv	a0,s1
   133f6:	00fd6d33          	or	s10,s10,a5
   133fa:	05a91623          	sh	s10,76(s2)
   133fe:	f26ff0ef          	jal	ra,12b24 <eshup1>
   13402:	fb3412e3          	bne	s0,s3,133a6 <eiremain+0x62>
   13406:	86a2                	mv	a3,s0
   13408:	6446                	ld	s0,80(sp)
   1340a:	60e6                	ld	ra,88(sp)
   1340c:	79e2                	ld	s3,56(sp)
   1340e:	7a42                	ld	s4,48(sp)
   13410:	7aa2                	ld	s5,40(sp)
   13412:	7b02                	ld	s6,32(sp)
   13414:	6be2                	ld	s7,24(sp)
   13416:	6c42                	ld	s8,16(sp)
   13418:	6ca2                	ld	s9,8(sp)
   1341a:	6d02                	ld	s10,0(sp)
   1341c:	87ca                	mv	a5,s2
   1341e:	8526                	mv	a0,s1
   13420:	6906                	ld	s2,64(sp)
   13422:	64a6                	ld	s1,72(sp)
   13424:	4701                	li	a4,0
   13426:	4601                	li	a2,0
   13428:	4581                	li	a1,0
   1342a:	6125                	addi	sp,sp,96
   1342c:	b921                	j	13044 <emdnorm>
   1342e:	4d01                	li	s10,0
   13430:	fac6ece3          	bltu	a3,a2,133e8 <eiremain+0xa4>
   13434:	b769                	j	133be <eiremain+0x7a>

0000000000013436 <emovo.isra.6>:
   13436:	00055703          	lhu	a4,0(a0)
   1343a:	00255783          	lhu	a5,2(a0)
   1343e:	c319                	beqz	a4,13444 <emovo.isra.6+0xe>
   13440:	6721                	lui	a4,0x8
   13442:	8fd9                	or	a5,a5,a4
   13444:	00f59923          	sh	a5,18(a1)
   13448:	00255703          	lhu	a4,2(a0)
   1344c:	67a1                	lui	a5,0x8
   1344e:	17fd                	addi	a5,a5,-1
   13450:	00f70f63          	beq	a4,a5,1346e <emovo.isra.6+0x38>
   13454:	00650793          	addi	a5,a0,6
   13458:	05c1                	addi	a1,a1,16
   1345a:	0561                	addi	a0,a0,24
   1345c:	0789                	addi	a5,a5,2
   1345e:	ffe7d703          	lhu	a4,-2(a5) # 7ffe <register_fini-0x80b2>
   13462:	15f9                	addi	a1,a1,-2
   13464:	00e59123          	sh	a4,2(a1)
   13468:	fea79ae3          	bne	a5,a0,1345c <emovo.isra.6+0x26>
   1346c:	8082                	ret
   1346e:	00650793          	addi	a5,a0,6
   13472:	0569                	addi	a0,a0,26
   13474:	0007d703          	lhu	a4,0(a5)
   13478:	0789                	addi	a5,a5,2
   1347a:	e31d                	bnez	a4,134a0 <emovo.isra.6+0x6a>
   1347c:	fea79ce3          	bne	a5,a0,13474 <emovo.isra.6+0x3e>
   13480:	01258713          	addi	a4,a1,18
   13484:	87ae                	mv	a5,a1
   13486:	0789                	addi	a5,a5,2
   13488:	fe079f23          	sh	zero,-2(a5)
   1348c:	fef71de3          	bne	a4,a5,13486 <emovo.isra.6+0x50>
   13490:	0125d783          	lhu	a5,18(a1)
   13494:	6721                	lui	a4,0x8
   13496:	177d                	addi	a4,a4,-1
   13498:	8fd9                	or	a5,a5,a4
   1349a:	00f59923          	sh	a5,18(a1)
   1349e:	8082                	ret
   134a0:	01058713          	addi	a4,a1,16
   134a4:	87ae                	mv	a5,a1
   134a6:	0789                	addi	a5,a5,2
   134a8:	fe079f23          	sh	zero,-2(a5)
   134ac:	fef71de3          	bne	a4,a5,134a6 <emovo.isra.6+0x70>
   134b0:	7fffc7b7          	lui	a5,0x7fffc
   134b4:	c99c                	sw	a5,16(a1)
   134b6:	8082                	ret

00000000000134b8 <emul>:
   134b8:	7131                	addi	sp,sp,-192
   134ba:	e556                	sd	s5,136(sp)
   134bc:	01255a83          	lhu	s5,18(a0)
   134c0:	67a1                	lui	a5,0x8
   134c2:	17fd                	addi	a5,a5,-1
   134c4:	f922                	sd	s0,176(sp)
   134c6:	f526                	sd	s1,168(sp)
   134c8:	f14a                	sd	s2,160(sp)
   134ca:	ed4e                	sd	s3,152(sp)
   134cc:	e15a                	sd	s6,128(sp)
   134ce:	fd06                	sd	ra,184(sp)
   134d0:	e952                	sd	s4,144(sp)
   134d2:	fcde                	sd	s7,120(sp)
   134d4:	f8e2                	sd	s8,112(sp)
   134d6:	f4e6                	sd	s9,104(sp)
   134d8:	0157fb33          	and	s6,a5,s5
   134dc:	84aa                	mv	s1,a0
   134de:	892e                	mv	s2,a1
   134e0:	8432                	mv	s0,a2
   134e2:	89b6                	mv	s3,a3
   134e4:	08fb1663          	bne	s6,a5,13570 <emul+0xb8>
   134e8:	f0aff0ef          	jal	ra,12bf2 <eisnan.part.0>
   134ec:	18051c63          	bnez	a0,13684 <emul+0x1cc>
   134f0:	01295a03          	lhu	s4,18(s2)
   134f4:	014b77b3          	and	a5,s6,s4
   134f8:	1b679163          	bne	a5,s6,1369a <emul+0x1e2>
   134fc:	854a                	mv	a0,s2
   134fe:	ef4ff0ef          	jal	ra,12bf2 <eisnan.part.0>
   13502:	e149                	bnez	a0,13584 <emul+0xcc>
   13504:	8526                	mv	a0,s1
   13506:	8d3ff0ef          	jal	ra,12dd8 <eisinf.part.1>
   1350a:	18051c63          	bnez	a0,136a2 <emul+0x1ea>
   1350e:	67a1                	lui	a5,0x8
   13510:	17fd                	addi	a5,a5,-1
   13512:	0147fa33          	and	s4,a5,s4
   13516:	1a42                	slli	s4,s4,0x30
   13518:	030a5a13          	srli	s4,s4,0x30
   1351c:	20fa1d63          	bne	s4,a5,13736 <emul+0x27e>
   13520:	854a                	mv	a0,s2
   13522:	8b7ff0ef          	jal	ra,12dd8 <eisinf.part.1>
   13526:	26051063          	bnez	a0,13786 <emul+0x2ce>
   1352a:	0124d783          	lhu	a5,18(s1)
   1352e:	00fa77b3          	and	a5,s4,a5
   13532:	19478463          	beq	a5,s4,136ba <emul+0x202>
   13536:	8526                	mv	a0,s1
   13538:	858a                	mv	a1,sp
   1353a:	f2aff0ef          	jal	ra,12c64 <emovi>
   1353e:	854a                	mv	a0,s2
   13540:	100c                	addi	a1,sp,32
   13542:	f22ff0ef          	jal	ra,12c64 <emovi>
   13546:	00215483          	lhu	s1,2(sp)
   1354a:	02215903          	lhu	s2,34(sp)
   1354e:	e0b5                	bnez	s1,135b2 <emul+0xfa>
   13550:	005c                	addi	a5,sp,4
   13552:	0834                	addi	a3,sp,24
   13554:	20d78963          	beq	a5,a3,13766 <emul+0x2ae>
   13558:	0789                	addi	a5,a5,2
   1355a:	ffe7d703          	lhu	a4,-2(a5) # 7ffe <register_fini-0x80b2>
   1355e:	db7d                	beqz	a4,13554 <emul+0x9c>
   13560:	850a                	mv	a0,sp
   13562:	9c3ff0ef          	jal	ra,12f24 <enormlz>
   13566:	40a004b3          	neg	s1,a0
   1356a:	02215703          	lhu	a4,34(sp)
   1356e:	a099                	j	135b4 <emul+0xfc>
   13570:	0125da03          	lhu	s4,18(a1)
   13574:	0147f733          	and	a4,a5,s4
   13578:	faf71fe3          	bne	a4,a5,13536 <emul+0x7e>
   1357c:	852e                	mv	a0,a1
   1357e:	e74ff0ef          	jal	ra,12bf2 <eisnan.part.0>
   13582:	d551                	beqz	a0,1350e <emul+0x56>
   13584:	01490713          	addi	a4,s2,20
   13588:	0909                	addi	s2,s2,2
   1358a:	ffe95783          	lhu	a5,-2(s2)
   1358e:	0409                	addi	s0,s0,2
   13590:	fef41f23          	sh	a5,-2(s0)
   13594:	fee91ae3          	bne	s2,a4,13588 <emul+0xd0>
   13598:	70ea                	ld	ra,184(sp)
   1359a:	744a                	ld	s0,176(sp)
   1359c:	74aa                	ld	s1,168(sp)
   1359e:	790a                	ld	s2,160(sp)
   135a0:	69ea                	ld	s3,152(sp)
   135a2:	6a4a                	ld	s4,144(sp)
   135a4:	6aaa                	ld	s5,136(sp)
   135a6:	6b0a                	ld	s6,128(sp)
   135a8:	7be6                	ld	s7,120(sp)
   135aa:	7c46                	ld	s8,112(sp)
   135ac:	7ca6                	ld	s9,104(sp)
   135ae:	6129                	addi	sp,sp,192
   135b0:	8082                	ret
   135b2:	874a                	mv	a4,s2
   135b4:	8b4a                	mv	s6,s2
   135b6:	105c                	addi	a5,sp,36
   135b8:	1834                	addi	a3,sp,56
   135ba:	ef11                	bnez	a4,135d6 <emul+0x11e>
   135bc:	1af68d63          	beq	a3,a5,13776 <emul+0x2be>
   135c0:	0789                	addi	a5,a5,2
   135c2:	ffe7d703          	lhu	a4,-2(a5)
   135c6:	db7d                	beqz	a4,135bc <emul+0x104>
   135c8:	1008                	addi	a0,sp,32
   135ca:	95bff0ef          	jal	ra,12f24 <enormlz>
   135ce:	02215703          	lhu	a4,34(sp)
   135d2:	40a90b33          	sub	s6,s2,a0
   135d6:	02015783          	lhu	a5,32(sp)
   135da:	03898a93          	addi	s5,s3,56
   135de:	02e99b23          	sh	a4,54(s3)
   135e2:	02f99a23          	sh	a5,52(s3)
   135e6:	04e98713          	addi	a4,s3,78
   135ea:	87d6                	mv	a5,s5
   135ec:	00079023          	sh	zero,0(a5)
   135f0:	0789                	addi	a5,a5,2
   135f2:	fef71de3          	bne	a4,a5,135ec <emul+0x134>
   135f6:	04c98b93          	addi	s7,s3,76
   135fa:	4a01                	li	s4,0
   135fc:	01810913          	addi	s2,sp,24
   13600:	00410c93          	addi	s9,sp,4
   13604:	04210c13          	addi	s8,sp,66
   13608:	00095503          	lhu	a0,0(s2)
   1360c:	1979                	addi	s2,s2,-2
   1360e:	0e051d63          	bnez	a0,13708 <emul+0x250>
   13612:	04c9d703          	lhu	a4,76(s3)
   13616:	87de                	mv	a5,s7
   13618:	00ea6a33          	or	s4,s4,a4
   1361c:	17f9                	addi	a5,a5,-2
   1361e:	0007d703          	lhu	a4,0(a5)
   13622:	00e79123          	sh	a4,2(a5)
   13626:	ff579be3          	bne	a5,s5,1361c <emul+0x164>
   1362a:	02099c23          	sh	zero,56(s3)
   1362e:	fd991de3          	bne	s2,s9,13608 <emul+0x150>
   13632:	03498713          	addi	a4,s3,52
   13636:	101c                	addi	a5,sp,32
   13638:	03a10693          	addi	a3,sp,58
   1363c:	00075603          	lhu	a2,0(a4) # 8000 <register_fini-0x80b0>
   13640:	0789                	addi	a5,a5,2
   13642:	0709                	addi	a4,a4,2
   13644:	fec79f23          	sh	a2,-2(a5)
   13648:	fef69ae3          	bne	a3,a5,1363c <emul+0x184>
   1364c:	76f1                	lui	a3,0xffffc
   1364e:	94da                	add	s1,s1,s6
   13650:	0689                	addi	a3,a3,2
   13652:	85d2                	mv	a1,s4
   13654:	1008                	addi	a0,sp,32
   13656:	87ce                	mv	a5,s3
   13658:	04000713          	li	a4,64
   1365c:	96a6                	add	a3,a3,s1
   1365e:	4601                	li	a2,0
   13660:	9e5ff0ef          	jal	ra,13044 <emdnorm>
   13664:	02015703          	lhu	a4,32(sp)
   13668:	00015783          	lhu	a5,0(sp)
   1366c:	85a2                	mv	a1,s0
   1366e:	1008                	addi	a0,sp,32
   13670:	8f99                	sub	a5,a5,a4
   13672:	00f037b3          	snez	a5,a5
   13676:	40f007bb          	negw	a5,a5
   1367a:	02f11023          	sh	a5,32(sp)
   1367e:	db9ff0ef          	jal	ra,13436 <emovo.isra.6>
   13682:	bf19                	j	13598 <emul+0xe0>
   13684:	01448713          	addi	a4,s1,20
   13688:	0489                	addi	s1,s1,2
   1368a:	ffe4d783          	lhu	a5,-2(s1)
   1368e:	0409                	addi	s0,s0,2
   13690:	fef41f23          	sh	a5,-2(s0)
   13694:	fee49ae3          	bne	s1,a4,13688 <emul+0x1d0>
   13698:	b701                	j	13598 <emul+0xe0>
   1369a:	8526                	mv	a0,s1
   1369c:	f3cff0ef          	jal	ra,12dd8 <eisinf.part.1>
   136a0:	cd49                	beqz	a0,1373a <emul+0x282>
   136a2:	00009597          	auipc	a1,0x9
   136a6:	c1e58593          	addi	a1,a1,-994 # 1c2c0 <ezero>
   136aa:	854a                	mv	a0,s2
   136ac:	e64ff0ef          	jal	ra,12d10 <ecmp>
   136b0:	0e050a63          	beqz	a0,137a4 <emul+0x2ec>
   136b4:	01295a03          	lhu	s4,18(s2)
   136b8:	bd99                	j	1350e <emul+0x56>
   136ba:	8526                	mv	a0,s1
   136bc:	f1cff0ef          	jal	ra,12dd8 <eisinf.part.1>
   136c0:	e511                	bnez	a0,136cc <emul+0x214>
   136c2:	854a                	mv	a0,s2
   136c4:	f14ff0ef          	jal	ra,12dd8 <eisinf.part.1>
   136c8:	e60507e3          	beqz	a0,13536 <emul+0x7e>
   136cc:	8526                	mv	a0,s1
   136ce:	d6cff0ef          	jal	ra,12c3a <eisneg>
   136d2:	84aa                	mv	s1,a0
   136d4:	854a                	mv	a0,s2
   136d6:	d64ff0ef          	jal	ra,12c3a <eisneg>
   136da:	40a48533          	sub	a0,s1,a0
   136de:	00a03533          	snez	a0,a0
   136e2:	053e                	slli	a0,a0,0xf
   136e4:	00a41923          	sh	a0,18(s0)
   136e8:	01240713          	addi	a4,s0,18
   136ec:	87a2                	mv	a5,s0
   136ee:	0789                	addi	a5,a5,2
   136f0:	fe079f23          	sh	zero,-2(a5)
   136f4:	fee79de3          	bne	a5,a4,136ee <emul+0x236>
   136f8:	01245783          	lhu	a5,18(s0)
   136fc:	6721                	lui	a4,0x8
   136fe:	177d                	addi	a4,a4,-1
   13700:	8fd9                	or	a5,a5,a4
   13702:	00f41923          	sh	a5,18(s0)
   13706:	bd49                	j	13598 <emul+0xe0>
   13708:	0090                	addi	a2,sp,64
   1370a:	100c                	addi	a1,sp,32
   1370c:	c72ff0ef          	jal	ra,12b7e <m16m>
   13710:	865e                	mv	a2,s7
   13712:	4581                	li	a1,0
   13714:	08b8                	addi	a4,sp,88
   13716:	00065503          	lhu	a0,0(a2)
   1371a:	00075783          	lhu	a5,0(a4) # 8000 <register_fini-0x80b0>
   1371e:	1679                	addi	a2,a2,-2
   13720:	1779                	addi	a4,a4,-2
   13722:	97aa                	add	a5,a5,a0
   13724:	97ae                	add	a5,a5,a1
   13726:	00f61123          	sh	a5,2(a2)
   1372a:	83c1                	srli	a5,a5,0x10
   1372c:	0017f593          	andi	a1,a5,1
   13730:	ff8713e3          	bne	a4,s8,13716 <emul+0x25e>
   13734:	bdf9                	j	13612 <emul+0x15a>
   13736:	0124da83          	lhu	s5,18(s1)
   1373a:	67a1                	lui	a5,0x8
   1373c:	17fd                	addi	a5,a5,-1
   1373e:	0157fab3          	and	s5,a5,s5
   13742:	1ac2                	slli	s5,s5,0x30
   13744:	030ada93          	srli	s5,s5,0x30
   13748:	defa97e3          	bne	s5,a5,13536 <emul+0x7e>
   1374c:	8526                	mv	a0,s1
   1374e:	e8aff0ef          	jal	ra,12dd8 <eisinf.part.1>
   13752:	fd2d                	bnez	a0,136cc <emul+0x214>
   13754:	01295783          	lhu	a5,18(s2)
   13758:	fff7c793          	not	a5,a5
   1375c:	03179713          	slli	a4,a5,0x31
   13760:	dc071be3          	bnez	a4,13536 <emul+0x7e>
   13764:	bfb9                	j	136c2 <emul+0x20a>
   13766:	01440793          	addi	a5,s0,20
   1376a:	0409                	addi	s0,s0,2
   1376c:	fe041f23          	sh	zero,-2(s0)
   13770:	fe879de3          	bne	a5,s0,1376a <emul+0x2b2>
   13774:	b515                	j	13598 <emul+0xe0>
   13776:	01440793          	addi	a5,s0,20
   1377a:	0409                	addi	s0,s0,2
   1377c:	fe041f23          	sh	zero,-2(s0)
   13780:	fef41de3          	bne	s0,a5,1377a <emul+0x2c2>
   13784:	bd11                	j	13598 <emul+0xe0>
   13786:	00009597          	auipc	a1,0x9
   1378a:	b3a58593          	addi	a1,a1,-1222 # 1c2c0 <ezero>
   1378e:	8526                	mv	a0,s1
   13790:	d80ff0ef          	jal	ra,12d10 <ecmp>
   13794:	c901                	beqz	a0,137a4 <emul+0x2ec>
   13796:	0124d783          	lhu	a5,18(s1)
   1379a:	00fa77b3          	and	a5,s4,a5
   1379e:	fb4787e3          	beq	a5,s4,1374c <emul+0x294>
   137a2:	bf4d                	j	13754 <emul+0x29c>
   137a4:	01040713          	addi	a4,s0,16
   137a8:	87a2                	mv	a5,s0
   137aa:	0789                	addi	a5,a5,2
   137ac:	fe079f23          	sh	zero,-2(a5) # 7ffe <register_fini-0x80b2>
   137b0:	fee79de3          	bne	a5,a4,137aa <emul+0x2f2>
   137b4:	7fffc7b7          	lui	a5,0x7fffc
   137b8:	c81c                	sw	a5,16(s0)
   137ba:	bbf9                	j	13598 <emul+0xe0>

00000000000137bc <ediv>:
   137bc:	01255783          	lhu	a5,18(a0)
   137c0:	7115                	addi	sp,sp,-224
   137c2:	e9a2                	sd	s0,208(sp)
   137c4:	fff7c793          	not	a5,a5
   137c8:	e5a6                	sd	s1,200(sp)
   137ca:	e1ca                	sd	s2,192(sp)
   137cc:	f15a                	sd	s6,160(sp)
   137ce:	ed86                	sd	ra,216(sp)
   137d0:	fd4e                	sd	s3,184(sp)
   137d2:	f952                	sd	s4,176(sp)
   137d4:	f556                	sd	s5,168(sp)
   137d6:	ed5e                	sd	s7,152(sp)
   137d8:	e962                	sd	s8,144(sp)
   137da:	e566                	sd	s9,136(sp)
   137dc:	e16a                	sd	s10,128(sp)
   137de:	fcee                	sd	s11,120(sp)
   137e0:	03179713          	slli	a4,a5,0x31
   137e4:	84aa                	mv	s1,a0
   137e6:	892e                	mv	s2,a1
   137e8:	8432                	mv	s0,a2
   137ea:	8b36                	mv	s6,a3
   137ec:	e709                	bnez	a4,137f6 <ediv+0x3a>
   137ee:	c04ff0ef          	jal	ra,12bf2 <eisnan.part.0>
   137f2:	2a051063          	bnez	a0,13a92 <ediv+0x2d6>
   137f6:	01295783          	lhu	a5,18(s2)
   137fa:	fff7c793          	not	a5,a5
   137fe:	03179713          	slli	a4,a5,0x31
   13802:	c72d                	beqz	a4,1386c <ediv+0xb0>
   13804:	00009597          	auipc	a1,0x9
   13808:	abc58593          	addi	a1,a1,-1348 # 1c2c0 <ezero>
   1380c:	8526                	mv	a0,s1
   1380e:	d02ff0ef          	jal	ra,12d10 <ecmp>
   13812:	cd55                	beqz	a0,138ce <ediv+0x112>
   13814:	0124d983          	lhu	s3,18(s1)
   13818:	01295703          	lhu	a4,18(s2)
   1381c:	67a1                	lui	a5,0x8
   1381e:	17fd                	addi	a5,a5,-1
   13820:	0137f9b3          	and	s3,a5,s3
   13824:	00e7fa33          	and	s4,a5,a4
   13828:	06f99163          	bne	s3,a5,1388a <ediv+0xce>
   1382c:	8526                	mv	a0,s1
   1382e:	daaff0ef          	jal	ra,12dd8 <eisinf.part.1>
   13832:	c171                	beqz	a0,138f6 <ediv+0x13a>
   13834:	013a1663          	bne	s4,s3,13840 <ediv+0x84>
   13838:	854a                	mv	a0,s2
   1383a:	d9eff0ef          	jal	ra,12dd8 <eisinf.part.1>
   1383e:	e145                	bnez	a0,138de <ediv+0x122>
   13840:	01440793          	addi	a5,s0,20
   13844:	0409                	addi	s0,s0,2
   13846:	fe041f23          	sh	zero,-2(s0)
   1384a:	fef41de3          	bne	s0,a5,13844 <ediv+0x88>
   1384e:	60ee                	ld	ra,216(sp)
   13850:	644e                	ld	s0,208(sp)
   13852:	64ae                	ld	s1,200(sp)
   13854:	690e                	ld	s2,192(sp)
   13856:	79ea                	ld	s3,184(sp)
   13858:	7a4a                	ld	s4,176(sp)
   1385a:	7aaa                	ld	s5,168(sp)
   1385c:	7b0a                	ld	s6,160(sp)
   1385e:	6bea                	ld	s7,152(sp)
   13860:	6c4a                	ld	s8,144(sp)
   13862:	6caa                	ld	s9,136(sp)
   13864:	6d0a                	ld	s10,128(sp)
   13866:	7de6                	ld	s11,120(sp)
   13868:	612d                	addi	sp,sp,224
   1386a:	8082                	ret
   1386c:	854a                	mv	a0,s2
   1386e:	b84ff0ef          	jal	ra,12bf2 <eisnan.part.0>
   13872:	d949                	beqz	a0,13804 <ediv+0x48>
   13874:	01490713          	addi	a4,s2,20
   13878:	0909                	addi	s2,s2,2
   1387a:	ffe95783          	lhu	a5,-2(s2)
   1387e:	0409                	addi	s0,s0,2
   13880:	fef41f23          	sh	a5,-2(s0)
   13884:	fee91ae3          	bne	s2,a4,13878 <ediv+0xbc>
   13888:	b7d9                	j	1384e <ediv+0x92>
   1388a:	06fa0863          	beq	s4,a5,138fa <ediv+0x13e>
   1388e:	8526                	mv	a0,s1
   13890:	080c                	addi	a1,sp,16
   13892:	bd2ff0ef          	jal	ra,12c64 <emovi>
   13896:	180c                	addi	a1,sp,48
   13898:	854a                	mv	a0,s2
   1389a:	bcaff0ef          	jal	ra,12c64 <emovi>
   1389e:	03215b83          	lhu	s7,50(sp)
   138a2:	01215483          	lhu	s1,18(sp)
   138a6:	080b9c63          	bnez	s7,1393e <ediv+0x182>
   138aa:	185c                	addi	a5,sp,52
   138ac:	04810b93          	addi	s7,sp,72
   138b0:	26fb8f63          	beq	s7,a5,13b2e <ediv+0x372>
   138b4:	0789                	addi	a5,a5,2
   138b6:	ffe7d683          	lhu	a3,-2(a5) # 7ffe <register_fini-0x80b2>
   138ba:	dafd                	beqz	a3,138b0 <ediv+0xf4>
   138bc:	1808                	addi	a0,sp,48
   138be:	e66ff0ef          	jal	ra,12f24 <enormlz>
   138c2:	40a007b3          	neg	a5,a0
   138c6:	e43e                	sd	a5,8(sp)
   138c8:	01215603          	lhu	a2,18(sp)
   138cc:	a89d                	j	13942 <ediv+0x186>
   138ce:	00009597          	auipc	a1,0x9
   138d2:	9f258593          	addi	a1,a1,-1550 # 1c2c0 <ezero>
   138d6:	854a                	mv	a0,s2
   138d8:	c38ff0ef          	jal	ra,12d10 <ecmp>
   138dc:	fd05                	bnez	a0,13814 <ediv+0x58>
   138de:	01040713          	addi	a4,s0,16
   138e2:	87a2                	mv	a5,s0
   138e4:	0789                	addi	a5,a5,2
   138e6:	fe079f23          	sh	zero,-2(a5)
   138ea:	fee79de3          	bne	a5,a4,138e4 <ediv+0x128>
   138ee:	7fffc7b7          	lui	a5,0x7fffc
   138f2:	c81c                	sw	a5,16(s0)
   138f4:	bfa9                	j	1384e <ediv+0x92>
   138f6:	f93a1ce3          	bne	s4,s3,1388e <ediv+0xd2>
   138fa:	854a                	mv	a0,s2
   138fc:	cdcff0ef          	jal	ra,12dd8 <eisinf.part.1>
   13900:	d559                	beqz	a0,1388e <ediv+0xd2>
   13902:	8526                	mv	a0,s1
   13904:	b36ff0ef          	jal	ra,12c3a <eisneg>
   13908:	84aa                	mv	s1,a0
   1390a:	854a                	mv	a0,s2
   1390c:	b2eff0ef          	jal	ra,12c3a <eisneg>
   13910:	40a48533          	sub	a0,s1,a0
   13914:	00a03533          	snez	a0,a0
   13918:	053e                	slli	a0,a0,0xf
   1391a:	00a41923          	sh	a0,18(s0)
   1391e:	01240713          	addi	a4,s0,18
   13922:	87a2                	mv	a5,s0
   13924:	0789                	addi	a5,a5,2
   13926:	fe079f23          	sh	zero,-2(a5) # 7fffbffe <__BSS_END__+0x7ffdd05e>
   1392a:	fee79de3          	bne	a5,a4,13924 <ediv+0x168>
   1392e:	01245783          	lhu	a5,18(s0)
   13932:	6721                	lui	a4,0x8
   13934:	177d                	addi	a4,a4,-1
   13936:	8fd9                	or	a5,a5,a4
   13938:	00f41923          	sh	a5,18(s0)
   1393c:	bf09                	j	1384e <ediv+0x92>
   1393e:	e45e                	sd	s7,8(sp)
   13940:	8626                	mv	a2,s1
   13942:	e026                	sd	s1,0(sp)
   13944:	085c                	addi	a5,sp,20
   13946:	1034                	addi	a3,sp,40
   13948:	ee09                	bnez	a2,13962 <ediv+0x1a6>
   1394a:	1ef68a63          	beq	a3,a5,13b3e <ediv+0x382>
   1394e:	0789                	addi	a5,a5,2
   13950:	ffe7d703          	lhu	a4,-2(a5)
   13954:	db7d                	beqz	a4,1394a <ediv+0x18e>
   13956:	0808                	addi	a0,sp,16
   13958:	dccff0ef          	jal	ra,12f24 <enormlz>
   1395c:	40a487b3          	sub	a5,s1,a0
   13960:	e03e                	sd	a5,0(sp)
   13962:	5742                	lw	a4,48(sp)
   13964:	038b0d13          	addi	s10,s6,56
   13968:	87ea                	mv	a5,s10
   1396a:	02eb2a23          	sw	a4,52(s6)
   1396e:	04eb0493          	addi	s1,s6,78
   13972:	0789                	addi	a5,a5,2
   13974:	fe079f23          	sh	zero,-2(a5)
   13978:	fef49de3          	bne	s1,a5,13972 <ediv+0x1b6>
   1397c:	1808                	addi	a0,sp,48
   1397e:	95aff0ef          	jal	ra,12ad8 <eshdn1>
   13982:	01615c03          	lhu	s8,22(sp)
   13986:	69c1                	lui	s3,0x10
   13988:	04810b93          	addi	s7,sp,72
   1398c:	010c1a13          	slli	s4,s8,0x10
   13990:	418a0a33          	sub	s4,s4,s8
   13994:	03210a93          	addi	s5,sp,50
   13998:	19fd                	addi	s3,s3,-1
   1399a:	06a10c93          	addi	s9,sp,106
   1399e:	05210913          	addi	s2,sp,82
   139a2:	03415503          	lhu	a0,52(sp)
   139a6:	03615783          	lhu	a5,54(sp)
   139aa:	8dce                	mv	s11,s3
   139ac:	0542                	slli	a0,a0,0x10
   139ae:	953e                	add	a0,a0,a5
   139b0:	00aa6863          	bltu	s4,a0,139c0 <ediv+0x204>
   139b4:	03855533          	divu	a0,a0,s8
   139b8:	03051d93          	slli	s11,a0,0x30
   139bc:	030ddd93          	srli	s11,s11,0x30
   139c0:	0890                	addi	a2,sp,80
   139c2:	080c                	addi	a1,sp,16
   139c4:	856e                	mv	a0,s11
   139c6:	9b8ff0ef          	jal	ra,12b7e <m16m>
   139ca:	1850                	addi	a2,sp,52
   139cc:	08dc                	addi	a5,sp,84
   139ce:	0789                	addi	a5,a5,2
   139d0:	0609                	addi	a2,a2,2
   139d2:	ffe7d503          	lhu	a0,-2(a5)
   139d6:	ffe65583          	lhu	a1,-2(a2)
   139da:	0cb51763          	bne	a0,a1,13aa8 <ediv+0x2ec>
   139de:	ff9798e3          	bne	a5,s9,139ce <ediv+0x212>
   139e2:	4501                	li	a0,0
   139e4:	10ac                	addi	a1,sp,104
   139e6:	865e                	mv	a2,s7
   139e8:	00065783          	lhu	a5,0(a2)
   139ec:	0005d803          	lhu	a6,0(a1)
   139f0:	1679                	addi	a2,a2,-2
   139f2:	8f89                	sub	a5,a5,a0
   139f4:	410787b3          	sub	a5,a5,a6
   139f8:	00f61123          	sh	a5,2(a2)
   139fc:	83c1                	srli	a5,a5,0x10
   139fe:	15f9                	addi	a1,a1,-2
   13a00:	0017f513          	andi	a0,a5,1
   13a04:	ff5612e3          	bne	a2,s5,139e8 <ediv+0x22c>
   13a08:	01bd1023          	sh	s11,0(s10)
   13a0c:	185c                	addi	a5,sp,52
   13a0e:	0789                	addi	a5,a5,2
   13a10:	0007d603          	lhu	a2,0(a5)
   13a14:	fec79f23          	sh	a2,-2(a5)
   13a18:	ff779be3          	bne	a5,s7,13a0e <ediv+0x252>
   13a1c:	04011423          	sh	zero,72(sp)
   13a20:	0d09                	addi	s10,s10,2
   13a22:	f9a490e3          	bne	s1,s10,139a2 <ediv+0x1e6>
   13a26:	4581                	li	a1,0
   13a28:	185c                	addi	a5,sp,52
   13a2a:	04a10693          	addi	a3,sp,74
   13a2e:	0789                	addi	a5,a5,2
   13a30:	ffe7d703          	lhu	a4,-2(a5)
   13a34:	8dd9                	or	a1,a1,a4
   13a36:	fed79ce3          	bne	a5,a3,13a2e <ediv+0x272>
   13a3a:	2581                	sext.w	a1,a1
   13a3c:	00b035b3          	snez	a1,a1
   13a40:	034b0713          	addi	a4,s6,52
   13a44:	181c                	addi	a5,sp,48
   13a46:	00075603          	lhu	a2,0(a4) # 8000 <register_fini-0x80b0>
   13a4a:	0789                	addi	a5,a5,2
   13a4c:	0709                	addi	a4,a4,2
   13a4e:	fec79f23          	sh	a2,-2(a5)
   13a52:	fef69ae3          	bne	a3,a5,13a46 <ediv+0x28a>
   13a56:	67a2                	ld	a5,8(sp)
   13a58:	6702                	ld	a4,0(sp)
   13a5a:	6691                	lui	a3,0x4
   13a5c:	16fd                	addi	a3,a3,-1
   13a5e:	40e78bb3          	sub	s7,a5,a4
   13a62:	1808                	addi	a0,sp,48
   13a64:	87da                	mv	a5,s6
   13a66:	04000713          	li	a4,64
   13a6a:	96de                	add	a3,a3,s7
   13a6c:	4601                	li	a2,0
   13a6e:	dd6ff0ef          	jal	ra,13044 <emdnorm>
   13a72:	03015703          	lhu	a4,48(sp)
   13a76:	01015783          	lhu	a5,16(sp)
   13a7a:	85a2                	mv	a1,s0
   13a7c:	1808                	addi	a0,sp,48
   13a7e:	8f99                	sub	a5,a5,a4
   13a80:	00f037b3          	snez	a5,a5
   13a84:	40f007bb          	negw	a5,a5
   13a88:	02f11823          	sh	a5,48(sp)
   13a8c:	9abff0ef          	jal	ra,13436 <emovo.isra.6>
   13a90:	bb7d                	j	1384e <ediv+0x92>
   13a92:	01448713          	addi	a4,s1,20
   13a96:	0489                	addi	s1,s1,2
   13a98:	ffe4d783          	lhu	a5,-2(s1)
   13a9c:	0409                	addi	s0,s0,2
   13a9e:	fef41f23          	sh	a5,-2(s0)
   13aa2:	fee49ae3          	bne	s1,a4,13a96 <ediv+0x2da>
   13aa6:	b365                	j	1384e <ediv+0x92>
   13aa8:	f2a5fde3          	bgeu	a1,a0,139e2 <ediv+0x226>
   13aac:	fffd879b          	addiw	a5,s11,-1
   13ab0:	03079893          	slli	a7,a5,0x30
   13ab4:	0308d893          	srli	a7,a7,0x30
   13ab8:	4501                	li	a0,0
   13aba:	102c                	addi	a1,sp,40
   13abc:	10b0                	addi	a2,sp,104
   13abe:	00065783          	lhu	a5,0(a2)
   13ac2:	0005d803          	lhu	a6,0(a1)
   13ac6:	1679                	addi	a2,a2,-2
   13ac8:	8f89                	sub	a5,a5,a0
   13aca:	410787b3          	sub	a5,a5,a6
   13ace:	00f61123          	sh	a5,2(a2)
   13ad2:	83c1                	srli	a5,a5,0x10
   13ad4:	15f9                	addi	a1,a1,-2
   13ad6:	0017f513          	andi	a0,a5,1
   13ada:	ff2612e3          	bne	a2,s2,13abe <ediv+0x302>
   13ade:	1850                	addi	a2,sp,52
   13ae0:	08dc                	addi	a5,sp,84
   13ae2:	0789                	addi	a5,a5,2
   13ae4:	0609                	addi	a2,a2,2
   13ae6:	ffe7d503          	lhu	a0,-2(a5)
   13aea:	ffe65583          	lhu	a1,-2(a2)
   13aee:	00b51663          	bne	a0,a1,13afa <ediv+0x33e>
   13af2:	ff9798e3          	bne	a5,s9,13ae2 <ediv+0x326>
   13af6:	8dc6                	mv	s11,a7
   13af8:	b5ed                	j	139e2 <ediv+0x226>
   13afa:	fea5fee3          	bgeu	a1,a0,13af6 <ediv+0x33a>
   13afe:	3df9                	addiw	s11,s11,-2
   13b00:	1dc2                	slli	s11,s11,0x30
   13b02:	030ddd93          	srli	s11,s11,0x30
   13b06:	4501                	li	a0,0
   13b08:	102c                	addi	a1,sp,40
   13b0a:	10b0                	addi	a2,sp,104
   13b0c:	00065783          	lhu	a5,0(a2)
   13b10:	0005d803          	lhu	a6,0(a1)
   13b14:	1679                	addi	a2,a2,-2
   13b16:	8f89                	sub	a5,a5,a0
   13b18:	410787b3          	sub	a5,a5,a6
   13b1c:	00f61123          	sh	a5,2(a2)
   13b20:	83c1                	srli	a5,a5,0x10
   13b22:	15f9                	addi	a1,a1,-2
   13b24:	0017f513          	andi	a0,a5,1
   13b28:	ff2612e3          	bne	a2,s2,13b0c <ediv+0x350>
   13b2c:	bd5d                	j	139e2 <ediv+0x226>
   13b2e:	01440793          	addi	a5,s0,20
   13b32:	0409                	addi	s0,s0,2
   13b34:	fe041f23          	sh	zero,-2(s0)
   13b38:	fe879de3          	bne	a5,s0,13b32 <ediv+0x376>
   13b3c:	bb09                	j	1384e <ediv+0x92>
   13b3e:	01015703          	lhu	a4,16(sp)
   13b42:	03015783          	lhu	a5,48(sp)
   13b46:	00f70363          	beq	a4,a5,13b4c <ediv+0x390>
   13b4a:	6621                	lui	a2,0x8
   13b4c:	00c41923          	sh	a2,18(s0)
   13b50:	01240713          	addi	a4,s0,18
   13b54:	87a2                	mv	a5,s0
   13b56:	0789                	addi	a5,a5,2
   13b58:	fe079f23          	sh	zero,-2(a5)
   13b5c:	fef71de3          	bne	a4,a5,13b56 <ediv+0x39a>
   13b60:	01245783          	lhu	a5,18(s0)
   13b64:	6721                	lui	a4,0x8
   13b66:	177d                	addi	a4,a4,-1
   13b68:	8fd9                	or	a5,a5,a4
   13b6a:	00f41923          	sh	a5,18(s0)
   13b6e:	b1c5                	j	1384e <ediv+0x92>

0000000000013b70 <e113toe.isra.8>:
   13b70:	7179                	addi	sp,sp,-48
   13b72:	f022                	sd	s0,32(sp)
   13b74:	f406                	sd	ra,40(sp)
   13b76:	842e                	mv	s0,a1
   13b78:	878a                	mv	a5,sp
   13b7a:	01a10713          	addi	a4,sp,26
   13b7e:	0789                	addi	a5,a5,2
   13b80:	fe079f23          	sh	zero,-2(a5)
   13b84:	fee79de3          	bne	a5,a4,13b7e <e113toe.isra.8+0xe>
   13b88:	00e55603          	lhu	a2,14(a0)
   13b8c:	0106179b          	slliw	a5,a2,0x10
   13b90:	4107d79b          	sraiw	a5,a5,0x10
   13b94:	02079713          	slli	a4,a5,0x20
   13b98:	04074a63          	bltz	a4,13bec <e113toe.isra.8+0x7c>
   13b9c:	67a1                	lui	a5,0x8
   13b9e:	17fd                	addi	a5,a5,-1
   13ba0:	00011023          	sh	zero,0(sp)
   13ba4:	8e7d                	and	a2,a2,a5
   13ba6:	04f60b63          	beq	a2,a5,13bfc <e113toe.isra.8+0x8c>
   13baa:	00e50793          	addi	a5,a0,14
   13bae:	00c11123          	sh	a2,2(sp)
   13bb2:	00610713          	addi	a4,sp,6
   13bb6:	17f9                	addi	a5,a5,-2
   13bb8:	0007d683          	lhu	a3,0(a5) # 8000 <register_fini-0x80b0>
   13bbc:	0709                	addi	a4,a4,2
   13bbe:	fed71f23          	sh	a3,-2(a4) # 7ffe <register_fini-0x80b2>
   13bc2:	fef51ae3          	bne	a0,a5,13bb6 <e113toe.isra.8+0x46>
   13bc6:	ea19                	bnez	a2,13bdc <e113toe.isra.8+0x6c>
   13bc8:	00011223          	sh	zero,4(sp)
   13bcc:	85a2                	mv	a1,s0
   13bce:	850a                	mv	a0,sp
   13bd0:	867ff0ef          	jal	ra,13436 <emovo.isra.6>
   13bd4:	70a2                	ld	ra,40(sp)
   13bd6:	7402                	ld	s0,32(sp)
   13bd8:	6145                	addi	sp,sp,48
   13bda:	8082                	ret
   13bdc:	4785                	li	a5,1
   13bde:	55fd                	li	a1,-1
   13be0:	850a                	mv	a0,sp
   13be2:	00f11223          	sh	a5,4(sp)
   13be6:	a04ff0ef          	jal	ra,12dea <eshift.part.3>
   13bea:	b7cd                	j	13bcc <e113toe.isra.8+0x5c>
   13bec:	57fd                	li	a5,-1
   13bee:	00f11023          	sh	a5,0(sp)
   13bf2:	67a1                	lui	a5,0x8
   13bf4:	17fd                	addi	a5,a5,-1
   13bf6:	8e7d                	and	a2,a2,a5
   13bf8:	faf619e3          	bne	a2,a5,13baa <e113toe.isra.8+0x3a>
   13bfc:	87aa                	mv	a5,a0
   13bfe:	00e50693          	addi	a3,a0,14
   13c02:	0007d703          	lhu	a4,0(a5) # 8000 <register_fini-0x80b0>
   13c06:	0789                	addi	a5,a5,2
   13c08:	e331                	bnez	a4,13c4c <e113toe.isra.8+0xdc>
   13c0a:	fef69ce3          	bne	a3,a5,13c02 <e113toe.isra.8+0x92>
   13c0e:	01440713          	addi	a4,s0,20
   13c12:	87a2                	mv	a5,s0
   13c14:	0789                	addi	a5,a5,2
   13c16:	fe079f23          	sh	zero,-2(a5)
   13c1a:	fee79de3          	bne	a5,a4,13c14 <e113toe.isra.8+0xa4>
   13c1e:	01240713          	addi	a4,s0,18
   13c22:	87a2                	mv	a5,s0
   13c24:	0789                	addi	a5,a5,2
   13c26:	fe079f23          	sh	zero,-2(a5)
   13c2a:	fee79de3          	bne	a5,a4,13c24 <e113toe.isra.8+0xb4>
   13c2e:	01245783          	lhu	a5,18(s0)
   13c32:	6721                	lui	a4,0x8
   13c34:	177d                	addi	a4,a4,-1
   13c36:	8fd9                	or	a5,a5,a4
   13c38:	00f41923          	sh	a5,18(s0)
   13c3c:	00e51783          	lh	a5,14(a0)
   13c40:	f807dae3          	bgez	a5,13bd4 <e113toe.isra.8+0x64>
   13c44:	8522                	mv	a0,s0
   13c46:	fc5fe0ef          	jal	ra,12c0a <eneg>
   13c4a:	b769                	j	13bd4 <e113toe.isra.8+0x64>
   13c4c:	01040713          	addi	a4,s0,16
   13c50:	87a2                	mv	a5,s0
   13c52:	0789                	addi	a5,a5,2
   13c54:	fe079f23          	sh	zero,-2(a5)
   13c58:	fee79de3          	bne	a5,a4,13c52 <e113toe.isra.8+0xe2>
   13c5c:	7fffc7b7          	lui	a5,0x7fffc
   13c60:	c81c                	sw	a5,16(s0)
   13c62:	bf8d                	j	13bd4 <e113toe.isra.8+0x64>

0000000000013c64 <_ldtoa_r>:
   13c64:	09100313          	li	t1,145
   13c68:	1302                	slli	t1,t1,0x20
   13c6a:	06053e03          	ld	t3,96(a0)
   13c6e:	da010113          	addi	sp,sp,-608
   13c72:	137d                	addi	t1,t1,-1
   13c74:	24813823          	sd	s0,592(sp)
   13c78:	23613023          	sd	s6,544(sp)
   13c7c:	21713c23          	sd	s7,536(sp)
   13c80:	24113c23          	sd	ra,600(sp)
   13c84:	24913423          	sd	s1,584(sp)
   13c88:	25213023          	sd	s2,576(sp)
   13c8c:	23313c23          	sd	s3,568(sp)
   13c90:	23413823          	sd	s4,560(sp)
   13c94:	23513423          	sd	s5,552(sp)
   13c98:	21813823          	sd	s8,528(sp)
   13c9c:	21913423          	sd	s9,520(sp)
   13ca0:	21a13023          	sd	s10,512(sp)
   13ca4:	ffee                	sd	s11,504(sp)
   13ca6:	e8ae                	sd	a1,80(sp)
   13ca8:	ecb2                	sd	a2,88(sp)
   13caa:	f31a                	sd	t1,416(sp)
   13cac:	e83a                	sd	a4,16(sp)
   13cae:	ec3e                	sd	a5,24(sp)
   13cb0:	f846                	sd	a7,48(sp)
   13cb2:	8b2a                	mv	s6,a0
   13cb4:	8bb6                	mv	s7,a3
   13cb6:	8442                	mv	s0,a6
   13cb8:	000e0f63          	beqz	t3,13cd6 <_ldtoa_r+0x72>
   13cbc:	5538                	lw	a4,104(a0)
   13cbe:	4785                	li	a5,1
   13cc0:	85f2                	mv	a1,t3
   13cc2:	00e797bb          	sllw	a5,a5,a4
   13cc6:	00ee2423          	sw	a4,8(t3) # 10008 <register_fini-0xa8>
   13cca:	00fe2623          	sw	a5,12(t3)
   13cce:	011010ef          	jal	ra,154de <_Bfree>
   13cd2:	060b3023          	sd	zero,96(s6)
   13cd6:	010c                	addi	a1,sp,128
   13cd8:	0888                	addi	a0,sp,80
   13cda:	e97ff0ef          	jal	ra,13b70 <e113toe.isra.8>
   13cde:	0108                	addi	a0,sp,128
   13ce0:	f5bfe0ef          	jal	ra,12c3a <eisneg>
   13ce4:	00a03533          	snez	a0,a0
   13ce8:	c008                	sw	a0,0(s0)
   13cea:	478d                	li	a5,3
   13cec:	7afb8863          	beq	s7,a5,1449c <_ldtoa_r+0x838>
   13cf0:	47d1                	li	a5,20
   13cf2:	e43e                	sd	a5,8(sp)
   13cf4:	300b99e3          	bnez	s7,14806 <_ldtoa_r+0xba2>
   13cf8:	09215783          	lhu	a5,146(sp)
   13cfc:	1a412703          	lw	a4,420(sp)
   13d00:	fff7c793          	not	a5,a5
   13d04:	f43a                	sd	a4,40(sp)
   13d06:	03179713          	slli	a4,a5,0x31
   13d0a:	e711                	bnez	a4,13d16 <_ldtoa_r+0xb2>
   13d0c:	0108                	addi	a0,sp,128
   13d0e:	ee5fe0ef          	jal	ra,12bf2 <eisnan.part.0>
   13d12:	1a0514e3          	bnez	a0,146ba <_ldtoa_r+0xa56>
   13d16:	09000793          	li	a5,144
   13d1a:	1af12223          	sw	a5,420(sp)
   13d1e:	1118                	addi	a4,sp,160
   13d20:	011c                	addi	a5,sp,128
   13d22:	0950                	addi	a2,sp,148
   13d24:	0789                	addi	a5,a5,2
   13d26:	ffe7d683          	lhu	a3,-2(a5) # 7fffbffe <__BSS_END__+0x7ffdd05e>
   13d2a:	0709                	addi	a4,a4,2
   13d2c:	fed71f23          	sh	a3,-2(a4) # 7ffe <register_fini-0x80b2>
   13d30:	fec79ae3          	bne	a5,a2,13d24 <_ldtoa_r+0xc0>
   13d34:	0b215603          	lhu	a2,178(sp)
   13d38:	f002                	sd	zero,32(sp)
   13d3a:	0106179b          	slliw	a5,a2,0x10
   13d3e:	4107d79b          	sraiw	a5,a5,0x10
   13d42:	02079713          	slli	a4,a5,0x20
   13d46:	00075963          	bgez	a4,13d58 <_ldtoa_r+0xf4>
   13d4a:	1646                	slli	a2,a2,0x31
   13d4c:	67c1                	lui	a5,0x10
   13d4e:	9245                	srli	a2,a2,0x31
   13d50:	17fd                	addi	a5,a5,-1
   13d52:	0ac11923          	sh	a2,178(sp)
   13d56:	f03e                	sd	a5,32(sp)
   13d58:	4681                	li	a3,0
   13d5a:	019c                	addi	a5,sp,192
   13d5c:	00008717          	auipc	a4,0x8
   13d60:	57c70713          	addi	a4,a4,1404 # 1c2d8 <eone>
   13d64:	0d410d93          	addi	s11,sp,212
   13d68:	a019                	j	13d6e <_ldtoa_r+0x10a>
   13d6a:	00075683          	lhu	a3,0(a4)
   13d6e:	0789                	addi	a5,a5,2
   13d70:	fed79f23          	sh	a3,-2(a5) # fffe <register_fini-0xb2>
   13d74:	0709                	addi	a4,a4,2
   13d76:	ffb79ae3          	bne	a5,s11,13d6a <_ldtoa_r+0x106>
   13d7a:	10060e63          	beqz	a2,13e96 <_ldtoa_r+0x232>
   13d7e:	67a1                	lui	a5,0x8
   13d80:	17fd                	addi	a5,a5,-1
   13d82:	2af604e3          	beq	a2,a5,1482a <_ldtoa_r+0xbc6>
   13d86:	0b011783          	lh	a5,176(sp)
   13d8a:	3007dce3          	bgez	a5,148a2 <_ldtoa_r+0xc3e>
   13d8e:	110c                	addi	a1,sp,160
   13d90:	00008517          	auipc	a0,0x8
   13d94:	54850513          	addi	a0,a0,1352 # 1c2d8 <eone>
   13d98:	f79fe0ef          	jal	ra,12d10 <ecmp>
   13d9c:	10050763          	beqz	a0,13eaa <_ldtoa_r+0x246>
   13da0:	72054163          	bltz	a0,144c2 <_ldtoa_r+0x85e>
   13da4:	0b215783          	lhu	a5,178(sp)
   13da8:	36079de3          	bnez	a5,14922 <_ldtoa_r+0xcbe>
   13dac:	0b011783          	lh	a5,176(sp)
   13db0:	4481                	li	s1,0
   13db2:	1a010993          	addi	s3,sp,416
   13db6:	0207c163          	bltz	a5,13dd8 <_ldtoa_r+0x174>
   13dba:	00008417          	auipc	s0,0x8
   13dbe:	62640413          	addi	s0,s0,1574 # 1c3e0 <etens+0xf0>
   13dc2:	1110                	addi	a2,sp,160
   13dc4:	86ce                	mv	a3,s3
   13dc6:	85b2                	mv	a1,a2
   13dc8:	8522                	mv	a0,s0
   13dca:	eeeff0ef          	jal	ra,134b8 <emul>
   13dce:	0b011783          	lh	a5,176(sp)
   13dd2:	34fd                	addiw	s1,s1,-1
   13dd4:	fe07d7e3          	bgez	a5,13dc2 <_ldtoa_r+0x15e>
   13dd8:	0200                	addi	s0,sp,256
   13dda:	11810a13          	addi	s4,sp,280
   13dde:	8722                	mv	a4,s0
   13de0:	111c                	addi	a5,sp,160
   13de2:	1950                	addi	a2,sp,180
   13de4:	0789                	addi	a5,a5,2
   13de6:	ffe7d683          	lhu	a3,-2(a5) # 7ffe <register_fini-0x80b2>
   13dea:	0709                	addi	a4,a4,2
   13dec:	fed71f23          	sh	a3,-2(a4)
   13df0:	fec79ae3          	bne	a5,a2,13de4 <_ldtoa_r+0x180>
   13df4:	4681                	li	a3,0
   13df6:	019c                	addi	a5,sp,192
   13df8:	00008717          	auipc	a4,0x8
   13dfc:	4e070713          	addi	a4,a4,1248 # 1c2d8 <eone>
   13e00:	a019                	j	13e06 <_ldtoa_r+0x1a2>
   13e02:	00075683          	lhu	a3,0(a4)
   13e06:	0789                	addi	a5,a5,2
   13e08:	fed79f23          	sh	a3,-2(a5)
   13e0c:	0709                	addi	a4,a4,2
   13e0e:	ffb79ae3          	bne	a5,s11,13e02 <_ldtoa_r+0x19e>
   13e12:	7afd                	lui	s5,0xfffff
   13e14:	00008917          	auipc	s2,0x8
   13e18:	4dc90913          	addi	s2,s2,1244 # 1c2f0 <etens>
   13e1c:	00008d97          	auipc	s11,0x8
   13e20:	5dcd8d93          	addi	s11,s11,1500 # 1c3f8 <emtens>
   13e24:	00008c97          	auipc	s9,0x8
   13e28:	4b4c8c93          	addi	s9,s9,1204 # 1c2d8 <eone>
   13e2c:	00008c17          	auipc	s8,0x8
   13e30:	5b4c0c13          	addi	s8,s8,1460 # 1c3e0 <etens+0xf0>
   13e34:	a019                	j	13e3a <_ldtoa_r+0x1d6>
   13e36:	0dd1                	addi	s11,s11,20
   13e38:	0951                	addi	s2,s2,20
   13e3a:	85a2                	mv	a1,s0
   13e3c:	8566                	mv	a0,s9
   13e3e:	ed3fe0ef          	jal	ra,12d10 <ecmp>
   13e42:	85a2                	mv	a1,s0
   13e44:	02a05d63          	blez	a0,13e7e <_ldtoa_r+0x21a>
   13e48:	856e                	mv	a0,s11
   13e4a:	ec7fe0ef          	jal	ra,12d10 <ecmp>
   13e4e:	86ce                	mv	a3,s3
   13e50:	8622                	mv	a2,s0
   13e52:	85a2                	mv	a1,s0
   13e54:	00054d63          	bltz	a0,13e6e <_ldtoa_r+0x20a>
   13e58:	854a                	mv	a0,s2
   13e5a:	e5eff0ef          	jal	ra,134b8 <emul>
   13e5e:	0190                	addi	a2,sp,192
   13e60:	86ce                	mv	a3,s3
   13e62:	85b2                	mv	a1,a2
   13e64:	854a                	mv	a0,s2
   13e66:	e52ff0ef          	jal	ra,134b8 <emul>
   13e6a:	009a84bb          	addw	s1,s5,s1
   13e6e:	01fad79b          	srliw	a5,s5,0x1f
   13e72:	01578abb          	addw	s5,a5,s5
   13e76:	401ada9b          	sraiw	s5,s5,0x1
   13e7a:	fb891ee3          	bne	s2,s8,13e36 <_ldtoa_r+0x1d2>
   13e7e:	0190                	addi	a2,sp,192
   13e80:	86ce                	mv	a3,s3
   13e82:	00008597          	auipc	a1,0x8
   13e86:	45658593          	addi	a1,a1,1110 # 1c2d8 <eone>
   13e8a:	8532                	mv	a0,a2
   13e8c:	931ff0ef          	jal	ra,137bc <ediv>
   13e90:	16010913          	addi	s2,sp,352
   13e94:	a01d                	j	13eba <_ldtoa_r+0x256>
   13e96:	111c                	addi	a5,sp,160
   13e98:	0b210693          	addi	a3,sp,178
   13e9c:	0007d703          	lhu	a4,0(a5)
   13ea0:	0789                	addi	a5,a5,2
   13ea2:	ee0716e3          	bnez	a4,13d8e <_ldtoa_r+0x12a>
   13ea6:	fef69be3          	bne	a3,a5,13e9c <_ldtoa_r+0x238>
   13eaa:	4481                	li	s1,0
   13eac:	16010913          	addi	s2,sp,352
   13eb0:	1a010993          	addi	s3,sp,416
   13eb4:	0200                	addi	s0,sp,256
   13eb6:	11810a13          	addi	s4,sp,280
   13eba:	85a2                	mv	a1,s0
   13ebc:	0188                	addi	a0,sp,192
   13ebe:	da7fe0ef          	jal	ra,12c64 <emovi>
   13ec2:	0198                	addi	a4,sp,192
   13ec4:	87a2                	mv	a5,s0
   13ec6:	0789                	addi	a5,a5,2
   13ec8:	ffe7d683          	lhu	a3,-2(a5)
   13ecc:	0709                	addi	a4,a4,2
   13ece:	fed71f23          	sh	a3,-2(a4)
   13ed2:	ff479ae3          	bne	a5,s4,13ec6 <_ldtoa_r+0x262>
   13ed6:	85a2                	mv	a1,s0
   13ed8:	1108                	addi	a0,sp,160
   13eda:	0c011c23          	sh	zero,216(sp)
   13ede:	d87fe0ef          	jal	ra,12c64 <emovi>
   13ee2:	111c                	addi	a5,sp,160
   13ee4:	0409                	addi	s0,s0,2
   13ee6:	ffe45703          	lhu	a4,-2(s0)
   13eea:	0789                	addi	a5,a5,2
   13eec:	fee79f23          	sh	a4,-2(a5)
   13ef0:	ff441ae3          	bne	s0,s4,13ee4 <_ldtoa_r+0x280>
   13ef4:	864e                	mv	a2,s3
   13ef6:	110c                	addi	a1,sp,160
   13ef8:	0188                	addi	a0,sp,192
   13efa:	0a011c23          	sh	zero,184(sp)
   13efe:	c46ff0ef          	jal	ra,13344 <eiremain>
   13f02:	1ec15d83          	lhu	s11,492(sp)
   13f06:	160d9963          	bnez	s11,14078 <_ldtoa_r+0x414>
   13f0a:	00008a97          	auipc	s5,0x8
   13f0e:	3b6a8a93          	addi	s5,s5,950 # 1c2c0 <ezero>
   13f12:	0b810c13          	addi	s8,sp,184
   13f16:	0a210413          	addi	s0,sp,162
   13f1a:	0e210a13          	addi	s4,sp,226
   13f1e:	85d6                	mv	a1,s5
   13f20:	1108                	addi	a0,sp,160
   13f22:	deffe0ef          	jal	ra,12d10 <ecmp>
   13f26:	14050963          	beqz	a0,14078 <_ldtoa_r+0x414>
   13f2a:	4601                	li	a2,0
   13f2c:	85e2                	mv	a1,s8
   13f2e:	a811                	j	13f42 <_ldtoa_r+0x2de>
   13f30:	0016161b          	slliw	a2,a2,0x1
   13f34:	00f59023          	sh	a5,0(a1)
   13f38:	1642                	slli	a2,a2,0x30
   13f3a:	15f9                	addi	a1,a1,-2
   13f3c:	9241                	srli	a2,a2,0x30
   13f3e:	04858063          	beq	a1,s0,13f7e <_ldtoa_r+0x31a>
   13f42:	0005d783          	lhu	a5,0(a1)
   13f46:	0107951b          	slliw	a0,a5,0x10
   13f4a:	4105551b          	sraiw	a0,a0,0x10
   13f4e:	02051713          	slli	a4,a0,0x20
   13f52:	0017979b          	slliw	a5,a5,0x1
   13f56:	00075463          	bgez	a4,13f5e <_ldtoa_r+0x2fa>
   13f5a:	00166613          	ori	a2,a2,1
   13f5e:	17c2                	slli	a5,a5,0x30
   13f60:	93c1                	srli	a5,a5,0x30
   13f62:	00267513          	andi	a0,a2,2
   13f66:	0017e813          	ori	a6,a5,1
   13f6a:	d179                	beqz	a0,13f30 <_ldtoa_r+0x2cc>
   13f6c:	0016161b          	slliw	a2,a2,0x1
   13f70:	01059023          	sh	a6,0(a1)
   13f74:	1642                	slli	a2,a2,0x30
   13f76:	15f9                	addi	a1,a1,-2
   13f78:	9241                	srli	a2,a2,0x30
   13f7a:	fc8594e3          	bne	a1,s0,13f42 <_ldtoa_r+0x2de>
   13f7e:	1190                	addi	a2,sp,224
   13f80:	111c                	addi	a5,sp,160
   13f82:	0789                	addi	a5,a5,2
   13f84:	ffe7d583          	lhu	a1,-2(a5)
   13f88:	0609                	addi	a2,a2,2
   13f8a:	feb61f23          	sh	a1,-2(a2) # 7ffe <register_fini-0x80b2>
   13f8e:	ff879ae3          	bne	a5,s8,13f82 <_ldtoa_r+0x31e>
   13f92:	0e011c23          	sh	zero,248(sp)
   13f96:	4601                	li	a2,0
   13f98:	19ac                	addi	a1,sp,248
   13f9a:	a811                	j	13fae <_ldtoa_r+0x34a>
   13f9c:	0016161b          	slliw	a2,a2,0x1
   13fa0:	00f59023          	sh	a5,0(a1)
   13fa4:	1642                	slli	a2,a2,0x30
   13fa6:	15f9                	addi	a1,a1,-2
   13fa8:	9241                	srli	a2,a2,0x30
   13faa:	05458063          	beq	a1,s4,13fea <_ldtoa_r+0x386>
   13fae:	0005d783          	lhu	a5,0(a1)
   13fb2:	0107951b          	slliw	a0,a5,0x10
   13fb6:	4105551b          	sraiw	a0,a0,0x10
   13fba:	02051713          	slli	a4,a0,0x20
   13fbe:	0017979b          	slliw	a5,a5,0x1
   13fc2:	00075463          	bgez	a4,13fca <_ldtoa_r+0x366>
   13fc6:	00166613          	ori	a2,a2,1
   13fca:	17c2                	slli	a5,a5,0x30
   13fcc:	93c1                	srli	a5,a5,0x30
   13fce:	00267513          	andi	a0,a2,2
   13fd2:	0017e813          	ori	a6,a5,1
   13fd6:	d179                	beqz	a0,13f9c <_ldtoa_r+0x338>
   13fd8:	0016161b          	slliw	a2,a2,0x1
   13fdc:	01059023          	sh	a6,0(a1)
   13fe0:	1642                	slli	a2,a2,0x30
   13fe2:	15f9                	addi	a1,a1,-2
   13fe4:	9241                	srli	a2,a2,0x30
   13fe6:	fd4594e3          	bne	a1,s4,13fae <_ldtoa_r+0x34a>
   13fea:	4601                	li	a2,0
   13fec:	19ac                	addi	a1,sp,248
   13fee:	a811                	j	14002 <_ldtoa_r+0x39e>
   13ff0:	0016161b          	slliw	a2,a2,0x1
   13ff4:	00f59023          	sh	a5,0(a1)
   13ff8:	1642                	slli	a2,a2,0x30
   13ffa:	15f9                	addi	a1,a1,-2
   13ffc:	9241                	srli	a2,a2,0x30
   13ffe:	05458063          	beq	a1,s4,1403e <_ldtoa_r+0x3da>
   14002:	0005d783          	lhu	a5,0(a1)
   14006:	0107951b          	slliw	a0,a5,0x10
   1400a:	4105551b          	sraiw	a0,a0,0x10
   1400e:	02051713          	slli	a4,a0,0x20
   14012:	0017979b          	slliw	a5,a5,0x1
   14016:	00075463          	bgez	a4,1401e <_ldtoa_r+0x3ba>
   1401a:	00166613          	ori	a2,a2,1
   1401e:	17c2                	slli	a5,a5,0x30
   14020:	93c1                	srli	a5,a5,0x30
   14022:	00267513          	andi	a0,a2,2
   14026:	0017e813          	ori	a6,a5,1
   1402a:	d179                	beqz	a0,13ff0 <_ldtoa_r+0x38c>
   1402c:	0016161b          	slliw	a2,a2,0x1
   14030:	01059023          	sh	a6,0(a1)
   14034:	1642                	slli	a2,a2,0x30
   14036:	15f9                	addi	a1,a1,-2
   14038:	9241                	srli	a2,a2,0x30
   1403a:	fd4594e3          	bne	a1,s4,14002 <_ldtoa_r+0x39e>
   1403e:	4501                	li	a0,0
   14040:	85e2                	mv	a1,s8
   14042:	19b0                	addi	a2,sp,248
   14044:	0005d803          	lhu	a6,0(a1)
   14048:	00065783          	lhu	a5,0(a2)
   1404c:	15f9                	addi	a1,a1,-2
   1404e:	1679                	addi	a2,a2,-2
   14050:	97c2                	add	a5,a5,a6
   14052:	97aa                	add	a5,a5,a0
   14054:	00f59123          	sh	a5,2(a1)
   14058:	83c1                	srli	a5,a5,0x10
   1405a:	0017f513          	andi	a0,a5,1
   1405e:	ff4613e3          	bne	a2,s4,14044 <_ldtoa_r+0x3e0>
   14062:	864e                	mv	a2,s3
   14064:	110c                	addi	a1,sp,160
   14066:	0188                	addi	a0,sp,192
   14068:	adcff0ef          	jal	ra,13344 <eiremain>
   1406c:	1ec15783          	lhu	a5,492(sp)
   14070:	34fd                	addiw	s1,s1,-1
   14072:	ea0786e3          	beqz	a5,13f1e <_ldtoa_r+0x2ba>
   14076:	8dbe                	mv	s11,a5
   14078:	7702                	ld	a4,32(sp)
   1407a:	02d00793          	li	a5,45
   1407e:	e319                	bnez	a4,14084 <_ldtoa_r+0x420>
   14080:	02000793          	li	a5,32
   14084:	16f10023          	sb	a5,352(sp)
   14088:	478d                	li	a5,3
   1408a:	6422                	ld	s0,8(sp)
   1408c:	02fb8263          	beq	s7,a5,140b0 <_ldtoa_r+0x44c>
   14090:	47a9                	li	a5,10
   14092:	7cfd8d63          	beq	s11,a5,1486c <_ldtoa_r+0xc08>
   14096:	030d8d9b          	addiw	s11,s11,48
   1409a:	02e00793          	li	a5,46
   1409e:	17b100a3          	sb	s11,353(sp)
   140a2:	16f10123          	sb	a5,354(sp)
   140a6:	60044363          	bltz	s0,146ac <_ldtoa_r+0xa48>
   140aa:	16310d93          	addi	s11,sp,355
   140ae:	a02d                	j	140d8 <_ldtoa_r+0x474>
   140b0:	9c25                	addw	s0,s0,s1
   140b2:	02a00793          	li	a5,42
   140b6:	fc87dde3          	bge	a5,s0,14090 <_ldtoa_r+0x42c>
   140ba:	47a9                	li	a5,10
   140bc:	78fd8663          	beq	s11,a5,14848 <_ldtoa_r+0xbe4>
   140c0:	030d8d9b          	addiw	s11,s11,48
   140c4:	02e00793          	li	a5,46
   140c8:	17b100a3          	sb	s11,353(sp)
   140cc:	16f10123          	sb	a5,354(sp)
   140d0:	02a00413          	li	s0,42
   140d4:	16310d93          	addi	s11,sp,355
   140d8:	4c01                	li	s8,0
   140da:	0e010a93          	addi	s5,sp,224
   140de:	0b810a13          	addi	s4,sp,184
   140e2:	0a210c93          	addi	s9,sp,162
   140e6:	0e210d13          	addi	s10,sp,226
   140ea:	4601                	li	a2,0
   140ec:	85d2                	mv	a1,s4
   140ee:	a811                	j	14102 <_ldtoa_r+0x49e>
   140f0:	0016161b          	slliw	a2,a2,0x1
   140f4:	00f59023          	sh	a5,0(a1)
   140f8:	1642                	slli	a2,a2,0x30
   140fa:	15f9                	addi	a1,a1,-2
   140fc:	9241                	srli	a2,a2,0x30
   140fe:	05958063          	beq	a1,s9,1413e <_ldtoa_r+0x4da>
   14102:	0005d783          	lhu	a5,0(a1)
   14106:	0107951b          	slliw	a0,a5,0x10
   1410a:	4105551b          	sraiw	a0,a0,0x10
   1410e:	02051713          	slli	a4,a0,0x20
   14112:	0017979b          	slliw	a5,a5,0x1
   14116:	00075463          	bgez	a4,1411e <_ldtoa_r+0x4ba>
   1411a:	00166613          	ori	a2,a2,1
   1411e:	17c2                	slli	a5,a5,0x30
   14120:	93c1                	srli	a5,a5,0x30
   14122:	00267513          	andi	a0,a2,2
   14126:	0017e313          	ori	t1,a5,1
   1412a:	d179                	beqz	a0,140f0 <_ldtoa_r+0x48c>
   1412c:	0016161b          	slliw	a2,a2,0x1
   14130:	00659023          	sh	t1,0(a1)
   14134:	1642                	slli	a2,a2,0x30
   14136:	15f9                	addi	a1,a1,-2
   14138:	9241                	srli	a2,a2,0x30
   1413a:	fd9594e3          	bne	a1,s9,14102 <_ldtoa_r+0x49e>
   1413e:	8656                	mv	a2,s5
   14140:	111c                	addi	a5,sp,160
   14142:	0789                	addi	a5,a5,2
   14144:	ffe7d583          	lhu	a1,-2(a5)
   14148:	0609                	addi	a2,a2,2
   1414a:	feb61f23          	sh	a1,-2(a2)
   1414e:	ff479ae3          	bne	a5,s4,14142 <_ldtoa_r+0x4de>
   14152:	0e011c23          	sh	zero,248(sp)
   14156:	4601                	li	a2,0
   14158:	19ac                	addi	a1,sp,248
   1415a:	a811                	j	1416e <_ldtoa_r+0x50a>
   1415c:	0016161b          	slliw	a2,a2,0x1
   14160:	00f59023          	sh	a5,0(a1)
   14164:	1642                	slli	a2,a2,0x30
   14166:	15f9                	addi	a1,a1,-2
   14168:	9241                	srli	a2,a2,0x30
   1416a:	05a58063          	beq	a1,s10,141aa <_ldtoa_r+0x546>
   1416e:	0005d783          	lhu	a5,0(a1)
   14172:	0107951b          	slliw	a0,a5,0x10
   14176:	4105551b          	sraiw	a0,a0,0x10
   1417a:	02051713          	slli	a4,a0,0x20
   1417e:	0017979b          	slliw	a5,a5,0x1
   14182:	00075463          	bgez	a4,1418a <_ldtoa_r+0x526>
   14186:	00166613          	ori	a2,a2,1
   1418a:	17c2                	slli	a5,a5,0x30
   1418c:	93c1                	srli	a5,a5,0x30
   1418e:	00267513          	andi	a0,a2,2
   14192:	0017e313          	ori	t1,a5,1
   14196:	d179                	beqz	a0,1415c <_ldtoa_r+0x4f8>
   14198:	0016161b          	slliw	a2,a2,0x1
   1419c:	00659023          	sh	t1,0(a1)
   141a0:	1642                	slli	a2,a2,0x30
   141a2:	15f9                	addi	a1,a1,-2
   141a4:	9241                	srli	a2,a2,0x30
   141a6:	fda594e3          	bne	a1,s10,1416e <_ldtoa_r+0x50a>
   141aa:	4601                	li	a2,0
   141ac:	19ac                	addi	a1,sp,248
   141ae:	a811                	j	141c2 <_ldtoa_r+0x55e>
   141b0:	0016161b          	slliw	a2,a2,0x1
   141b4:	00f59023          	sh	a5,0(a1)
   141b8:	1642                	slli	a2,a2,0x30
   141ba:	15f9                	addi	a1,a1,-2
   141bc:	9241                	srli	a2,a2,0x30
   141be:	05a58063          	beq	a1,s10,141fe <_ldtoa_r+0x59a>
   141c2:	0005d783          	lhu	a5,0(a1)
   141c6:	0107951b          	slliw	a0,a5,0x10
   141ca:	4105551b          	sraiw	a0,a0,0x10
   141ce:	02051713          	slli	a4,a0,0x20
   141d2:	0017979b          	slliw	a5,a5,0x1
   141d6:	00075463          	bgez	a4,141de <_ldtoa_r+0x57a>
   141da:	00166613          	ori	a2,a2,1
   141de:	17c2                	slli	a5,a5,0x30
   141e0:	93c1                	srli	a5,a5,0x30
   141e2:	00267513          	andi	a0,a2,2
   141e6:	0017e313          	ori	t1,a5,1
   141ea:	d179                	beqz	a0,141b0 <_ldtoa_r+0x54c>
   141ec:	0016161b          	slliw	a2,a2,0x1
   141f0:	00659023          	sh	t1,0(a1)
   141f4:	1642                	slli	a2,a2,0x30
   141f6:	15f9                	addi	a1,a1,-2
   141f8:	9241                	srli	a2,a2,0x30
   141fa:	fda594e3          	bne	a1,s10,141c2 <_ldtoa_r+0x55e>
   141fe:	4501                	li	a0,0
   14200:	85d2                	mv	a1,s4
   14202:	19b0                	addi	a2,sp,248
   14204:	0005d303          	lhu	t1,0(a1)
   14208:	00065783          	lhu	a5,0(a2)
   1420c:	15f9                	addi	a1,a1,-2
   1420e:	1679                	addi	a2,a2,-2
   14210:	979a                	add	a5,a5,t1
   14212:	97aa                	add	a5,a5,a0
   14214:	00f59123          	sh	a5,2(a1)
   14218:	83c1                	srli	a5,a5,0x10
   1421a:	0017f513          	andi	a0,a5,1
   1421e:	ffa613e3          	bne	a2,s10,14204 <_ldtoa_r+0x5a0>
   14222:	864e                	mv	a2,s3
   14224:	110c                	addi	a1,sp,160
   14226:	0188                	addi	a0,sp,192
   14228:	91cff0ef          	jal	ra,13344 <eiremain>
   1422c:	1ec15783          	lhu	a5,492(sp)
   14230:	018d8633          	add	a2,s11,s8
   14234:	0c05                	addi	s8,s8,1
   14236:	0307859b          	addiw	a1,a5,48
   1423a:	00b60023          	sb	a1,0(a2)
   1423e:	000c061b          	sext.w	a2,s8
   14242:	eac454e3          	bge	s0,a2,140ea <_ldtoa_r+0x486>
   14246:	00140993          	addi	s3,s0,1
   1424a:	99ee                	add	s3,s3,s11
   1424c:	9da2                	add	s11,s11,s0
   1424e:	4711                	li	a4,4
   14250:	06f75b63          	bge	a4,a5,142c6 <_ldtoa_r+0x662>
   14254:	4715                	li	a4,5
   14256:	66e78363          	beq	a5,a4,148bc <_ldtoa_r+0xc58>
   1425a:	ffe9c783          	lbu	a5,-2(s3) # fffe <register_fini-0xb2>
   1425e:	ffe98713          	addi	a4,s3,-2
   14262:	07f7f793          	andi	a5,a5,127
   14266:	0007881b          	sext.w	a6,a5
   1426a:	62044663          	bltz	s0,14896 <_ldtoa_r+0xc32>
   1426e:	02e00693          	li	a3,46
   14272:	02d78f63          	beq	a5,a3,142b0 <_ldtoa_r+0x64c>
   14276:	2785                	addiw	a5,a5,1
   14278:	00f70023          	sb	a5,0(a4)
   1427c:	03800793          	li	a5,56
   14280:	03000593          	li	a1,48
   14284:	02e00613          	li	a2,46
   14288:	03800513          	li	a0,56
   1428c:	0107c763          	blt	a5,a6,1429a <_ldtoa_r+0x636>
   14290:	a81d                	j	142c6 <_ldtoa_r+0x662>
   14292:	00d70023          	sb	a3,0(a4)
   14296:	02f57863          	bgeu	a0,a5,142c6 <_ldtoa_r+0x662>
   1429a:	00b70023          	sb	a1,0(a4)
   1429e:	177d                	addi	a4,a4,-1
   142a0:	00074783          	lbu	a5,0(a4)
   142a4:	07f7f793          	andi	a5,a5,127
   142a8:	0017869b          	addiw	a3,a5,1
   142ac:	fec793e3          	bne	a5,a2,14292 <_ldtoa_r+0x62e>
   142b0:	fff74783          	lbu	a5,-1(a4)
   142b4:	03800693          	li	a3,56
   142b8:	66f6f163          	bgeu	a3,a5,1491a <_ldtoa_r+0xcb6>
   142bc:	03100793          	li	a5,49
   142c0:	2485                	addiw	s1,s1,1
   142c2:	fef70fa3          	sb	a5,-1(a4)
   142c6:	8626                	mv	a2,s1
   142c8:	00008597          	auipc	a1,0x8
   142cc:	29058593          	addi	a1,a1,656 # 1c558 <bmask+0x58>
   142d0:	856e                	mv	a0,s11
   142d2:	5c5010ef          	jal	ra,16096 <sprintf>
   142d6:	09215783          	lhu	a5,146(sp)
   142da:	7722                	ld	a4,40(sp)
   142dc:	1a912823          	sw	s1,432(sp)
   142e0:	fff7c793          	not	a5,a5
   142e4:	1ae12223          	sw	a4,420(sp)
   142e8:	03179713          	slli	a4,a5,0x31
   142ec:	eb19                	bnez	a4,14302 <_ldtoa_r+0x69e>
   142ee:	0108                	addi	a0,sp,128
   142f0:	ae9fe0ef          	jal	ra,12dd8 <eisinf.part.1>
   142f4:	1c051163          	bnez	a0,144b6 <_ldtoa_r+0x852>
   142f8:	0108                	addi	a0,sp,128
   142fa:	8f9fe0ef          	jal	ra,12bf2 <eisnan.part.0>
   142fe:	1a051c63          	bnez	a0,144b6 <_ldtoa_r+0x852>
   14302:	66e2                	ld	a3,24(sp)
   14304:	16014783          	lbu	a5,352(sp)
   14308:	0014871b          	addiw	a4,s1,1
   1430c:	c298                	sw	a4,0(a3)
   1430e:	6e078363          	beqz	a5,149f4 <_ldtoa_r+0xd90>
   14312:	02e00713          	li	a4,46
   14316:	04e78763          	beq	a5,a4,14364 <_ldtoa_r+0x700>
   1431a:	87ca                	mv	a5,s2
   1431c:	02e00693          	li	a3,46
   14320:	a019                	j	14326 <_ldtoa_r+0x6c2>
   14322:	04d70263          	beq	a4,a3,14366 <_ldtoa_r+0x702>
   14326:	0785                	addi	a5,a5,1
   14328:	0007c703          	lbu	a4,0(a5)
   1432c:	fb7d                	bnez	a4,14322 <_ldtoa_r+0x6be>
   1432e:	04500693          	li	a3,69
   14332:	00f96563          	bltu	s2,a5,1433c <_ldtoa_r+0x6d8>
   14336:	a801                	j	14346 <_ldtoa_r+0x6e2>
   14338:	01278763          	beq	a5,s2,14346 <_ldtoa_r+0x6e2>
   1433c:	17fd                	addi	a5,a5,-1
   1433e:	0007c703          	lbu	a4,0(a5)
   14342:	fed71be3          	bne	a4,a3,14338 <_ldtoa_r+0x6d4>
   14346:	00078023          	sb	zero,0(a5)
   1434a:	87ca                	mv	a5,s2
   1434c:	02000693          	li	a3,32
   14350:	02d00613          	li	a2,45
   14354:	0007c703          	lbu	a4,0(a5)
   14358:	00d70463          	beq	a4,a3,14360 <_ldtoa_r+0x6fc>
   1435c:	02c71263          	bne	a4,a2,14380 <_ldtoa_r+0x71c>
   14360:	0785                	addi	a5,a5,1
   14362:	bfcd                	j	14354 <_ldtoa_r+0x6f0>
   14364:	87ca                	mv	a5,s2
   14366:	0017c703          	lbu	a4,1(a5)
   1436a:	0785                	addi	a5,a5,1
   1436c:	fee78fa3          	sb	a4,-1(a5)
   14370:	df5d                	beqz	a4,1432e <_ldtoa_r+0x6ca>
   14372:	0017c703          	lbu	a4,1(a5)
   14376:	0785                	addi	a5,a5,1
   14378:	fee78fa3          	sb	a4,-1(a5)
   1437c:	f76d                	bnez	a4,14366 <_ldtoa_r+0x702>
   1437e:	bf45                	j	1432e <_ldtoa_r+0x6ca>
   14380:	844a                	mv	s0,s2
   14382:	a021                	j	1438a <_ldtoa_r+0x726>
   14384:	0007c703          	lbu	a4,0(a5)
   14388:	8436                	mv	s0,a3
   1438a:	00e40023          	sb	a4,0(s0)
   1438e:	00140693          	addi	a3,s0,1
   14392:	0785                	addi	a5,a5,1
   14394:	fb65                	bnez	a4,14384 <_ldtoa_r+0x720>
   14396:	4789                	li	a5,2
   14398:	fff44703          	lbu	a4,-1(s0)
   1439c:	0efb8663          	beq	s7,a5,14488 <_ldtoa_r+0x824>
   143a0:	67a2                	ld	a5,8(sp)
   143a2:	0007869b          	sext.w	a3,a5
   143a6:	0097d463          	bge	a5,s1,143ae <_ldtoa_r+0x74a>
   143aa:	0004869b          	sext.w	a3,s1
   143ae:	03000793          	li	a5,48
   143b2:	02f71463          	bne	a4,a5,143da <_ldtoa_r+0x776>
   143b6:	412407b3          	sub	a5,s0,s2
   143ba:	02f6d063          	bge	a3,a5,143da <_ldtoa_r+0x776>
   143be:	03000613          	li	a2,48
   143c2:	a019                	j	143c8 <_ldtoa_r+0x764>
   143c4:	00e6db63          	bge	a3,a4,143da <_ldtoa_r+0x776>
   143c8:	147d                	addi	s0,s0,-1
   143ca:	fff44783          	lbu	a5,-1(s0)
   143ce:	00040023          	sb	zero,0(s0)
   143d2:	41240733          	sub	a4,s0,s2
   143d6:	fec787e3          	beq	a5,a2,143c4 <_ldtoa_r+0x760>
   143da:	478d                	li	a5,3
   143dc:	08fb8363          	beq	s7,a5,14462 <_ldtoa_r+0x7fe>
   143e0:	67c2                	ld	a5,16(sp)
   143e2:	060b2423          	sw	zero,104(s6)
   143e6:	00978a1b          	addiw	s4,a5,9
   143ea:	47fd                	li	a5,31
   143ec:	0947fc63          	bgeu	a5,s4,14484 <_ldtoa_r+0x820>
   143f0:	4705                	li	a4,1
   143f2:	4791                	li	a5,4
   143f4:	0017979b          	slliw	a5,a5,0x1
   143f8:	01c78693          	addi	a3,a5,28
   143fc:	0007059b          	sext.w	a1,a4
   14400:	2705                	addiw	a4,a4,1
   14402:	feda79e3          	bgeu	s4,a3,143f4 <_ldtoa_r+0x790>
   14406:	06bb2423          	sw	a1,104(s6)
   1440a:	855a                	mv	a0,s6
   1440c:	06e010ef          	jal	ra,1547a <_Balloc>
   14410:	06ab3023          	sd	a0,96(s6)
   14414:	85ca                	mv	a1,s2
   14416:	84aa                	mv	s1,a0
   14418:	68f010ef          	jal	ra,162a6 <strcpy>
   1441c:	77c2                	ld	a5,48(sp)
   1441e:	c789                	beqz	a5,14428 <_ldtoa_r+0x7c4>
   14420:	41240433          	sub	s0,s0,s2
   14424:	9426                	add	s0,s0,s1
   14426:	e380                	sd	s0,0(a5)
   14428:	25813083          	ld	ra,600(sp)
   1442c:	25013403          	ld	s0,592(sp)
   14430:	8526                	mv	a0,s1
   14432:	24013903          	ld	s2,576(sp)
   14436:	24813483          	ld	s1,584(sp)
   1443a:	23813983          	ld	s3,568(sp)
   1443e:	23013a03          	ld	s4,560(sp)
   14442:	22813a83          	ld	s5,552(sp)
   14446:	22013b03          	ld	s6,544(sp)
   1444a:	21813b83          	ld	s7,536(sp)
   1444e:	21013c03          	ld	s8,528(sp)
   14452:	20813c83          	ld	s9,520(sp)
   14456:	20013d03          	ld	s10,512(sp)
   1445a:	7dfe                	ld	s11,504(sp)
   1445c:	26010113          	addi	sp,sp,608
   14460:	8082                	ret
   14462:	67a2                	ld	a5,8(sp)
   14464:	9cbd                	addw	s1,s1,a5
   14466:	3a04c363          	bltz	s1,1480c <_ldtoa_r+0xba8>
   1446a:	67e2                	ld	a5,24(sp)
   1446c:	6742                	ld	a4,16(sp)
   1446e:	439c                	lw	a5,0(a5)
   14470:	9fb9                	addw	a5,a5,a4
   14472:	e83e                	sd	a5,16(sp)
   14474:	67c2                	ld	a5,16(sp)
   14476:	060b2423          	sw	zero,104(s6)
   1447a:	00378a1b          	addiw	s4,a5,3
   1447e:	47fd                	li	a5,31
   14480:	f747e8e3          	bltu	a5,s4,143f0 <_ldtoa_r+0x78c>
   14484:	4581                	li	a1,0
   14486:	b751                	j	1440a <_ldtoa_r+0x7a6>
   14488:	03000793          	li	a5,48
   1448c:	f4f71ae3          	bne	a4,a5,143e0 <_ldtoa_r+0x77c>
   14490:	412407b3          	sub	a5,s0,s2
   14494:	4685                	li	a3,1
   14496:	f2f6c4e3          	blt	a3,a5,143be <_ldtoa_r+0x75a>
   1449a:	b799                	j	143e0 <_ldtoa_r+0x77c>
   1449c:	67c2                	ld	a5,16(sp)
   1449e:	02a00713          	li	a4,42
   144a2:	8c3e                	mv	s8,a5
   144a4:	00f75463          	bge	a4,a5,144ac <_ldtoa_r+0x848>
   144a8:	02a00c13          	li	s8,42
   144ac:	000c079b          	sext.w	a5,s8
   144b0:	e43e                	sd	a5,8(sp)
   144b2:	847ff06f          	j	13cf8 <_ldtoa_r+0x94>
   144b6:	6762                	ld	a4,24(sp)
   144b8:	6789                	lui	a5,0x2
   144ba:	70f78793          	addi	a5,a5,1807 # 270f <register_fini-0xd9a1>
   144be:	c31c                	sw	a5,0(a4)
   144c0:	b569                	j	1434a <_ldtoa_r+0x6e6>
   144c2:	0e010a93          	addi	s5,sp,224
   144c6:	8756                	mv	a4,s5
   144c8:	111c                	addi	a5,sp,160
   144ca:	1950                	addi	a2,sp,180
   144cc:	0789                	addi	a5,a5,2
   144ce:	ffe7d683          	lhu	a3,-2(a5)
   144d2:	0709                	addi	a4,a4,2
   144d4:	fed71f23          	sh	a3,-2(a4)
   144d8:	fec79ae3          	bne	a5,a2,144cc <_ldtoa_r+0x868>
   144dc:	6791                	lui	a5,0x4
   144de:	08e78793          	addi	a5,a5,142 # 408e <register_fini-0xc022>
   144e2:	0ef11923          	sh	a5,242(sp)
   144e6:	67a1                	lui	a5,0x8
   144e8:	17fd                	addi	a5,a5,-1
   144ea:	fc3e                	sd	a5,56(sp)
   144ec:	77f1                	lui	a5,0xffffc
   144ee:	2789                	addiw	a5,a5,2
   144f0:	4a41                	li	s4,16
   144f2:	4481                	li	s1,0
   144f4:	00008d17          	auipc	s10,0x8
   144f8:	e9cd0d13          	addi	s10,s10,-356 # 1c390 <etens+0xa0>
   144fc:	16010913          	addi	s2,sp,352
   14500:	1a010993          	addi	s3,sp,416
   14504:	0200                	addi	s0,sp,256
   14506:	0d210c13          	addi	s8,sp,210
   1450a:	c2be                	sw	a5,68(sp)
   1450c:	07a10c93          	addi	s9,sp,122
   14510:	86ce                	mv	a3,s3
   14512:	0190                	addi	a2,sp,192
   14514:	85d6                	mv	a1,s5
   14516:	856a                	mv	a0,s10
   14518:	aa4ff0ef          	jal	ra,137bc <ediv>
   1451c:	10b8                	addi	a4,sp,104
   1451e:	019c                	addi	a5,sp,192
   14520:	0789                	addi	a5,a5,2
   14522:	ffe7d683          	lhu	a3,-2(a5) # ffffffffffffbffe <__BSS_END__+0xfffffffffffdd05e>
   14526:	0709                	addi	a4,a4,2
   14528:	fed71f23          	sh	a3,-2(a4)
   1452c:	ffb79ae3          	bne	a5,s11,14520 <_ldtoa_r+0x8bc>
   14530:	77e2                	ld	a5,56(sp)
   14532:	07a15503          	lhu	a0,122(sp)
   14536:	00f57eb3          	and	t4,a0,a5
   1453a:	4796                	lw	a5,68(sp)
   1453c:	00fe87bb          	addw	a5,t4,a5
   14540:	8ebe                	mv	t4,a5
   14542:	2cf05c63          	blez	a5,1481a <_ldtoa_r+0xbb6>
   14546:	09000593          	li	a1,144
   1454a:	40f58f3b          	subw	t5,a1,a5
   1454e:	85fa                	mv	a1,t5
   14550:	8722                	mv	a4,s0
   14552:	10bc                	addi	a5,sp,104
   14554:	18f0                	addi	a2,sp,124
   14556:	0789                	addi	a5,a5,2
   14558:	ffe7d683          	lhu	a3,-2(a5)
   1455c:	0709                	addi	a4,a4,2
   1455e:	fed71f23          	sh	a3,-2(a4)
   14562:	fec79ae3          	bne	a5,a2,14556 <_ldtoa_r+0x8f2>
   14566:	07e05363          	blez	t5,145cc <_ldtoa_r+0x968>
   1456a:	47bd                	li	a5,15
   1456c:	8722                	mv	a4,s0
   1456e:	03e7d963          	bge	a5,t5,145a0 <_ldtoa_r+0x93c>
   14572:	35c1                	addiw	a1,a1,-16
   14574:	0045d59b          	srliw	a1,a1,0x4
   14578:	02059713          	slli	a4,a1,0x20
   1457c:	9301                	srli	a4,a4,0x20
   1457e:	0705                	addi	a4,a4,1
   14580:	0706                	slli	a4,a4,0x1
   14582:	9722                	add	a4,a4,s0
   14584:	87a2                	mv	a5,s0
   14586:	0789                	addi	a5,a5,2
   14588:	fe079f23          	sh	zero,-2(a5)
   1458c:	fee79de3          	bne	a5,a4,14586 <_ldtoa_r+0x922>
   14590:	08000f13          	li	t5,128
   14594:	41df0ebb          	subw	t4,t5,t4
   14598:	0045959b          	slliw	a1,a1,0x4
   1459c:	40be8f3b          	subw	t5,t4,a1
   145a0:	001f1593          	slli	a1,t5,0x1
   145a4:	00008f17          	auipc	t5,0x8
   145a8:	d1cf0f13          	addi	t5,t5,-740 # 1c2c0 <ezero>
   145ac:	95fa                	add	a1,a1,t5
   145ae:	00075783          	lhu	a5,0(a4)
   145b2:	2405d683          	lhu	a3,576(a1)
   145b6:	8ff5                	and	a5,a5,a3
   145b8:	00f71023          	sh	a5,0(a4)
   145bc:	0105151b          	slliw	a0,a0,0x10
   145c0:	4105551b          	sraiw	a0,a0,0x10
   145c4:	02051793          	slli	a5,a0,0x20
   145c8:	1007c663          	bltz	a5,146d4 <_ldtoa_r+0xa70>
   145cc:	019c                	addi	a5,sp,192
   145ce:	8722                	mv	a4,s0
   145d0:	0007d603          	lhu	a2,0(a5)
   145d4:	00075683          	lhu	a3,0(a4)
   145d8:	0789                	addi	a5,a5,2
   145da:	0709                	addi	a4,a4,2
   145dc:	02d61063          	bne	a2,a3,145fc <_ldtoa_r+0x998>
   145e0:	fefc18e3          	bne	s8,a5,145d0 <_ldtoa_r+0x96c>
   145e4:	8756                	mv	a4,s5
   145e6:	019c                	addi	a5,sp,192
   145e8:	0789                	addi	a5,a5,2
   145ea:	ffe7d683          	lhu	a3,-2(a5)
   145ee:	0709                	addi	a4,a4,2
   145f0:	fed71f23          	sh	a3,-2(a4)
   145f4:	ffb79ae3          	bne	a5,s11,145e8 <_ldtoa_r+0x984>
   145f8:	009a04bb          	addw	s1,s4,s1
   145fc:	0d51                	addi	s10,s10,20
   145fe:	00008797          	auipc	a5,0x8
   14602:	df678793          	addi	a5,a5,-522 # 1c3f4 <etens+0x104>
   14606:	001a5a13          	srli	s4,s4,0x1
   1460a:	f0fd13e3          	bne	s10,a5,14510 <_ldtoa_r+0x8ac>
   1460e:	0f215783          	lhu	a5,242(sp)
   14612:	0b215703          	lhu	a4,178(sp)
   14616:	19d0                	addi	a2,sp,244
   14618:	9fb9                	addw	a5,a5,a4
   1461a:	7771                	lui	a4,0xffffc
   1461c:	f727071b          	addiw	a4,a4,-142
   14620:	9fb9                	addw	a5,a5,a4
   14622:	0ef11923          	sh	a5,242(sp)
   14626:	1118                	addi	a4,sp,160
   14628:	87d6                	mv	a5,s5
   1462a:	0789                	addi	a5,a5,2
   1462c:	ffe7d683          	lhu	a3,-2(a5)
   14630:	0709                	addi	a4,a4,2
   14632:	fed71f23          	sh	a3,-2(a4) # ffffffffffffbffe <__BSS_END__+0xfffffffffffdd05e>
   14636:	fec79ae3          	bne	a5,a2,1462a <_ldtoa_r+0x9c6>
   1463a:	4681                	li	a3,0
   1463c:	019c                	addi	a5,sp,192
   1463e:	00008717          	auipc	a4,0x8
   14642:	c9a70713          	addi	a4,a4,-870 # 1c2d8 <eone>
   14646:	a019                	j	1464c <_ldtoa_r+0x9e8>
   14648:	00075683          	lhu	a3,0(a4)
   1464c:	0789                	addi	a5,a5,2
   1464e:	fed79f23          	sh	a3,-2(a5)
   14652:	0709                	addi	a4,a4,2
   14654:	ffb79ae3          	bne	a5,s11,14648 <_ldtoa_r+0x9e4>
   14658:	6c05                	lui	s8,0x1
   1465a:	00008d97          	auipc	s11,0x8
   1465e:	c96d8d93          	addi	s11,s11,-874 # 1c2f0 <etens>
   14662:	00008a17          	auipc	s4,0x8
   14666:	d7ea0a13          	addi	s4,s4,-642 # 1c3e0 <etens+0xf0>
   1466a:	a031                	j	14676 <_ldtoa_r+0xa12>
   1466c:	001c5c13          	srli	s8,s8,0x1
   14670:	214d8f63          	beq	s11,s4,1488e <_ldtoa_r+0xc2a>
   14674:	0dd1                	addi	s11,s11,20
   14676:	85d6                	mv	a1,s5
   14678:	8552                	mv	a0,s4
   1467a:	e96fe0ef          	jal	ra,12d10 <ecmp>
   1467e:	85d6                	mv	a1,s5
   14680:	20a04763          	bgtz	a0,1488e <_ldtoa_r+0xc2a>
   14684:	856e                	mv	a0,s11
   14686:	e8afe0ef          	jal	ra,12d10 <ecmp>
   1468a:	fea041e3          	bgtz	a0,1466c <_ldtoa_r+0xa08>
   1468e:	86ce                	mv	a3,s3
   14690:	8656                	mv	a2,s5
   14692:	85d6                	mv	a1,s5
   14694:	856e                	mv	a0,s11
   14696:	926ff0ef          	jal	ra,137bc <ediv>
   1469a:	0190                	addi	a2,sp,192
   1469c:	86ce                	mv	a3,s3
   1469e:	85b2                	mv	a1,a2
   146a0:	856e                	mv	a0,s11
   146a2:	e17fe0ef          	jal	ra,134b8 <emul>
   146a6:	009c04bb          	addw	s1,s8,s1
   146aa:	b7c9                	j	1466c <_ldtoa_r+0xa08>
   146ac:	1ec15783          	lhu	a5,492(sp)
   146b0:	16210d93          	addi	s11,sp,354
   146b4:	16310993          	addi	s3,sp,355
   146b8:	be59                	j	1424e <_ldtoa_r+0x5ea>
   146ba:	16010913          	addi	s2,sp,352
   146be:	00008597          	auipc	a1,0x8
   146c2:	e6a58593          	addi	a1,a1,-406 # 1c528 <bmask+0x28>
   146c6:	854a                	mv	a0,s2
   146c8:	6489                	lui	s1,0x2
   146ca:	1cd010ef          	jal	ra,16096 <sprintf>
   146ce:	70f48493          	addi	s1,s1,1807 # 270f <register_fini-0xd9a1>
   146d2:	b111                	j	142d6 <_ldtoa_r+0x672>
   146d4:	10bc                	addi	a5,sp,104
   146d6:	8722                	mv	a4,s0
   146d8:	a019                	j	146de <_ldtoa_r+0xa7a>
   146da:	eefc89e3          	beq	s9,a5,145cc <_ldtoa_r+0x968>
   146de:	0007d603          	lhu	a2,0(a5)
   146e2:	00075683          	lhu	a3,0(a4)
   146e6:	0789                	addi	a5,a5,2
   146e8:	0709                	addi	a4,a4,2
   146ea:	fed608e3          	beq	a2,a3,146da <_ldtoa_r+0xa76>
   146ee:	11215783          	lhu	a5,274(sp)
   146f2:	7762                	ld	a4,56(sp)
   146f4:	8ff9                	and	a5,a5,a4
   146f6:	00e79c63          	bne	a5,a4,1470e <_ldtoa_r+0xaaa>
   146fa:	8522                	mv	a0,s0
   146fc:	cf6fe0ef          	jal	ra,12bf2 <eisnan.part.0>
   14700:	ec0516e3          	bnez	a0,145cc <_ldtoa_r+0x968>
   14704:	8522                	mv	a0,s0
   14706:	ed2fe0ef          	jal	ra,12dd8 <eisinf.part.1>
   1470a:	ec0511e3          	bnez	a0,145cc <_ldtoa_r+0x968>
   1470e:	120c                	addi	a1,sp,288
   14710:	00008517          	auipc	a0,0x8
   14714:	bc850513          	addi	a0,a0,-1080 # 1c2d8 <eone>
   14718:	d4cfe0ef          	jal	ra,12c64 <emovi>
   1471c:	028c                	addi	a1,sp,320
   1471e:	8522                	mv	a0,s0
   14720:	d44fe0ef          	jal	ra,12c64 <emovi>
   14724:	12015603          	lhu	a2,288(sp)
   14728:	14215503          	lhu	a0,322(sp)
   1472c:	12215e83          	lhu	t4,290(sp)
   14730:	fff64613          	not	a2,a2
   14734:	1642                	slli	a2,a2,0x30
   14736:	9241                	srli	a2,a2,0x30
   14738:	12c11023          	sh	a2,288(sp)
   1473c:	40ae85b3          	sub	a1,t4,a0
   14740:	86aa                	mv	a3,a0
   14742:	04b05e63          	blez	a1,1479e <_ldtoa_r+0xb3a>
   14746:	86ca                	mv	a3,s2
   14748:	0298                	addi	a4,sp,320
   1474a:	0abc                	addi	a5,sp,344
   1474c:	0709                	addi	a4,a4,2
   1474e:	ffe75583          	lhu	a1,-2(a4)
   14752:	0689                	addi	a3,a3,2
   14754:	feb69f23          	sh	a1,-2(a3) # 3ffe <register_fini-0xc0b2>
   14758:	fef71ae3          	bne	a4,a5,1474c <_ldtoa_r+0xae8>
   1475c:	16011c23          	sh	zero,376(sp)
   14760:	0298                	addi	a4,sp,320
   14762:	1214                	addi	a3,sp,288
   14764:	a019                	j	1476a <_ldtoa_r+0xb06>
   14766:	0006d603          	lhu	a2,0(a3)
   1476a:	0709                	addi	a4,a4,2
   1476c:	fec71f23          	sh	a2,-2(a4)
   14770:	0689                	addi	a3,a3,2
   14772:	fef71ae3          	bne	a4,a5,14766 <_ldtoa_r+0xb02>
   14776:	14011c23          	sh	zero,344(sp)
   1477a:	1218                	addi	a4,sp,288
   1477c:	87ca                	mv	a5,s2
   1477e:	1aac                	addi	a1,sp,376
   14780:	0789                	addi	a5,a5,2
   14782:	ffe7d683          	lhu	a3,-2(a5)
   14786:	0709                	addi	a4,a4,2
   14788:	fed71f23          	sh	a3,-2(a4)
   1478c:	feb79ae3          	bne	a5,a1,14780 <_ldtoa_r+0xb1c>
   14790:	14215683          	lhu	a3,322(sp)
   14794:	41d505b3          	sub	a1,a0,t4
   14798:	12011c23          	sh	zero,312(sp)
   1479c:	8536                	mv	a0,a3
   1479e:	24058f63          	beqz	a1,149fc <_ldtoa_r+0xd98>
   147a2:	e4b6                	sd	a3,72(sp)
   147a4:	f6f00793          	li	a5,-145
   147a8:	04f5ca63          	blt	a1,a5,147fc <_ldtoa_r+0xb98>
   147ac:	2581                	sext.w	a1,a1
   147ae:	1208                	addi	a0,sp,288
   147b0:	e3afe0ef          	jal	ra,12dea <eshift.part.3>
   147b4:	66a6                	ld	a3,72(sp)
   147b6:	85aa                	mv	a1,a0
   147b8:	0abc                	addi	a5,sp,344
   147ba:	1a30                	addi	a2,sp,312
   147bc:	12015503          	lhu	a0,288(sp)
   147c0:	14015703          	lhu	a4,320(sp)
   147c4:	26e50e63          	beq	a0,a4,14a40 <_ldtoa_r+0xddc>
   147c8:	4501                	li	a0,0
   147ca:	0007d703          	lhu	a4,0(a5)
   147ce:	00065e83          	lhu	t4,0(a2)
   147d2:	17f9                	addi	a5,a5,-2
   147d4:	8f09                	sub	a4,a4,a0
   147d6:	41d70733          	sub	a4,a4,t4
   147da:	00e79123          	sh	a4,2(a5)
   147de:	8341                	srli	a4,a4,0x10
   147e0:	00177513          	andi	a0,a4,1
   147e4:	14210713          	addi	a4,sp,322
   147e8:	1679                	addi	a2,a2,-2
   147ea:	fee790e3          	bne	a5,a4,147ca <_ldtoa_r+0xb66>
   147ee:	4605                	li	a2,1
   147f0:	87ce                	mv	a5,s3
   147f2:	04000713          	li	a4,64
   147f6:	0288                	addi	a0,sp,320
   147f8:	84dfe0ef          	jal	ra,13044 <emdnorm>
   147fc:	85a2                	mv	a1,s0
   147fe:	0288                	addi	a0,sp,320
   14800:	c37fe0ef          	jal	ra,13436 <emovo.isra.6>
   14804:	b3e1                	j	145cc <_ldtoa_r+0x968>
   14806:	67c2                	ld	a5,16(sp)
   14808:	37fd                	addiw	a5,a5,-1
   1480a:	b951                	j	1449e <_ldtoa_r+0x83a>
   1480c:	67e2                	ld	a5,24(sp)
   1480e:	16010023          	sb	zero,352(sp)
   14812:	844a                	mv	s0,s2
   14814:	0007a023          	sw	zero,0(a5)
   14818:	b9b1                	j	14474 <_ldtoa_r+0x810>
   1481a:	87a2                	mv	a5,s0
   1481c:	0a58                	addi	a4,sp,276
   1481e:	0789                	addi	a5,a5,2
   14820:	fe079f23          	sh	zero,-2(a5)
   14824:	fee79de3          	bne	a5,a4,1481e <_ldtoa_r+0xbba>
   14828:	bb51                	j	145bc <_ldtoa_r+0x958>
   1482a:	7782                	ld	a5,32(sp)
   1482c:	16010913          	addi	s2,sp,352
   14830:	cbf1                	beqz	a5,14904 <_ldtoa_r+0xca0>
   14832:	00008597          	auipc	a1,0x8
   14836:	cfe58593          	addi	a1,a1,-770 # 1c530 <bmask+0x30>
   1483a:	854a                	mv	a0,s2
   1483c:	6489                	lui	s1,0x2
   1483e:	059010ef          	jal	ra,16096 <sprintf>
   14842:	70f48493          	addi	s1,s1,1807 # 270f <register_fini-0xd9a1>
   14846:	bc41                	j	142d6 <_ldtoa_r+0x672>
   14848:	03100793          	li	a5,49
   1484c:	16f100a3          	sb	a5,353(sp)
   14850:	02e00793          	li	a5,46
   14854:	16f10123          	sb	a5,354(sp)
   14858:	2485                	addiw	s1,s1,1
   1485a:	02900413          	li	s0,41
   1485e:	03000793          	li	a5,48
   14862:	16f101a3          	sb	a5,355(sp)
   14866:	16410d93          	addi	s11,sp,356
   1486a:	b0bd                	j	140d8 <_ldtoa_r+0x474>
   1486c:	03100793          	li	a5,49
   14870:	16f100a3          	sb	a5,353(sp)
   14874:	02e00793          	li	a5,46
   14878:	16f10123          	sb	a5,354(sp)
   1487c:	2485                	addiw	s1,s1,1
   1487e:	16804d63          	bgtz	s0,149f8 <_ldtoa_r+0xd94>
   14882:	16310d93          	addi	s11,sp,355
   14886:	a40410e3          	bnez	s0,142c6 <_ldtoa_r+0x662>
   1488a:	84fff06f          	j	140d8 <_ldtoa_r+0x474>
   1488e:	11810a13          	addi	s4,sp,280
   14892:	e28ff06f          	j	13eba <_ldtoa_r+0x256>
   14896:	03100793          	li	a5,49
   1489a:	fef98f23          	sb	a5,-2(s3)
   1489e:	2485                	addiw	s1,s1,1
   148a0:	b41d                	j	142c6 <_ldtoa_r+0x662>
   148a2:	16010913          	addi	s2,sp,352
   148a6:	00008597          	auipc	a1,0x8
   148aa:	caa58593          	addi	a1,a1,-854 # 1c550 <bmask+0x50>
   148ae:	854a                	mv	a0,s2
   148b0:	6489                	lui	s1,0x2
   148b2:	7e4010ef          	jal	ra,16096 <sprintf>
   148b6:	70f48493          	addi	s1,s1,1807 # 270f <register_fini-0xd9a1>
   148ba:	bc31                	j	142d6 <_ldtoa_r+0x672>
   148bc:	018c                	addi	a1,sp,192
   148be:	1108                	addi	a0,sp,160
   148c0:	b77fe0ef          	jal	ra,13436 <emovo.isra.6>
   148c4:	00008597          	auipc	a1,0x8
   148c8:	9fc58593          	addi	a1,a1,-1540 # 1c2c0 <ezero>
   148cc:	0188                	addi	a0,sp,192
   148ce:	c42fe0ef          	jal	ra,12d10 <ecmp>
   148d2:	980514e3          	bnez	a0,1425a <_ldtoa_r+0x5f6>
   148d6:	9e0448e3          	bltz	s0,142c6 <_ldtoa_r+0x662>
   148da:	ffe9c783          	lbu	a5,-2(s3)
   148de:	fd278713          	addi	a4,a5,-46
   148e2:	00173713          	seqz	a4,a4
   148e6:	fff74713          	not	a4,a4
   148ea:	976e                	add	a4,a4,s11
   148ec:	00074703          	lbu	a4,0(a4)
   148f0:	8b05                	andi	a4,a4,1
   148f2:	9c070ae3          	beqz	a4,142c6 <_ldtoa_r+0x662>
   148f6:	07f7f793          	andi	a5,a5,127
   148fa:	ffe98713          	addi	a4,s3,-2
   148fe:	0007881b          	sext.w	a6,a5
   14902:	b2b5                	j	1426e <_ldtoa_r+0x60a>
   14904:	00008597          	auipc	a1,0x8
   14908:	c3c58593          	addi	a1,a1,-964 # 1c540 <bmask+0x40>
   1490c:	854a                	mv	a0,s2
   1490e:	6489                	lui	s1,0x2
   14910:	786010ef          	jal	ra,16096 <sprintf>
   14914:	70f48493          	addi	s1,s1,1807 # 270f <register_fini-0xd9a1>
   14918:	ba7d                	j	142d6 <_ldtoa_r+0x672>
   1491a:	2785                	addiw	a5,a5,1
   1491c:	fef70fa3          	sb	a5,-1(a4)
   14920:	b25d                	j	142c6 <_ldtoa_r+0x662>
   14922:	0200                	addi	s0,sp,256
   14924:	85a2                	mv	a1,s0
   14926:	1108                	addi	a0,sp,160
   14928:	6a91                	lui	s5,0x4
   1492a:	b3afe0ef          	jal	ra,12c64 <emovi>
   1492e:	4481                	li	s1,0
   14930:	11810a13          	addi	s4,sp,280
   14934:	0f810913          	addi	s2,sp,248
   14938:	10210993          	addi	s3,sp,258
   1493c:	1af9                	addi	s5,s5,-2
   1493e:	fd500c13          	li	s8,-43
   14942:	11815783          	lhu	a5,280(sp)
   14946:	8b9d                	andi	a5,a5,7
   14948:	efd1                	bnez	a5,149e4 <_ldtoa_r+0xd80>
   1494a:	1198                	addi	a4,sp,224
   1494c:	87a2                	mv	a5,s0
   1494e:	0789                	addi	a5,a5,2
   14950:	ffe7d683          	lhu	a3,-2(a5)
   14954:	0709                	addi	a4,a4,2
   14956:	fed71f23          	sh	a3,-2(a4)
   1495a:	ff479ae3          	bne	a5,s4,1494e <_ldtoa_r+0xcea>
   1495e:	1188                	addi	a0,sp,224
   14960:	0e011c23          	sh	zero,248(sp)
   14964:	974fe0ef          	jal	ra,12ad8 <eshdn1>
   14968:	1188                	addi	a0,sp,224
   1496a:	96efe0ef          	jal	ra,12ad8 <eshdn1>
   1496e:	4601                	li	a2,0
   14970:	86ca                	mv	a3,s2
   14972:	8752                	mv	a4,s4
   14974:	0006d583          	lhu	a1,0(a3)
   14978:	00075783          	lhu	a5,0(a4)
   1497c:	16f9                	addi	a3,a3,-2
   1497e:	1779                	addi	a4,a4,-2
   14980:	97ae                	add	a5,a5,a1
   14982:	97b2                	add	a5,a5,a2
   14984:	00f69123          	sh	a5,2(a3)
   14988:	83c1                	srli	a5,a5,0x10
   1498a:	0017f613          	andi	a2,a5,1
   1498e:	ff3713e3          	bne	a4,s3,14974 <_ldtoa_r+0xd10>
   14992:	0e215783          	lhu	a5,226(sp)
   14996:	0e415703          	lhu	a4,228(sp)
   1499a:	278d                	addiw	a5,a5,3
   1499c:	0ef11123          	sh	a5,226(sp)
   149a0:	cf01                	beqz	a4,149b8 <_ldtoa_r+0xd54>
   149a2:	1188                	addi	a0,sp,224
   149a4:	934fe0ef          	jal	ra,12ad8 <eshdn1>
   149a8:	0e215783          	lhu	a5,226(sp)
   149ac:	0e415703          	lhu	a4,228(sp)
   149b0:	2785                	addiw	a5,a5,1
   149b2:	0ef11123          	sh	a5,226(sp)
   149b6:	f775                	bnez	a4,149a2 <_ldtoa_r+0xd3e>
   149b8:	0f815783          	lhu	a5,248(sp)
   149bc:	e785                	bnez	a5,149e4 <_ldtoa_r+0xd80>
   149be:	0e215783          	lhu	a5,226(sp)
   149c2:	02fae163          	bltu	s5,a5,149e4 <_ldtoa_r+0xd80>
   149c6:	8722                	mv	a4,s0
   149c8:	119c                	addi	a5,sp,224
   149ca:	0789                	addi	a5,a5,2
   149cc:	ffe7d683          	lhu	a3,-2(a5)
   149d0:	0709                	addi	a4,a4,2
   149d2:	fed71f23          	sh	a3,-2(a4)
   149d6:	ff279ae3          	bne	a5,s2,149ca <_ldtoa_r+0xd66>
   149da:	10011c23          	sh	zero,280(sp)
   149de:	34fd                	addiw	s1,s1,-1
   149e0:	f78491e3          	bne	s1,s8,14942 <_ldtoa_r+0xcde>
   149e4:	110c                	addi	a1,sp,160
   149e6:	8522                	mv	a0,s0
   149e8:	a4ffe0ef          	jal	ra,13436 <emovo.isra.6>
   149ec:	1a010993          	addi	s3,sp,416
   149f0:	beeff06f          	j	13dde <_ldtoa_r+0x17a>
   149f4:	87ca                	mv	a5,s2
   149f6:	ba81                	j	14346 <_ldtoa_r+0x6e2>
   149f8:	347d                	addiw	s0,s0,-1
   149fa:	b595                	j	1485e <_ldtoa_r+0xbfa>
   149fc:	02d8                	addi	a4,sp,324
   149fe:	125c                	addi	a5,sp,292
   14a00:	0789                	addi	a5,a5,2
   14a02:	0709                	addi	a4,a4,2
   14a04:	ffe7d583          	lhu	a1,-2(a5)
   14a08:	ffe75603          	lhu	a2,-2(a4)
   14a0c:	02c59463          	bne	a1,a2,14a34 <_ldtoa_r+0xdd0>
   14a10:	13a10613          	addi	a2,sp,314
   14a14:	fec796e3          	bne	a5,a2,14a00 <_ldtoa_r+0xd9c>
   14a18:	12015703          	lhu	a4,288(sp)
   14a1c:	14015783          	lhu	a5,320(sp)
   14a20:	04f70463          	beq	a4,a5,14a68 <_ldtoa_r+0xe04>
   14a24:	87a2                	mv	a5,s0
   14a26:	0a58                	addi	a4,sp,276
   14a28:	0789                	addi	a5,a5,2
   14a2a:	fe079f23          	sh	zero,-2(a5)
   14a2e:	fee79de3          	bne	a5,a4,14a28 <_ldtoa_r+0xdc4>
   14a32:	be69                	j	145cc <_ldtoa_r+0x968>
   14a34:	08b66e63          	bltu	a2,a1,14ad0 <_ldtoa_r+0xe6c>
   14a38:	4581                	li	a1,0
   14a3a:	0abc                	addi	a5,sp,344
   14a3c:	1a30                	addi	a2,sp,312
   14a3e:	bbbd                	j	147bc <_ldtoa_r+0xb58>
   14a40:	4501                	li	a0,0
   14a42:	12210f13          	addi	t5,sp,290
   14a46:	0007de83          	lhu	t4,0(a5)
   14a4a:	00065703          	lhu	a4,0(a2)
   14a4e:	17f9                	addi	a5,a5,-2
   14a50:	1679                	addi	a2,a2,-2
   14a52:	9776                	add	a4,a4,t4
   14a54:	972a                	add	a4,a4,a0
   14a56:	00e79123          	sh	a4,2(a5)
   14a5a:	8341                	srli	a4,a4,0x10
   14a5c:	00177513          	andi	a0,a4,1
   14a60:	ffe613e3          	bne	a2,t5,14a46 <_ldtoa_r+0xde2>
   14a64:	4601                	li	a2,0
   14a66:	b369                	j	147f0 <_ldtoa_r+0xb8c>
   14a68:	8736                	mv	a4,a3
   14a6a:	eab1                	bnez	a3,14abe <_ldtoa_r+0xe5a>
   14a6c:	14611783          	lh	a5,326(sp)
   14a70:	0407c763          	bltz	a5,14abe <_ldtoa_r+0xe5a>
   14a74:	0ab4                	addi	a3,sp,344
   14a76:	a821                	j	14a8e <_ldtoa_r+0xe2a>
   14a78:	00f69023          	sh	a5,0(a3)
   14a7c:	0017171b          	slliw	a4,a4,0x1
   14a80:	1742                	slli	a4,a4,0x30
   14a82:	16f9                	addi	a3,a3,-2
   14a84:	14210793          	addi	a5,sp,322
   14a88:	9341                	srli	a4,a4,0x30
   14a8a:	d6f689e3          	beq	a3,a5,147fc <_ldtoa_r+0xb98>
   14a8e:	0006d783          	lhu	a5,0(a3)
   14a92:	0107961b          	slliw	a2,a5,0x10
   14a96:	4106561b          	sraiw	a2,a2,0x10
   14a9a:	02061593          	slli	a1,a2,0x20
   14a9e:	0017979b          	slliw	a5,a5,0x1
   14aa2:	0005d463          	bgez	a1,14aaa <_ldtoa_r+0xe46>
   14aa6:	00176713          	ori	a4,a4,1
   14aaa:	17c2                	slli	a5,a5,0x30
   14aac:	93c1                	srli	a5,a5,0x30
   14aae:	00277613          	andi	a2,a4,2
   14ab2:	0017e593          	ori	a1,a5,1
   14ab6:	d269                	beqz	a2,14a78 <_ldtoa_r+0xe14>
   14ab8:	00b69023          	sh	a1,0(a3)
   14abc:	b7c1                	j	14a7c <_ldtoa_r+0xe18>
   14abe:	02d0                	addi	a2,sp,324
   14ac0:	0abc                	addi	a5,sp,344
   14ac2:	e325                	bnez	a4,14b22 <_ldtoa_r+0xebe>
   14ac4:	06c78163          	beq	a5,a2,14b26 <_ldtoa_r+0xec2>
   14ac8:	00065703          	lhu	a4,0(a2)
   14acc:	0609                	addi	a2,a2,2
   14ace:	bfd5                	j	14ac2 <_ldtoa_r+0xe5e>
   14ad0:	864a                	mv	a2,s2
   14ad2:	0298                	addi	a4,sp,320
   14ad4:	0abc                	addi	a5,sp,344
   14ad6:	0709                	addi	a4,a4,2
   14ad8:	ffe75583          	lhu	a1,-2(a4)
   14adc:	0609                	addi	a2,a2,2
   14ade:	feb61f23          	sh	a1,-2(a2)
   14ae2:	fef71ae3          	bne	a4,a5,14ad6 <_ldtoa_r+0xe72>
   14ae6:	16011c23          	sh	zero,376(sp)
   14aea:	028c                	addi	a1,sp,320
   14aec:	1218                	addi	a4,sp,288
   14aee:	1a30                	addi	a2,sp,312
   14af0:	0709                	addi	a4,a4,2
   14af2:	ffe75503          	lhu	a0,-2(a4)
   14af6:	0589                	addi	a1,a1,2
   14af8:	fea59f23          	sh	a0,-2(a1)
   14afc:	fec71ae3          	bne	a4,a2,14af0 <_ldtoa_r+0xe8c>
   14b00:	14011c23          	sh	zero,344(sp)
   14b04:	1208                	addi	a0,sp,288
   14b06:	874a                	mv	a4,s2
   14b08:	1aac                	addi	a1,sp,376
   14b0a:	0709                	addi	a4,a4,2
   14b0c:	ffe75e83          	lhu	t4,-2(a4)
   14b10:	0509                	addi	a0,a0,2
   14b12:	ffd51f23          	sh	t4,-2(a0)
   14b16:	feb71ae3          	bne	a4,a1,14b0a <_ldtoa_r+0xea6>
   14b1a:	12011c23          	sh	zero,312(sp)
   14b1e:	4581                	li	a1,0
   14b20:	b971                	j	147bc <_ldtoa_r+0xb58>
   14b22:	00168513          	addi	a0,a3,1
   14b26:	14a11123          	sh	a0,322(sp)
   14b2a:	b9c9                	j	147fc <_ldtoa_r+0xb98>

0000000000014b2c <_ldcheck>:
   14b2c:	6118                	ld	a4,0(a0)
   14b2e:	651c                	ld	a5,8(a0)
   14b30:	7139                	addi	sp,sp,-64
   14b32:	850a                	mv	a0,sp
   14b34:	080c                	addi	a1,sp,16
   14b36:	e03a                	sd	a4,0(sp)
   14b38:	e43e                	sd	a5,8(sp)
   14b3a:	fc06                	sd	ra,56(sp)
   14b3c:	834ff0ef          	jal	ra,13b70 <e113toe.isra.8>
   14b40:	02215783          	lhu	a5,34(sp)
   14b44:	4501                	li	a0,0
   14b46:	fff7c793          	not	a5,a5
   14b4a:	03179713          	slli	a4,a5,0x31
   14b4e:	e719                	bnez	a4,14b5c <_ldcheck+0x30>
   14b50:	0808                	addi	a0,sp,16
   14b52:	8a0fe0ef          	jal	ra,12bf2 <eisnan.part.0>
   14b56:	00153513          	seqz	a0,a0
   14b5a:	0505                	addi	a0,a0,1
   14b5c:	70e2                	ld	ra,56(sp)
   14b5e:	6121                	addi	sp,sp,64
   14b60:	8082                	ret

0000000000014b62 <__localeconv_l>:
   14b62:	10050513          	addi	a0,a0,256
   14b66:	8082                	ret

0000000000014b68 <_localeconv_r>:
   14b68:	e6018513          	addi	a0,gp,-416 # 1e600 <__global_locale+0x100>
   14b6c:	8082                	ret

0000000000014b6e <localeconv>:
   14b6e:	e6018513          	addi	a0,gp,-416 # 1e600 <__global_locale+0x100>
   14b72:	8082                	ret

0000000000014b74 <_setlocale_r>:
   14b74:	c60d                	beqz	a2,14b9e <_setlocale_r+0x2a>
   14b76:	1141                	addi	sp,sp,-16
   14b78:	00008597          	auipc	a1,0x8
   14b7c:	9f058593          	addi	a1,a1,-1552 # 1c568 <bmask+0x68>
   14b80:	8532                	mv	a0,a2
   14b82:	e022                	sd	s0,0(sp)
   14b84:	e406                	sd	ra,8(sp)
   14b86:	8432                	mv	s0,a2
   14b88:	634010ef          	jal	ra,161bc <strcmp>
   14b8c:	ed11                	bnez	a0,14ba8 <_setlocale_r+0x34>
   14b8e:	00008517          	auipc	a0,0x8
   14b92:	9d250513          	addi	a0,a0,-1582 # 1c560 <bmask+0x60>
   14b96:	60a2                	ld	ra,8(sp)
   14b98:	6402                	ld	s0,0(sp)
   14b9a:	0141                	addi	sp,sp,16
   14b9c:	8082                	ret
   14b9e:	00008517          	auipc	a0,0x8
   14ba2:	9c250513          	addi	a0,a0,-1598 # 1c560 <bmask+0x60>
   14ba6:	8082                	ret
   14ba8:	00008597          	auipc	a1,0x8
   14bac:	9b858593          	addi	a1,a1,-1608 # 1c560 <bmask+0x60>
   14bb0:	8522                	mv	a0,s0
   14bb2:	60a010ef          	jal	ra,161bc <strcmp>
   14bb6:	dd61                	beqz	a0,14b8e <_setlocale_r+0x1a>
   14bb8:	00007597          	auipc	a1,0x7
   14bbc:	6f058593          	addi	a1,a1,1776 # 1c2a8 <zeroes.4541+0x88>
   14bc0:	8522                	mv	a0,s0
   14bc2:	5fa010ef          	jal	ra,161bc <strcmp>
   14bc6:	d561                	beqz	a0,14b8e <_setlocale_r+0x1a>
   14bc8:	4501                	li	a0,0
   14bca:	b7f1                	j	14b96 <_setlocale_r+0x22>

0000000000014bcc <__locale_mb_cur_max>:
   14bcc:	ec01c503          	lbu	a0,-320(gp) # 1e660 <__global_locale+0x160>
   14bd0:	8082                	ret

0000000000014bd2 <setlocale>:
   14bd2:	75818793          	addi	a5,gp,1880 # 1eef8 <_impure_ptr>
   14bd6:	862e                	mv	a2,a1
   14bd8:	85aa                	mv	a1,a0
   14bda:	6388                	ld	a0,0(a5)
   14bdc:	bf61                	j	14b74 <_setlocale_r>

0000000000014bde <__swhatbuf_r>:
   14bde:	7175                	addi	sp,sp,-144
   14be0:	e122                	sd	s0,128(sp)
   14be2:	842e                	mv	s0,a1
   14be4:	01259583          	lh	a1,18(a1)
   14be8:	fca6                	sd	s1,120(sp)
   14bea:	f8ca                	sd	s2,112(sp)
   14bec:	e506                	sd	ra,136(sp)
   14bee:	84b2                	mv	s1,a2
   14bf0:	8936                	mv	s2,a3
   14bf2:	0205cc63          	bltz	a1,14c2a <__swhatbuf_r+0x4c>
   14bf6:	0030                	addi	a2,sp,8
   14bf8:	51a040ef          	jal	ra,19112 <_fstat_r>
   14bfc:	02054763          	bltz	a0,14c2a <__swhatbuf_r+0x4c>
   14c00:	47b2                	lw	a5,12(sp)
   14c02:	673d                	lui	a4,0xf
   14c04:	60aa                	ld	ra,136(sp)
   14c06:	8ff9                	and	a5,a5,a4
   14c08:	6709                	lui	a4,0x2
   14c0a:	8f99                	sub	a5,a5,a4
   14c0c:	0017b793          	seqz	a5,a5
   14c10:	640a                	ld	s0,128(sp)
   14c12:	00f92023          	sw	a5,0(s2)
   14c16:	40000793          	li	a5,1024
   14c1a:	e09c                	sd	a5,0(s1)
   14c1c:	6505                	lui	a0,0x1
   14c1e:	74e6                	ld	s1,120(sp)
   14c20:	7946                	ld	s2,112(sp)
   14c22:	80050513          	addi	a0,a0,-2048 # 800 <register_fini-0xf8b0>
   14c26:	6149                	addi	sp,sp,144
   14c28:	8082                	ret
   14c2a:	01045783          	lhu	a5,16(s0)
   14c2e:	00092023          	sw	zero,0(s2)
   14c32:	0807f793          	andi	a5,a5,128
   14c36:	cb99                	beqz	a5,14c4c <__swhatbuf_r+0x6e>
   14c38:	60aa                	ld	ra,136(sp)
   14c3a:	640a                	ld	s0,128(sp)
   14c3c:	04000793          	li	a5,64
   14c40:	e09c                	sd	a5,0(s1)
   14c42:	7946                	ld	s2,112(sp)
   14c44:	74e6                	ld	s1,120(sp)
   14c46:	4501                	li	a0,0
   14c48:	6149                	addi	sp,sp,144
   14c4a:	8082                	ret
   14c4c:	60aa                	ld	ra,136(sp)
   14c4e:	640a                	ld	s0,128(sp)
   14c50:	40000793          	li	a5,1024
   14c54:	e09c                	sd	a5,0(s1)
   14c56:	7946                	ld	s2,112(sp)
   14c58:	74e6                	ld	s1,120(sp)
   14c5a:	4501                	li	a0,0
   14c5c:	6149                	addi	sp,sp,144
   14c5e:	8082                	ret

0000000000014c60 <__smakebuf_r>:
   14c60:	0105d703          	lhu	a4,16(a1)
   14c64:	7179                	addi	sp,sp,-48
   14c66:	f022                	sd	s0,32(sp)
   14c68:	f406                	sd	ra,40(sp)
   14c6a:	ec26                	sd	s1,24(sp)
   14c6c:	e84a                	sd	s2,16(sp)
   14c6e:	8b09                	andi	a4,a4,2
   14c70:	842e                	mv	s0,a1
   14c72:	cf09                	beqz	a4,14c8c <__smakebuf_r+0x2c>
   14c74:	07758713          	addi	a4,a1,119
   14c78:	e198                	sd	a4,0(a1)
   14c7a:	ed98                	sd	a4,24(a1)
   14c7c:	4705                	li	a4,1
   14c7e:	d198                	sw	a4,32(a1)
   14c80:	70a2                	ld	ra,40(sp)
   14c82:	7402                	ld	s0,32(sp)
   14c84:	64e2                	ld	s1,24(sp)
   14c86:	6942                	ld	s2,16(sp)
   14c88:	6145                	addi	sp,sp,48
   14c8a:	8082                	ret
   14c8c:	0054                	addi	a3,sp,4
   14c8e:	0030                	addi	a2,sp,8
   14c90:	84aa                	mv	s1,a0
   14c92:	f4dff0ef          	jal	ra,14bde <__swhatbuf_r>
   14c96:	65a2                	ld	a1,8(sp)
   14c98:	892a                	mv	s2,a0
   14c9a:	8526                	mv	a0,s1
   14c9c:	080000ef          	jal	ra,14d1c <_malloc_r>
   14ca0:	01041783          	lh	a5,16(s0)
   14ca4:	c915                	beqz	a0,14cd8 <__smakebuf_r+0x78>
   14ca6:	ffffd697          	auipc	a3,0xffffd
   14caa:	75a68693          	addi	a3,a3,1882 # 12400 <_cleanup_r>
   14cae:	ecb4                	sd	a3,88(s1)
   14cb0:	66a2                	ld	a3,8(sp)
   14cb2:	4712                	lw	a4,4(sp)
   14cb4:	0807e793          	ori	a5,a5,128
   14cb8:	00f41823          	sh	a5,16(s0)
   14cbc:	e008                	sd	a0,0(s0)
   14cbe:	ec08                	sd	a0,24(s0)
   14cc0:	d014                	sw	a3,32(s0)
   14cc2:	eb15                	bnez	a4,14cf6 <__smakebuf_r+0x96>
   14cc4:	0127e7b3          	or	a5,a5,s2
   14cc8:	00f41823          	sh	a5,16(s0)
   14ccc:	70a2                	ld	ra,40(sp)
   14cce:	7402                	ld	s0,32(sp)
   14cd0:	64e2                	ld	s1,24(sp)
   14cd2:	6942                	ld	s2,16(sp)
   14cd4:	6145                	addi	sp,sp,48
   14cd6:	8082                	ret
   14cd8:	2007f713          	andi	a4,a5,512
   14cdc:	f355                	bnez	a4,14c80 <__smakebuf_r+0x20>
   14cde:	9bf1                	andi	a5,a5,-4
   14ce0:	0027e793          	ori	a5,a5,2
   14ce4:	07740713          	addi	a4,s0,119
   14ce8:	00f41823          	sh	a5,16(s0)
   14cec:	4785                	li	a5,1
   14cee:	e018                	sd	a4,0(s0)
   14cf0:	ec18                	sd	a4,24(s0)
   14cf2:	d01c                	sw	a5,32(s0)
   14cf4:	b771                	j	14c80 <__smakebuf_r+0x20>
   14cf6:	01241583          	lh	a1,18(s0)
   14cfa:	8526                	mv	a0,s1
   14cfc:	780040ef          	jal	ra,1947c <_isatty_r>
   14d00:	e501                	bnez	a0,14d08 <__smakebuf_r+0xa8>
   14d02:	01041783          	lh	a5,16(s0)
   14d06:	bf7d                	j	14cc4 <__smakebuf_r+0x64>
   14d08:	01045783          	lhu	a5,16(s0)
   14d0c:	9bf1                	andi	a5,a5,-4
   14d0e:	0017e793          	ori	a5,a5,1
   14d12:	0107979b          	slliw	a5,a5,0x10
   14d16:	4107d79b          	sraiw	a5,a5,0x10
   14d1a:	b76d                	j	14cc4 <__smakebuf_r+0x64>

0000000000014d1c <_malloc_r>:
   14d1c:	711d                	addi	sp,sp,-96
   14d1e:	e4a6                	sd	s1,72(sp)
   14d20:	e0ca                	sd	s2,64(sp)
   14d22:	ec86                	sd	ra,88(sp)
   14d24:	e8a2                	sd	s0,80(sp)
   14d26:	fc4e                	sd	s3,56(sp)
   14d28:	f852                	sd	s4,48(sp)
   14d2a:	f456                	sd	s5,40(sp)
   14d2c:	f05a                	sd	s6,32(sp)
   14d2e:	ec5e                	sd	s7,24(sp)
   14d30:	e862                	sd	s8,16(sp)
   14d32:	e466                	sd	s9,8(sp)
   14d34:	01758493          	addi	s1,a1,23
   14d38:	02e00793          	li	a5,46
   14d3c:	892a                	mv	s2,a0
   14d3e:	0697e963          	bltu	a5,s1,14db0 <_malloc_r+0x94>
   14d42:	02000793          	li	a5,32
   14d46:	04b7e463          	bltu	a5,a1,14d8e <_malloc_r+0x72>
   14d4a:	72c000ef          	jal	ra,15476 <__malloc_lock>
   14d4e:	02000493          	li	s1,32
   14d52:	05000793          	li	a5,80
   14d56:	4611                	li	a2,4
   14d58:	0000a997          	auipc	s3,0xa
   14d5c:	95098993          	addi	s3,s3,-1712 # 1e6a8 <__malloc_av_>
   14d60:	97ce                	add	a5,a5,s3
   14d62:	6780                	ld	s0,8(a5)
   14d64:	ff078713          	addi	a4,a5,-16
   14d68:	20e40463          	beq	s0,a4,14f70 <_malloc_r+0x254>
   14d6c:	641c                	ld	a5,8(s0)
   14d6e:	6c14                	ld	a3,24(s0)
   14d70:	6810                	ld	a2,16(s0)
   14d72:	9bf1                	andi	a5,a5,-4
   14d74:	97a2                	add	a5,a5,s0
   14d76:	6798                	ld	a4,8(a5)
   14d78:	ee14                	sd	a3,24(a2)
   14d7a:	ea90                	sd	a2,16(a3)
   14d7c:	00176713          	ori	a4,a4,1
   14d80:	854a                	mv	a0,s2
   14d82:	e798                	sd	a4,8(a5)
   14d84:	6f4000ef          	jal	ra,15478 <__malloc_unlock>
   14d88:	01040513          	addi	a0,s0,16
   14d8c:	a029                	j	14d96 <_malloc_r+0x7a>
   14d8e:	47b1                	li	a5,12
   14d90:	00f92023          	sw	a5,0(s2)
   14d94:	4501                	li	a0,0
   14d96:	60e6                	ld	ra,88(sp)
   14d98:	6446                	ld	s0,80(sp)
   14d9a:	64a6                	ld	s1,72(sp)
   14d9c:	6906                	ld	s2,64(sp)
   14d9e:	79e2                	ld	s3,56(sp)
   14da0:	7a42                	ld	s4,48(sp)
   14da2:	7aa2                	ld	s5,40(sp)
   14da4:	7b02                	ld	s6,32(sp)
   14da6:	6be2                	ld	s7,24(sp)
   14da8:	6c42                	ld	s8,16(sp)
   14daa:	6ca2                	ld	s9,8(sp)
   14dac:	6125                	addi	sp,sp,96
   14dae:	8082                	ret
   14db0:	800007b7          	lui	a5,0x80000
   14db4:	98c1                	andi	s1,s1,-16
   14db6:	fff7c793          	not	a5,a5
   14dba:	fc97eae3          	bltu	a5,s1,14d8e <_malloc_r+0x72>
   14dbe:	fcb4e8e3          	bltu	s1,a1,14d8e <_malloc_r+0x72>
   14dc2:	6b4000ef          	jal	ra,15476 <__malloc_lock>
   14dc6:	1f700793          	li	a5,503
   14dca:	3a97f263          	bgeu	a5,s1,1516e <_malloc_r+0x452>
   14dce:	0094d793          	srli	a5,s1,0x9
   14dd2:	2a078863          	beqz	a5,15082 <_malloc_r+0x366>
   14dd6:	4711                	li	a4,4
   14dd8:	32f76f63          	bltu	a4,a5,15116 <_malloc_r+0x3fa>
   14ddc:	0064d513          	srli	a0,s1,0x6
   14de0:	2501                	sext.w	a0,a0
   14de2:	0395061b          	addiw	a2,a0,57
   14de6:	0016169b          	slliw	a3,a2,0x1
   14dea:	0385051b          	addiw	a0,a0,56
   14dee:	068e                	slli	a3,a3,0x3
   14df0:	0000a997          	auipc	s3,0xa
   14df4:	8b898993          	addi	s3,s3,-1864 # 1e6a8 <__malloc_av_>
   14df8:	96ce                	add	a3,a3,s3
   14dfa:	6680                	ld	s0,8(a3)
   14dfc:	16c1                	addi	a3,a3,-16
   14dfe:	16868d63          	beq	a3,s0,14f78 <_malloc_r+0x25c>
   14e02:	641c                	ld	a5,8(s0)
   14e04:	45fd                	li	a1,31
   14e06:	9bf1                	andi	a5,a5,-4
   14e08:	40978733          	sub	a4,a5,s1
   14e0c:	00e5cd63          	blt	a1,a4,14e26 <_malloc_r+0x10a>
   14e10:	2a075c63          	bgez	a4,150c8 <_malloc_r+0x3ac>
   14e14:	6c00                	ld	s0,24(s0)
   14e16:	16868163          	beq	a3,s0,14f78 <_malloc_r+0x25c>
   14e1a:	641c                	ld	a5,8(s0)
   14e1c:	9bf1                	andi	a5,a5,-4
   14e1e:	40978733          	sub	a4,a5,s1
   14e22:	fee5d7e3          	bge	a1,a4,14e10 <_malloc_r+0xf4>
   14e26:	0209b403          	ld	s0,32(s3)
   14e2a:	0000a817          	auipc	a6,0xa
   14e2e:	88e80813          	addi	a6,a6,-1906 # 1e6b8 <__malloc_av_+0x10>
   14e32:	862a                	mv	a2,a0
   14e34:	15041a63          	bne	s0,a6,14f88 <_malloc_r+0x26c>
   14e38:	0089b783          	ld	a5,8(s3)
   14e3c:	4026571b          	sraiw	a4,a2,0x2
   14e40:	4685                	li	a3,1
   14e42:	00e696b3          	sll	a3,a3,a4
   14e46:	1ad7f863          	bgeu	a5,a3,14ff6 <_malloc_r+0x2da>
   14e4a:	0109b403          	ld	s0,16(s3)
   14e4e:	00843a03          	ld	s4,8(s0)
   14e52:	ffca7a93          	andi	s5,s4,-4
   14e56:	009ae763          	bltu	s5,s1,14e64 <_malloc_r+0x148>
   14e5a:	409a87b3          	sub	a5,s5,s1
   14e5e:	477d                	li	a4,31
   14e60:	24f74363          	blt	a4,a5,150a6 <_malloc_r+0x38a>
   14e64:	78818793          	addi	a5,gp,1928 # 1ef28 <__malloc_top_pad>
   14e68:	76018c13          	addi	s8,gp,1888 # 1ef00 <__malloc_sbrk_base>
   14e6c:	0007ba03          	ld	s4,0(a5) # ffffffff80000000 <__BSS_END__+0xffffffff7ffe1060>
   14e70:	000c3703          	ld	a4,0(s8) # 1000 <register_fini-0xf0b0>
   14e74:	57fd                	li	a5,-1
   14e76:	01540bb3          	add	s7,s0,s5
   14e7a:	9a26                	add	s4,s4,s1
   14e7c:	38f70b63          	beq	a4,a5,15212 <_malloc_r+0x4f6>
   14e80:	6785                	lui	a5,0x1
   14e82:	07fd                	addi	a5,a5,31
   14e84:	9a3e                	add	s4,s4,a5
   14e86:	77fd                	lui	a5,0xfffff
   14e88:	00fa7a33          	and	s4,s4,a5
   14e8c:	85d2                	mv	a1,s4
   14e8e:	854a                	mv	a0,s2
   14e90:	108010ef          	jal	ra,15f98 <_sbrk_r>
   14e94:	57fd                	li	a5,-1
   14e96:	8b2a                	mv	s6,a0
   14e98:	30f50163          	beq	a0,a5,1519a <_malloc_r+0x47e>
   14e9c:	2f756d63          	bltu	a0,s7,15196 <_malloc_r+0x47a>
   14ea0:	7d018c93          	addi	s9,gp,2000 # 1ef70 <__malloc_current_mallinfo>
   14ea4:	000ca703          	lw	a4,0(s9)
   14ea8:	014707bb          	addw	a5,a4,s4
   14eac:	7cf1a823          	sw	a5,2000(gp) # 1ef70 <__malloc_current_mallinfo>
   14eb0:	86be                	mv	a3,a5
   14eb2:	40ab8163          	beq	s7,a0,152b4 <_malloc_r+0x598>
   14eb6:	000c3703          	ld	a4,0(s8)
   14eba:	57fd                	li	a5,-1
   14ebc:	40f70863          	beq	a4,a5,152cc <_malloc_r+0x5b0>
   14ec0:	417b07b3          	sub	a5,s6,s7
   14ec4:	9fb5                	addw	a5,a5,a3
   14ec6:	7cf1a823          	sw	a5,2000(gp) # 1ef70 <__malloc_current_mallinfo>
   14eca:	00fb7b93          	andi	s7,s6,15
   14ece:	360b8263          	beqz	s7,15232 <_malloc_r+0x516>
   14ed2:	417b0b33          	sub	s6,s6,s7
   14ed6:	6785                	lui	a5,0x1
   14ed8:	0b41                	addi	s6,s6,16
   14eda:	fff78713          	addi	a4,a5,-1 # fff <register_fini-0xf0b1>
   14ede:	014b0c33          	add	s8,s6,s4
   14ee2:	07c1                	addi	a5,a5,16
   14ee4:	41778a33          	sub	s4,a5,s7
   14ee8:	00ec77b3          	and	a5,s8,a4
   14eec:	40fa0a33          	sub	s4,s4,a5
   14ef0:	00ea7a33          	and	s4,s4,a4
   14ef4:	85d2                	mv	a1,s4
   14ef6:	854a                	mv	a0,s2
   14ef8:	0a0010ef          	jal	ra,15f98 <_sbrk_r>
   14efc:	57fd                	li	a5,-1
   14efe:	40f50e63          	beq	a0,a5,1531a <_malloc_r+0x5fe>
   14f02:	41650533          	sub	a0,a0,s6
   14f06:	000a071b          	sext.w	a4,s4
   14f0a:	9a2a                	add	s4,s4,a0
   14f0c:	000ca783          	lw	a5,0(s9)
   14f10:	00009697          	auipc	a3,0x9
   14f14:	7b66b423          	sd	s6,1960(a3) # 1e6b8 <__malloc_av_+0x10>
   14f18:	001a6a13          	ori	s4,s4,1
   14f1c:	9fb9                	addw	a5,a5,a4
   14f1e:	7cf1a823          	sw	a5,2000(gp) # 1ef70 <__malloc_current_mallinfo>
   14f22:	014b3423          	sd	s4,8(s6)
   14f26:	3b340663          	beq	s0,s3,152d2 <_malloc_r+0x5b6>
   14f2a:	467d                	li	a2,31
   14f2c:	3b567563          	bgeu	a2,s5,152d6 <_malloc_r+0x5ba>
   14f30:	6414                	ld	a3,8(s0)
   14f32:	fe8a8713          	addi	a4,s5,-24 # 3fe8 <register_fini-0xc0c8>
   14f36:	9b41                	andi	a4,a4,-16
   14f38:	8a85                	andi	a3,a3,1
   14f3a:	8ed9                	or	a3,a3,a4
   14f3c:	e414                	sd	a3,8(s0)
   14f3e:	45a5                	li	a1,9
   14f40:	00e406b3          	add	a3,s0,a4
   14f44:	e68c                	sd	a1,8(a3)
   14f46:	ea8c                	sd	a1,16(a3)
   14f48:	3ee66063          	bltu	a2,a4,15328 <_malloc_r+0x60c>
   14f4c:	008b3a03          	ld	s4,8(s6)
   14f50:	845a                	mv	s0,s6
   14f52:	78018713          	addi	a4,gp,1920 # 1ef20 <__malloc_max_sbrked_mem>
   14f56:	6318                	ld	a4,0(a4)
   14f58:	00f77463          	bgeu	a4,a5,14f60 <_malloc_r+0x244>
   14f5c:	78f1b023          	sd	a5,1920(gp) # 1ef20 <__malloc_max_sbrked_mem>
   14f60:	77818713          	addi	a4,gp,1912 # 1ef18 <__malloc_max_total_mem>
   14f64:	6318                	ld	a4,0(a4)
   14f66:	22f77e63          	bgeu	a4,a5,151a2 <_malloc_r+0x486>
   14f6a:	76f1bc23          	sd	a5,1912(gp) # 1ef18 <__malloc_max_total_mem>
   14f6e:	ac15                	j	151a2 <_malloc_r+0x486>
   14f70:	6f80                	ld	s0,24(a5)
   14f72:	2609                	addiw	a2,a2,2
   14f74:	de879ce3          	bne	a5,s0,14d6c <_malloc_r+0x50>
   14f78:	0209b403          	ld	s0,32(s3)
   14f7c:	00009817          	auipc	a6,0x9
   14f80:	73c80813          	addi	a6,a6,1852 # 1e6b8 <__malloc_av_+0x10>
   14f84:	eb040ae3          	beq	s0,a6,14e38 <_malloc_r+0x11c>
   14f88:	641c                	ld	a5,8(s0)
   14f8a:	46fd                	li	a3,31
   14f8c:	9bf1                	andi	a5,a5,-4
   14f8e:	40978733          	sub	a4,a5,s1
   14f92:	1ce6ca63          	blt	a3,a4,15166 <_malloc_r+0x44a>
   14f96:	00009697          	auipc	a3,0x9
   14f9a:	7306bd23          	sd	a6,1850(a3) # 1e6d0 <__malloc_av_+0x28>
   14f9e:	00009697          	auipc	a3,0x9
   14fa2:	7306b523          	sd	a6,1834(a3) # 1e6c8 <__malloc_av_+0x20>
   14fa6:	0e075563          	bgez	a4,15090 <_malloc_r+0x374>
   14faa:	1ff00713          	li	a4,511
   14fae:	12f76063          	bltu	a4,a5,150ce <_malloc_r+0x3b2>
   14fb2:	838d                	srli	a5,a5,0x3
   14fb4:	2781                	sext.w	a5,a5
   14fb6:	0017871b          	addiw	a4,a5,1
   14fba:	0017171b          	slliw	a4,a4,0x1
   14fbe:	070e                	slli	a4,a4,0x3
   14fc0:	0089b503          	ld	a0,8(s3)
   14fc4:	974e                	add	a4,a4,s3
   14fc6:	630c                	ld	a1,0(a4)
   14fc8:	4027d69b          	sraiw	a3,a5,0x2
   14fcc:	4785                	li	a5,1
   14fce:	00d797b3          	sll	a5,a5,a3
   14fd2:	8fc9                	or	a5,a5,a0
   14fd4:	ff070693          	addi	a3,a4,-16 # 1ff0 <register_fini-0xe0c0>
   14fd8:	ec14                	sd	a3,24(s0)
   14fda:	e80c                	sd	a1,16(s0)
   14fdc:	00009697          	auipc	a3,0x9
   14fe0:	6cf6ba23          	sd	a5,1748(a3) # 1e6b0 <__malloc_av_+0x8>
   14fe4:	e300                	sd	s0,0(a4)
   14fe6:	ed80                	sd	s0,24(a1)
   14fe8:	4026571b          	sraiw	a4,a2,0x2
   14fec:	4685                	li	a3,1
   14fee:	00e696b3          	sll	a3,a3,a4
   14ff2:	e4d7ece3          	bltu	a5,a3,14e4a <_malloc_r+0x12e>
   14ff6:	00f6f733          	and	a4,a3,a5
   14ffa:	ef01                	bnez	a4,15012 <_malloc_r+0x2f6>
   14ffc:	0686                	slli	a3,a3,0x1
   14ffe:	9a71                	andi	a2,a2,-4
   15000:	00f6f733          	and	a4,a3,a5
   15004:	2611                	addiw	a2,a2,4
   15006:	e711                	bnez	a4,15012 <_malloc_r+0x2f6>
   15008:	0686                	slli	a3,a3,0x1
   1500a:	00f6f733          	and	a4,a3,a5
   1500e:	2611                	addiw	a2,a2,4
   15010:	df65                	beqz	a4,15008 <_malloc_r+0x2ec>
   15012:	457d                	li	a0,31
   15014:	0016089b          	addiw	a7,a2,1
   15018:	0018989b          	slliw	a7,a7,0x1
   1501c:	088e                	slli	a7,a7,0x3
   1501e:	18c1                	addi	a7,a7,-16
   15020:	98ce                	add	a7,a7,s3
   15022:	85c6                	mv	a1,a7
   15024:	8332                	mv	t1,a2
   15026:	6d80                	ld	s0,24(a1)
   15028:	00859863          	bne	a1,s0,15038 <_malloc_r+0x31c>
   1502c:	a239                	j	1513a <_malloc_r+0x41e>
   1502e:	10075d63          	bgez	a4,15148 <_malloc_r+0x42c>
   15032:	6c00                	ld	s0,24(s0)
   15034:	10858363          	beq	a1,s0,1513a <_malloc_r+0x41e>
   15038:	641c                	ld	a5,8(s0)
   1503a:	9bf1                	andi	a5,a5,-4
   1503c:	40978733          	sub	a4,a5,s1
   15040:	fee557e3          	bge	a0,a4,1502e <_malloc_r+0x312>
   15044:	6c14                	ld	a3,24(s0)
   15046:	6810                	ld	a2,16(s0)
   15048:	0014e593          	ori	a1,s1,1
   1504c:	e40c                	sd	a1,8(s0)
   1504e:	ee14                	sd	a3,24(a2)
   15050:	ea90                	sd	a2,16(a3)
   15052:	94a2                	add	s1,s1,s0
   15054:	00009697          	auipc	a3,0x9
   15058:	6696be23          	sd	s1,1660(a3) # 1e6d0 <__malloc_av_+0x28>
   1505c:	00009697          	auipc	a3,0x9
   15060:	6696b623          	sd	s1,1644(a3) # 1e6c8 <__malloc_av_+0x20>
   15064:	00176693          	ori	a3,a4,1
   15068:	0104bc23          	sd	a6,24(s1)
   1506c:	0104b823          	sd	a6,16(s1)
   15070:	e494                	sd	a3,8(s1)
   15072:	97a2                	add	a5,a5,s0
   15074:	854a                	mv	a0,s2
   15076:	e398                	sd	a4,0(a5)
   15078:	400000ef          	jal	ra,15478 <__malloc_unlock>
   1507c:	01040513          	addi	a0,s0,16
   15080:	bb19                	j	14d96 <_malloc_r+0x7a>
   15082:	40000693          	li	a3,1024
   15086:	04000613          	li	a2,64
   1508a:	03f00513          	li	a0,63
   1508e:	b38d                	j	14df0 <_malloc_r+0xd4>
   15090:	97a2                	add	a5,a5,s0
   15092:	6798                	ld	a4,8(a5)
   15094:	854a                	mv	a0,s2
   15096:	00176713          	ori	a4,a4,1
   1509a:	e798                	sd	a4,8(a5)
   1509c:	3dc000ef          	jal	ra,15478 <__malloc_unlock>
   150a0:	01040513          	addi	a0,s0,16
   150a4:	b9cd                	j	14d96 <_malloc_r+0x7a>
   150a6:	0014e713          	ori	a4,s1,1
   150aa:	e418                	sd	a4,8(s0)
   150ac:	94a2                	add	s1,s1,s0
   150ae:	00009717          	auipc	a4,0x9
   150b2:	60973523          	sd	s1,1546(a4) # 1e6b8 <__malloc_av_+0x10>
   150b6:	0017e793          	ori	a5,a5,1
   150ba:	854a                	mv	a0,s2
   150bc:	e49c                	sd	a5,8(s1)
   150be:	3ba000ef          	jal	ra,15478 <__malloc_unlock>
   150c2:	01040513          	addi	a0,s0,16
   150c6:	b9c1                	j	14d96 <_malloc_r+0x7a>
   150c8:	6c14                	ld	a3,24(s0)
   150ca:	6810                	ld	a2,16(s0)
   150cc:	b165                	j	14d74 <_malloc_r+0x58>
   150ce:	0097d713          	srli	a4,a5,0x9
   150d2:	4691                	li	a3,4
   150d4:	0ae6f663          	bgeu	a3,a4,15180 <_malloc_r+0x464>
   150d8:	46d1                	li	a3,20
   150da:	18e6e663          	bltu	a3,a4,15266 <_malloc_r+0x54a>
   150de:	2701                	sext.w	a4,a4
   150e0:	05c7059b          	addiw	a1,a4,92
   150e4:	0015959b          	slliw	a1,a1,0x1
   150e8:	05b7069b          	addiw	a3,a4,91
   150ec:	058e                	slli	a1,a1,0x3
   150ee:	95ce                	add	a1,a1,s3
   150f0:	6198                	ld	a4,0(a1)
   150f2:	15c1                	addi	a1,a1,-16
   150f4:	12e58263          	beq	a1,a4,15218 <_malloc_r+0x4fc>
   150f8:	6714                	ld	a3,8(a4)
   150fa:	9af1                	andi	a3,a3,-4
   150fc:	00d7f563          	bgeu	a5,a3,15106 <_malloc_r+0x3ea>
   15100:	6b18                	ld	a4,16(a4)
   15102:	fee59be3          	bne	a1,a4,150f8 <_malloc_r+0x3dc>
   15106:	6f0c                	ld	a1,24(a4)
   15108:	0089b783          	ld	a5,8(s3)
   1510c:	ec0c                	sd	a1,24(s0)
   1510e:	e818                	sd	a4,16(s0)
   15110:	e980                	sd	s0,16(a1)
   15112:	ef00                	sd	s0,24(a4)
   15114:	bdd1                	j	14fe8 <_malloc_r+0x2cc>
   15116:	4751                	li	a4,20
   15118:	0af77363          	bgeu	a4,a5,151be <_malloc_r+0x4a2>
   1511c:	05400713          	li	a4,84
   15120:	16f76263          	bltu	a4,a5,15284 <_malloc_r+0x568>
   15124:	00c4d513          	srli	a0,s1,0xc
   15128:	2501                	sext.w	a0,a0
   1512a:	06f5061b          	addiw	a2,a0,111
   1512e:	0016169b          	slliw	a3,a2,0x1
   15132:	06e5051b          	addiw	a0,a0,110
   15136:	068e                	slli	a3,a3,0x3
   15138:	b965                	j	14df0 <_malloc_r+0xd4>
   1513a:	2305                	addiw	t1,t1,1
   1513c:	00337793          	andi	a5,t1,3
   15140:	05c1                	addi	a1,a1,16
   15142:	ee0792e3          	bnez	a5,15026 <_malloc_r+0x30a>
   15146:	a851                	j	151da <_malloc_r+0x4be>
   15148:	97a2                	add	a5,a5,s0
   1514a:	6798                	ld	a4,8(a5)
   1514c:	6c14                	ld	a3,24(s0)
   1514e:	6810                	ld	a2,16(s0)
   15150:	00176713          	ori	a4,a4,1
   15154:	e798                	sd	a4,8(a5)
   15156:	ee14                	sd	a3,24(a2)
   15158:	854a                	mv	a0,s2
   1515a:	ea90                	sd	a2,16(a3)
   1515c:	31c000ef          	jal	ra,15478 <__malloc_unlock>
   15160:	01040513          	addi	a0,s0,16
   15164:	b90d                	j	14d96 <_malloc_r+0x7a>
   15166:	0014e693          	ori	a3,s1,1
   1516a:	e414                	sd	a3,8(s0)
   1516c:	b5dd                	j	15052 <_malloc_r+0x336>
   1516e:	0034d613          	srli	a2,s1,0x3
   15172:	2601                	sext.w	a2,a2
   15174:	0016079b          	addiw	a5,a2,1
   15178:	0017979b          	slliw	a5,a5,0x1
   1517c:	078e                	slli	a5,a5,0x3
   1517e:	bee9                	j	14d58 <_malloc_r+0x3c>
   15180:	0067d713          	srli	a4,a5,0x6
   15184:	2701                	sext.w	a4,a4
   15186:	0397059b          	addiw	a1,a4,57
   1518a:	0015959b          	slliw	a1,a1,0x1
   1518e:	0387069b          	addiw	a3,a4,56
   15192:	058e                	slli	a1,a1,0x3
   15194:	bfa9                	j	150ee <_malloc_r+0x3d2>
   15196:	11340663          	beq	s0,s3,152a2 <_malloc_r+0x586>
   1519a:	0109b403          	ld	s0,16(s3)
   1519e:	00843a03          	ld	s4,8(s0)
   151a2:	ffca7a13          	andi	s4,s4,-4
   151a6:	409a07b3          	sub	a5,s4,s1
   151aa:	009a6563          	bltu	s4,s1,151b4 <_malloc_r+0x498>
   151ae:	477d                	li	a4,31
   151b0:	eef74be3          	blt	a4,a5,150a6 <_malloc_r+0x38a>
   151b4:	854a                	mv	a0,s2
   151b6:	2c2000ef          	jal	ra,15478 <__malloc_unlock>
   151ba:	4501                	li	a0,0
   151bc:	bee9                	j	14d96 <_malloc_r+0x7a>
   151be:	2781                	sext.w	a5,a5
   151c0:	05c7861b          	addiw	a2,a5,92
   151c4:	0016169b          	slliw	a3,a2,0x1
   151c8:	05b7851b          	addiw	a0,a5,91
   151cc:	068e                	slli	a3,a3,0x3
   151ce:	b10d                	j	14df0 <_malloc_r+0xd4>
   151d0:	0108b783          	ld	a5,16(a7)
   151d4:	367d                	addiw	a2,a2,-1
   151d6:	1b179063          	bne	a5,a7,15376 <_malloc_r+0x65a>
   151da:	00367793          	andi	a5,a2,3
   151de:	18c1                	addi	a7,a7,-16
   151e0:	fbe5                	bnez	a5,151d0 <_malloc_r+0x4b4>
   151e2:	0089b703          	ld	a4,8(s3)
   151e6:	fff6c793          	not	a5,a3
   151ea:	8ff9                	and	a5,a5,a4
   151ec:	00009717          	auipc	a4,0x9
   151f0:	4cf73223          	sd	a5,1220(a4) # 1e6b0 <__malloc_av_+0x8>
   151f4:	0686                	slli	a3,a3,0x1
   151f6:	c4d7eae3          	bltu	a5,a3,14e4a <_malloc_r+0x12e>
   151fa:	c40688e3          	beqz	a3,14e4a <_malloc_r+0x12e>
   151fe:	00f6f733          	and	a4,a3,a5
   15202:	e711                	bnez	a4,1520e <_malloc_r+0x4f2>
   15204:	0686                	slli	a3,a3,0x1
   15206:	00f6f733          	and	a4,a3,a5
   1520a:	2311                	addiw	t1,t1,4
   1520c:	df65                	beqz	a4,15204 <_malloc_r+0x4e8>
   1520e:	861a                	mv	a2,t1
   15210:	b511                	j	15014 <_malloc_r+0x2f8>
   15212:	020a0a13          	addi	s4,s4,32
   15216:	b99d                	j	14e8c <_malloc_r+0x170>
   15218:	0089b503          	ld	a0,8(s3)
   1521c:	4026d69b          	sraiw	a3,a3,0x2
   15220:	4785                	li	a5,1
   15222:	00d797b3          	sll	a5,a5,a3
   15226:	8fc9                	or	a5,a5,a0
   15228:	00009697          	auipc	a3,0x9
   1522c:	48f6b423          	sd	a5,1160(a3) # 1e6b0 <__malloc_av_+0x8>
   15230:	bdf1                	j	1510c <_malloc_r+0x3f0>
   15232:	6785                	lui	a5,0x1
   15234:	fff78713          	addi	a4,a5,-1 # fff <register_fini-0xf0b1>
   15238:	014b0bb3          	add	s7,s6,s4
   1523c:	00ebfbb3          	and	s7,s7,a4
   15240:	417787b3          	sub	a5,a5,s7
   15244:	00e7fbb3          	and	s7,a5,a4
   15248:	85de                	mv	a1,s7
   1524a:	854a                	mv	a0,s2
   1524c:	54d000ef          	jal	ra,15f98 <_sbrk_r>
   15250:	57fd                	li	a5,-1
   15252:	4701                	li	a4,0
   15254:	caf50ce3          	beq	a0,a5,14f0c <_malloc_r+0x1f0>
   15258:	41650533          	sub	a0,a0,s6
   1525c:	000b871b          	sext.w	a4,s7
   15260:	01750a33          	add	s4,a0,s7
   15264:	b165                	j	14f0c <_malloc_r+0x1f0>
   15266:	05400693          	li	a3,84
   1526a:	06e6ea63          	bltu	a3,a4,152de <_malloc_r+0x5c2>
   1526e:	00c7d713          	srli	a4,a5,0xc
   15272:	2701                	sext.w	a4,a4
   15274:	06f7059b          	addiw	a1,a4,111
   15278:	0015959b          	slliw	a1,a1,0x1
   1527c:	06e7069b          	addiw	a3,a4,110
   15280:	058e                	slli	a1,a1,0x3
   15282:	b5b5                	j	150ee <_malloc_r+0x3d2>
   15284:	15400713          	li	a4,340
   15288:	06f76a63          	bltu	a4,a5,152fc <_malloc_r+0x5e0>
   1528c:	00f4d513          	srli	a0,s1,0xf
   15290:	2501                	sext.w	a0,a0
   15292:	0785061b          	addiw	a2,a0,120
   15296:	0016169b          	slliw	a3,a2,0x1
   1529a:	0775051b          	addiw	a0,a0,119
   1529e:	068e                	slli	a3,a3,0x3
   152a0:	be81                	j	14df0 <_malloc_r+0xd4>
   152a2:	7d018c93          	addi	s9,gp,2000 # 1ef70 <__malloc_current_mallinfo>
   152a6:	000ca783          	lw	a5,0(s9)
   152aa:	014786bb          	addw	a3,a5,s4
   152ae:	7cd1a823          	sw	a3,2000(gp) # 1ef70 <__malloc_current_mallinfo>
   152b2:	b111                	j	14eb6 <_malloc_r+0x19a>
   152b4:	034b9713          	slli	a4,s7,0x34
   152b8:	be071fe3          	bnez	a4,14eb6 <_malloc_r+0x19a>
   152bc:	0109b403          	ld	s0,16(s3)
   152c0:	9a56                	add	s4,s4,s5
   152c2:	001a6a13          	ori	s4,s4,1
   152c6:	01443423          	sd	s4,8(s0)
   152ca:	b161                	j	14f52 <_malloc_r+0x236>
   152cc:	7761b023          	sd	s6,1888(gp) # 1ef00 <__malloc_sbrk_base>
   152d0:	beed                	j	14eca <_malloc_r+0x1ae>
   152d2:	845a                	mv	s0,s6
   152d4:	b9bd                	j	14f52 <_malloc_r+0x236>
   152d6:	4785                	li	a5,1
   152d8:	00fb3423          	sd	a5,8(s6)
   152dc:	bde1                	j	151b4 <_malloc_r+0x498>
   152de:	15400693          	li	a3,340
   152e2:	04e6ef63          	bltu	a3,a4,15340 <_malloc_r+0x624>
   152e6:	00f7d713          	srli	a4,a5,0xf
   152ea:	2701                	sext.w	a4,a4
   152ec:	0787059b          	addiw	a1,a4,120
   152f0:	0015959b          	slliw	a1,a1,0x1
   152f4:	0777069b          	addiw	a3,a4,119
   152f8:	058e                	slli	a1,a1,0x3
   152fa:	bbd5                	j	150ee <_malloc_r+0x3d2>
   152fc:	55400713          	li	a4,1364
   15300:	04f76f63          	bltu	a4,a5,1535e <_malloc_r+0x642>
   15304:	0124d513          	srli	a0,s1,0x12
   15308:	2501                	sext.w	a0,a0
   1530a:	07d5061b          	addiw	a2,a0,125
   1530e:	0016169b          	slliw	a3,a2,0x1
   15312:	07c5051b          	addiw	a0,a0,124
   15316:	068e                	slli	a3,a3,0x3
   15318:	bce1                	j	14df0 <_malloc_r+0xd4>
   1531a:	1bc1                	addi	s7,s7,-16
   1531c:	017c0a33          	add	s4,s8,s7
   15320:	416a0a33          	sub	s4,s4,s6
   15324:	4701                	li	a4,0
   15326:	b6dd                	j	14f0c <_malloc_r+0x1f0>
   15328:	01040593          	addi	a1,s0,16
   1532c:	854a                	mv	a0,s2
   1532e:	c24fd0ef          	jal	ra,12752 <_free_r>
   15332:	0109b403          	ld	s0,16(s3)
   15336:	000ca783          	lw	a5,0(s9)
   1533a:	00843a03          	ld	s4,8(s0)
   1533e:	b911                	j	14f52 <_malloc_r+0x236>
   15340:	55400693          	li	a3,1364
   15344:	02e6e463          	bltu	a3,a4,1536c <_malloc_r+0x650>
   15348:	0127d713          	srli	a4,a5,0x12
   1534c:	2701                	sext.w	a4,a4
   1534e:	07d7059b          	addiw	a1,a4,125
   15352:	0015959b          	slliw	a1,a1,0x1
   15356:	07c7069b          	addiw	a3,a4,124
   1535a:	058e                	slli	a1,a1,0x3
   1535c:	bb49                	j	150ee <_malloc_r+0x3d2>
   1535e:	7f000693          	li	a3,2032
   15362:	07f00613          	li	a2,127
   15366:	07e00513          	li	a0,126
   1536a:	b459                	j	14df0 <_malloc_r+0xd4>
   1536c:	7f000593          	li	a1,2032
   15370:	07e00693          	li	a3,126
   15374:	bbad                	j	150ee <_malloc_r+0x3d2>
   15376:	0089b783          	ld	a5,8(s3)
   1537a:	bdad                	j	151f4 <_malloc_r+0x4d8>

000000000001537c <_mbtowc_r>:
   1537c:	d6018793          	addi	a5,gp,-672 # 1e500 <__global_locale>
   15380:	0e87b303          	ld	t1,232(a5)
   15384:	8302                	jr	t1

0000000000015386 <__ascii_mbtowc>:
   15386:	c999                	beqz	a1,1539c <__ascii_mbtowc+0x16>
   15388:	c61d                	beqz	a2,153b6 <__ascii_mbtowc+0x30>
   1538a:	ca95                	beqz	a3,153be <__ascii_mbtowc+0x38>
   1538c:	00064783          	lbu	a5,0(a2)
   15390:	c19c                	sw	a5,0(a1)
   15392:	00064503          	lbu	a0,0(a2)
   15396:	00a03533          	snez	a0,a0
   1539a:	8082                	ret
   1539c:	1141                	addi	sp,sp,-16
   1539e:	006c                	addi	a1,sp,12
   153a0:	ce09                	beqz	a2,153ba <__ascii_mbtowc+0x34>
   153a2:	c285                	beqz	a3,153c2 <__ascii_mbtowc+0x3c>
   153a4:	00064783          	lbu	a5,0(a2)
   153a8:	c19c                	sw	a5,0(a1)
   153aa:	00064503          	lbu	a0,0(a2)
   153ae:	00a03533          	snez	a0,a0
   153b2:	0141                	addi	sp,sp,16
   153b4:	8082                	ret
   153b6:	4501                	li	a0,0
   153b8:	8082                	ret
   153ba:	4501                	li	a0,0
   153bc:	bfdd                	j	153b2 <__ascii_mbtowc+0x2c>
   153be:	5579                	li	a0,-2
   153c0:	8082                	ret
   153c2:	5579                	li	a0,-2
   153c4:	b7fd                	j	153b2 <__ascii_mbtowc+0x2c>

00000000000153c6 <memchr>:
   153c6:	00757793          	andi	a5,a0,7
   153ca:	0ff5f813          	andi	a6,a1,255
   153ce:	c3d5                	beqz	a5,15472 <memchr+0xac>
   153d0:	fff60793          	addi	a5,a2,-1
   153d4:	c239                	beqz	a2,1541a <memchr+0x54>
   153d6:	00054703          	lbu	a4,0(a0)
   153da:	05070163          	beq	a4,a6,1541c <memchr+0x56>
   153de:	56fd                	li	a3,-1
   153e0:	a801                	j	153f0 <memchr+0x2a>
   153e2:	17fd                	addi	a5,a5,-1
   153e4:	02d78b63          	beq	a5,a3,1541a <memchr+0x54>
   153e8:	00054703          	lbu	a4,0(a0)
   153ec:	03070863          	beq	a4,a6,1541c <memchr+0x56>
   153f0:	0505                	addi	a0,a0,1
   153f2:	00757713          	andi	a4,a0,7
   153f6:	f775                	bnez	a4,153e2 <memchr+0x1c>
   153f8:	471d                	li	a4,7
   153fa:	02f76263          	bltu	a4,a5,1541e <memchr+0x58>
   153fe:	cf91                	beqz	a5,1541a <memchr+0x54>
   15400:	00054703          	lbu	a4,0(a0)
   15404:	01070c63          	beq	a4,a6,1541c <memchr+0x56>
   15408:	97aa                	add	a5,a5,a0
   1540a:	a029                	j	15414 <memchr+0x4e>
   1540c:	00054703          	lbu	a4,0(a0)
   15410:	01070663          	beq	a4,a6,1541c <memchr+0x56>
   15414:	0505                	addi	a0,a0,1
   15416:	fea79be3          	bne	a5,a0,1540c <memchr+0x46>
   1541a:	4501                	li	a0,0
   1541c:	8082                	ret
   1541e:	66c1                	lui	a3,0x10
   15420:	0085971b          	slliw	a4,a1,0x8
   15424:	16fd                	addi	a3,a3,-1
   15426:	8f75                	and	a4,a4,a3
   15428:	0ff5f593          	andi	a1,a1,255
   1542c:	8dd9                	or	a1,a1,a4
   1542e:	2581                	sext.w	a1,a1
   15430:	0000a697          	auipc	a3,0xa
   15434:	a8868693          	addi	a3,a3,-1400 # 1eeb8 <__SDATA_BEGIN__>
   15438:	01059613          	slli	a2,a1,0x10
   1543c:	0006b883          	ld	a7,0(a3)
   15440:	0000a697          	auipc	a3,0xa
   15444:	a8068693          	addi	a3,a3,-1408 # 1eec0 <__SDATA_BEGIN__+0x8>
   15448:	00b66733          	or	a4,a2,a1
   1544c:	628c                	ld	a1,0(a3)
   1544e:	02071613          	slli	a2,a4,0x20
   15452:	8e59                	or	a2,a2,a4
   15454:	431d                	li	t1,7
   15456:	6118                	ld	a4,0(a0)
   15458:	8f31                	xor	a4,a4,a2
   1545a:	011706b3          	add	a3,a4,a7
   1545e:	fff74713          	not	a4,a4
   15462:	8f75                	and	a4,a4,a3
   15464:	8f6d                	and	a4,a4,a1
   15466:	ff49                	bnez	a4,15400 <memchr+0x3a>
   15468:	17e1                	addi	a5,a5,-8
   1546a:	0521                	addi	a0,a0,8
   1546c:	fef365e3          	bltu	t1,a5,15456 <memchr+0x90>
   15470:	b779                	j	153fe <memchr+0x38>
   15472:	87b2                	mv	a5,a2
   15474:	b751                	j	153f8 <memchr+0x32>

0000000000015476 <__malloc_lock>:
   15476:	8082                	ret

0000000000015478 <__malloc_unlock>:
   15478:	8082                	ret

000000000001547a <_Balloc>:
   1547a:	7d3c                	ld	a5,120(a0)
   1547c:	1101                	addi	sp,sp,-32
   1547e:	e822                	sd	s0,16(sp)
   15480:	e426                	sd	s1,8(sp)
   15482:	ec06                	sd	ra,24(sp)
   15484:	e04a                	sd	s2,0(sp)
   15486:	842a                	mv	s0,a0
   15488:	84ae                	mv	s1,a1
   1548a:	c385                	beqz	a5,154aa <_Balloc+0x30>
   1548c:	00349713          	slli	a4,s1,0x3
   15490:	97ba                	add	a5,a5,a4
   15492:	6388                	ld	a0,0(a5)
   15494:	c50d                	beqz	a0,154be <_Balloc+0x44>
   15496:	6118                	ld	a4,0(a0)
   15498:	e398                	sd	a4,0(a5)
   1549a:	00053823          	sd	zero,16(a0)
   1549e:	60e2                	ld	ra,24(sp)
   154a0:	6442                	ld	s0,16(sp)
   154a2:	64a2                	ld	s1,8(sp)
   154a4:	6902                	ld	s2,0(sp)
   154a6:	6105                	addi	sp,sp,32
   154a8:	8082                	ret
   154aa:	04100613          	li	a2,65
   154ae:	45a1                	li	a1,8
   154b0:	1b1030ef          	jal	ra,18e60 <_calloc_r>
   154b4:	fc28                	sd	a0,120(s0)
   154b6:	87aa                	mv	a5,a0
   154b8:	f971                	bnez	a0,1548c <_Balloc+0x12>
   154ba:	4501                	li	a0,0
   154bc:	b7cd                	j	1549e <_Balloc+0x24>
   154be:	4905                	li	s2,1
   154c0:	0099193b          	sllw	s2,s2,s1
   154c4:	fff9061b          	addiw	a2,s2,-1
   154c8:	0621                	addi	a2,a2,8
   154ca:	060a                	slli	a2,a2,0x2
   154cc:	4585                	li	a1,1
   154ce:	8522                	mv	a0,s0
   154d0:	191030ef          	jal	ra,18e60 <_calloc_r>
   154d4:	d17d                	beqz	a0,154ba <_Balloc+0x40>
   154d6:	c504                	sw	s1,8(a0)
   154d8:	01252623          	sw	s2,12(a0)
   154dc:	bf7d                	j	1549a <_Balloc+0x20>

00000000000154de <_Bfree>:
   154de:	c981                	beqz	a1,154ee <_Bfree+0x10>
   154e0:	4598                	lw	a4,8(a1)
   154e2:	7d3c                	ld	a5,120(a0)
   154e4:	070e                	slli	a4,a4,0x3
   154e6:	97ba                	add	a5,a5,a4
   154e8:	6398                	ld	a4,0(a5)
   154ea:	e198                	sd	a4,0(a1)
   154ec:	e38c                	sd	a1,0(a5)
   154ee:	8082                	ret

00000000000154f0 <__multadd>:
   154f0:	7139                	addi	sp,sp,-64
   154f2:	6841                	lui	a6,0x10
   154f4:	f822                	sd	s0,48(sp)
   154f6:	f426                	sd	s1,40(sp)
   154f8:	f04a                	sd	s2,32(sp)
   154fa:	84ae                	mv	s1,a1
   154fc:	49c0                	lw	s0,20(a1)
   154fe:	892a                	mv	s2,a0
   15500:	fc06                	sd	ra,56(sp)
   15502:	ec4e                	sd	s3,24(sp)
   15504:	05e1                	addi	a1,a1,24
   15506:	4501                	li	a0,0
   15508:	187d                	addi	a6,a6,-1
   1550a:	419c                	lw	a5,0(a1)
   1550c:	0591                	addi	a1,a1,4
   1550e:	2505                	addiw	a0,a0,1
   15510:	0107f733          	and	a4,a5,a6
   15514:	02c7073b          	mulw	a4,a4,a2
   15518:	0107d79b          	srliw	a5,a5,0x10
   1551c:	02c787bb          	mulw	a5,a5,a2
   15520:	9eb9                	addw	a3,a3,a4
   15522:	0106d89b          	srliw	a7,a3,0x10
   15526:	00d87733          	and	a4,a6,a3
   1552a:	011786bb          	addw	a3,a5,a7
   1552e:	0106979b          	slliw	a5,a3,0x10
   15532:	9f3d                	addw	a4,a4,a5
   15534:	fee5ae23          	sw	a4,-4(a1)
   15538:	0106d69b          	srliw	a3,a3,0x10
   1553c:	fc8547e3          	blt	a0,s0,1550a <__multadd+0x1a>
   15540:	ca99                	beqz	a3,15556 <__multadd+0x66>
   15542:	44dc                	lw	a5,12(s1)
   15544:	02f45163          	bge	s0,a5,15566 <__multadd+0x76>
   15548:	00440793          	addi	a5,s0,4
   1554c:	078a                	slli	a5,a5,0x2
   1554e:	97a6                	add	a5,a5,s1
   15550:	c794                	sw	a3,8(a5)
   15552:	2405                	addiw	s0,s0,1
   15554:	c8c0                	sw	s0,20(s1)
   15556:	70e2                	ld	ra,56(sp)
   15558:	7442                	ld	s0,48(sp)
   1555a:	8526                	mv	a0,s1
   1555c:	7902                	ld	s2,32(sp)
   1555e:	74a2                	ld	s1,40(sp)
   15560:	69e2                	ld	s3,24(sp)
   15562:	6121                	addi	sp,sp,64
   15564:	8082                	ret
   15566:	448c                	lw	a1,8(s1)
   15568:	854a                	mv	a0,s2
   1556a:	e436                	sd	a3,8(sp)
   1556c:	2585                	addiw	a1,a1,1
   1556e:	f0dff0ef          	jal	ra,1547a <_Balloc>
   15572:	48d0                	lw	a2,20(s1)
   15574:	89aa                	mv	s3,a0
   15576:	01048593          	addi	a1,s1,16
   1557a:	0609                	addi	a2,a2,2
   1557c:	0541                	addi	a0,a0,16
   1557e:	060a                	slli	a2,a2,0x2
   15580:	777030ef          	jal	ra,194f6 <memcpy>
   15584:	4498                	lw	a4,8(s1)
   15586:	07893783          	ld	a5,120(s2)
   1558a:	66a2                	ld	a3,8(sp)
   1558c:	070e                	slli	a4,a4,0x3
   1558e:	97ba                	add	a5,a5,a4
   15590:	6398                	ld	a4,0(a5)
   15592:	e098                	sd	a4,0(s1)
   15594:	e384                	sd	s1,0(a5)
   15596:	00440793          	addi	a5,s0,4
   1559a:	84ce                	mv	s1,s3
   1559c:	078a                	slli	a5,a5,0x2
   1559e:	97a6                	add	a5,a5,s1
   155a0:	c794                	sw	a3,8(a5)
   155a2:	2405                	addiw	s0,s0,1
   155a4:	c8c0                	sw	s0,20(s1)
   155a6:	bf45                	j	15556 <__multadd+0x66>

00000000000155a8 <__s2b>:
   155a8:	7139                	addi	sp,sp,-64
   155aa:	f822                	sd	s0,48(sp)
   155ac:	f426                	sd	s1,40(sp)
   155ae:	f04a                	sd	s2,32(sp)
   155b0:	ec4e                	sd	s3,24(sp)
   155b2:	e852                	sd	s4,16(sp)
   155b4:	84b6                	mv	s1,a3
   155b6:	89ba                	mv	s3,a4
   155b8:	26a1                	addiw	a3,a3,8
   155ba:	4725                	li	a4,9
   155bc:	fc06                	sd	ra,56(sp)
   155be:	e456                	sd	s5,8(sp)
   155c0:	e05a                	sd	s6,0(sp)
   155c2:	47a5                	li	a5,9
   155c4:	892a                	mv	s2,a0
   155c6:	842e                	mv	s0,a1
   155c8:	8a32                	mv	s4,a2
   155ca:	02e6c6bb          	divw	a3,a3,a4
   155ce:	0897df63          	bge	a5,s1,1566c <__s2b+0xc4>
   155d2:	4785                	li	a5,1
   155d4:	4581                	li	a1,0
   155d6:	0017979b          	slliw	a5,a5,0x1
   155da:	2585                	addiw	a1,a1,1
   155dc:	fed7cde3          	blt	a5,a3,155d6 <__s2b+0x2e>
   155e0:	854a                	mv	a0,s2
   155e2:	e99ff0ef          	jal	ra,1547a <_Balloc>
   155e6:	4785                	li	a5,1
   155e8:	c95c                	sw	a5,20(a0)
   155ea:	01352c23          	sw	s3,24(a0)
   155ee:	47a5                	li	a5,9
   155f0:	0747db63          	bge	a5,s4,15666 <__s2b+0xbe>
   155f4:	ff6a0a9b          	addiw	s5,s4,-10
   155f8:	1a82                	slli	s5,s5,0x20
   155fa:	020ada93          	srli	s5,s5,0x20
   155fe:	00940b13          	addi	s6,s0,9
   15602:	00aa8793          	addi	a5,s5,10
   15606:	943e                	add	s0,s0,a5
   15608:	89da                	mv	s3,s6
   1560a:	0985                	addi	s3,s3,1
   1560c:	fff9c683          	lbu	a3,-1(s3)
   15610:	85aa                	mv	a1,a0
   15612:	4629                	li	a2,10
   15614:	fd06869b          	addiw	a3,a3,-48
   15618:	854a                	mv	a0,s2
   1561a:	ed7ff0ef          	jal	ra,154f0 <__multadd>
   1561e:	fe8996e3          	bne	s3,s0,1560a <__s2b+0x62>
   15622:	002a8413          	addi	s0,s5,2
   15626:	945a                	add	s0,s0,s6
   15628:	029a5563          	bge	s4,s1,15652 <__s2b+0xaa>
   1562c:	34fd                	addiw	s1,s1,-1
   1562e:	414484bb          	subw	s1,s1,s4
   15632:	1482                	slli	s1,s1,0x20
   15634:	9081                	srli	s1,s1,0x20
   15636:	0485                	addi	s1,s1,1
   15638:	94a2                	add	s1,s1,s0
   1563a:	0405                	addi	s0,s0,1
   1563c:	fff44683          	lbu	a3,-1(s0)
   15640:	85aa                	mv	a1,a0
   15642:	4629                	li	a2,10
   15644:	fd06869b          	addiw	a3,a3,-48
   15648:	854a                	mv	a0,s2
   1564a:	ea7ff0ef          	jal	ra,154f0 <__multadd>
   1564e:	fe9416e3          	bne	s0,s1,1563a <__s2b+0x92>
   15652:	70e2                	ld	ra,56(sp)
   15654:	7442                	ld	s0,48(sp)
   15656:	74a2                	ld	s1,40(sp)
   15658:	7902                	ld	s2,32(sp)
   1565a:	69e2                	ld	s3,24(sp)
   1565c:	6a42                	ld	s4,16(sp)
   1565e:	6aa2                	ld	s5,8(sp)
   15660:	6b02                	ld	s6,0(sp)
   15662:	6121                	addi	sp,sp,64
   15664:	8082                	ret
   15666:	0429                	addi	s0,s0,10
   15668:	4a25                	li	s4,9
   1566a:	bf7d                	j	15628 <__s2b+0x80>
   1566c:	4581                	li	a1,0
   1566e:	bf8d                	j	155e0 <__s2b+0x38>

0000000000015670 <__hi0bits>:
   15670:	7741                	lui	a4,0xffff0
   15672:	8f69                	and	a4,a4,a0
   15674:	87aa                	mv	a5,a0
   15676:	4501                	li	a0,0
   15678:	e701                	bnez	a4,15680 <__hi0bits+0x10>
   1567a:	0107979b          	slliw	a5,a5,0x10
   1567e:	4541                	li	a0,16
   15680:	ff000737          	lui	a4,0xff000
   15684:	8f7d                	and	a4,a4,a5
   15686:	e701                	bnez	a4,1568e <__hi0bits+0x1e>
   15688:	0087979b          	slliw	a5,a5,0x8
   1568c:	2521                	addiw	a0,a0,8
   1568e:	f0000737          	lui	a4,0xf0000
   15692:	8f7d                	and	a4,a4,a5
   15694:	e701                	bnez	a4,1569c <__hi0bits+0x2c>
   15696:	0047979b          	slliw	a5,a5,0x4
   1569a:	2511                	addiw	a0,a0,4
   1569c:	c0000737          	lui	a4,0xc0000
   156a0:	8f7d                	and	a4,a4,a5
   156a2:	e701                	bnez	a4,156aa <__hi0bits+0x3a>
   156a4:	0027979b          	slliw	a5,a5,0x2
   156a8:	2509                	addiw	a0,a0,2
   156aa:	0007c763          	bltz	a5,156b8 <__hi0bits+0x48>
   156ae:	02179713          	slli	a4,a5,0x21
   156b2:	2505                	addiw	a0,a0,1
   156b4:	00075363          	bgez	a4,156ba <__hi0bits+0x4a>
   156b8:	8082                	ret
   156ba:	02000513          	li	a0,32
   156be:	8082                	ret

00000000000156c0 <__lo0bits>:
   156c0:	411c                	lw	a5,0(a0)
   156c2:	0077f713          	andi	a4,a5,7
   156c6:	863e                	mv	a2,a5
   156c8:	cf09                	beqz	a4,156e2 <__lo0bits+0x22>
   156ca:	0017f693          	andi	a3,a5,1
   156ce:	4701                	li	a4,0
   156d0:	e699                	bnez	a3,156de <__lo0bits+0x1e>
   156d2:	8a09                	andi	a2,a2,2
   156d4:	ce31                	beqz	a2,15730 <__lo0bits+0x70>
   156d6:	0017d79b          	srliw	a5,a5,0x1
   156da:	c11c                	sw	a5,0(a0)
   156dc:	4705                	li	a4,1
   156de:	853a                	mv	a0,a4
   156e0:	8082                	ret
   156e2:	03079693          	slli	a3,a5,0x30
   156e6:	92c1                	srli	a3,a3,0x30
   156e8:	4701                	li	a4,0
   156ea:	e681                	bnez	a3,156f2 <__lo0bits+0x32>
   156ec:	0107d79b          	srliw	a5,a5,0x10
   156f0:	4741                	li	a4,16
   156f2:	0ff7f693          	andi	a3,a5,255
   156f6:	e681                	bnez	a3,156fe <__lo0bits+0x3e>
   156f8:	2721                	addiw	a4,a4,8
   156fa:	0087d79b          	srliw	a5,a5,0x8
   156fe:	00f7f693          	andi	a3,a5,15
   15702:	e681                	bnez	a3,1570a <__lo0bits+0x4a>
   15704:	2711                	addiw	a4,a4,4
   15706:	0047d79b          	srliw	a5,a5,0x4
   1570a:	0037f693          	andi	a3,a5,3
   1570e:	e681                	bnez	a3,15716 <__lo0bits+0x56>
   15710:	2709                	addiw	a4,a4,2
   15712:	0027d79b          	srliw	a5,a5,0x2
   15716:	0017f693          	andi	a3,a5,1
   1571a:	e689                	bnez	a3,15724 <__lo0bits+0x64>
   1571c:	0017d79b          	srliw	a5,a5,0x1
   15720:	2705                	addiw	a4,a4,1
   15722:	c781                	beqz	a5,1572a <__lo0bits+0x6a>
   15724:	c11c                	sw	a5,0(a0)
   15726:	853a                	mv	a0,a4
   15728:	8082                	ret
   1572a:	02000713          	li	a4,32
   1572e:	bf45                	j	156de <__lo0bits+0x1e>
   15730:	0027d79b          	srliw	a5,a5,0x2
   15734:	4709                	li	a4,2
   15736:	c11c                	sw	a5,0(a0)
   15738:	853a                	mv	a0,a4
   1573a:	8082                	ret

000000000001573c <__i2b>:
   1573c:	1141                	addi	sp,sp,-16
   1573e:	e022                	sd	s0,0(sp)
   15740:	842e                	mv	s0,a1
   15742:	4585                	li	a1,1
   15744:	e406                	sd	ra,8(sp)
   15746:	d35ff0ef          	jal	ra,1547a <_Balloc>
   1574a:	cd00                	sw	s0,24(a0)
   1574c:	60a2                	ld	ra,8(sp)
   1574e:	6402                	ld	s0,0(sp)
   15750:	4705                	li	a4,1
   15752:	c958                	sw	a4,20(a0)
   15754:	0141                	addi	sp,sp,16
   15756:	8082                	ret

0000000000015758 <__multiply>:
   15758:	7179                	addi	sp,sp,-48
   1575a:	e44e                	sd	s3,8(sp)
   1575c:	e052                	sd	s4,0(sp)
   1575e:	01462983          	lw	s3,20(a2)
   15762:	0145aa03          	lw	s4,20(a1)
   15766:	ec26                	sd	s1,24(sp)
   15768:	e84a                	sd	s2,16(sp)
   1576a:	f406                	sd	ra,40(sp)
   1576c:	f022                	sd	s0,32(sp)
   1576e:	84ae                	mv	s1,a1
   15770:	8932                	mv	s2,a2
   15772:	013a4763          	blt	s4,s3,15780 <__multiply+0x28>
   15776:	87ce                	mv	a5,s3
   15778:	892e                	mv	s2,a1
   1577a:	89d2                	mv	s3,s4
   1577c:	84b2                	mv	s1,a2
   1577e:	8a3e                	mv	s4,a5
   15780:	00c92783          	lw	a5,12(s2)
   15784:	0149843b          	addw	s0,s3,s4
   15788:	00892583          	lw	a1,8(s2)
   1578c:	0087d363          	bge	a5,s0,15792 <__multiply+0x3a>
   15790:	2585                	addiw	a1,a1,1
   15792:	ce9ff0ef          	jal	ra,1547a <_Balloc>
   15796:	01850e13          	addi	t3,a0,24
   1579a:	00241313          	slli	t1,s0,0x2
   1579e:	9372                	add	t1,t1,t3
   157a0:	87f2                	mv	a5,t3
   157a2:	006e7763          	bgeu	t3,t1,157b0 <__multiply+0x58>
   157a6:	0007a023          	sw	zero,0(a5)
   157aa:	0791                	addi	a5,a5,4
   157ac:	fe67ede3          	bltu	a5,t1,157a6 <__multiply+0x4e>
   157b0:	01848593          	addi	a1,s1,24
   157b4:	002a1e93          	slli	t4,s4,0x2
   157b8:	01890613          	addi	a2,s2,24
   157bc:	00299893          	slli	a7,s3,0x2
   157c0:	6841                	lui	a6,0x10
   157c2:	9eae                	add	t4,t4,a1
   157c4:	98b2                	add	a7,a7,a2
   157c6:	187d                	addi	a6,a6,-1
   157c8:	01d5eb63          	bltu	a1,t4,157de <__multiply+0x86>
   157cc:	a0c5                	j	158ac <__multiply+0x154>
   157ce:	0102d29b          	srliw	t0,t0,0x10
   157d2:	06029b63          	bnez	t0,15848 <__multiply+0xf0>
   157d6:	0591                	addi	a1,a1,4
   157d8:	0e11                	addi	t3,t3,4
   157da:	0dd5f963          	bgeu	a1,t4,158ac <__multiply+0x154>
   157de:	0005a283          	lw	t0,0(a1)
   157e2:	0102f3b3          	and	t2,t0,a6
   157e6:	fe0384e3          	beqz	t2,157ce <__multiply+0x76>
   157ea:	8ff2                	mv	t6,t3
   157ec:	82b2                	mv	t0,a2
   157ee:	4481                	li	s1,0
   157f0:	0002a683          	lw	a3,0(t0) # 102d4 <memset+0x90>
   157f4:	000faf03          	lw	t5,0(t6)
   157f8:	0f91                	addi	t6,t6,4
   157fa:	0106f7b3          	and	a5,a3,a6
   157fe:	027787bb          	mulw	a5,a5,t2
   15802:	0106d71b          	srliw	a4,a3,0x10
   15806:	010f76b3          	and	a3,t5,a6
   1580a:	010f5f1b          	srliw	t5,t5,0x10
   1580e:	0291                	addi	t0,t0,4
   15810:	0277073b          	mulw	a4,a4,t2
   15814:	9fb5                	addw	a5,a5,a3
   15816:	9fa5                	addw	a5,a5,s1
   15818:	0107d69b          	srliw	a3,a5,0x10
   1581c:	00f877b3          	and	a5,a6,a5
   15820:	01e7073b          	addw	a4,a4,t5
   15824:	9f35                	addw	a4,a4,a3
   15826:	0107169b          	slliw	a3,a4,0x10
   1582a:	8fd5                	or	a5,a5,a3
   1582c:	feffae23          	sw	a5,-4(t6)
   15830:	0107549b          	srliw	s1,a4,0x10
   15834:	fb12eee3          	bltu	t0,a7,157f0 <__multiply+0x98>
   15838:	009fa023          	sw	s1,0(t6)
   1583c:	0005a283          	lw	t0,0(a1)
   15840:	0102d29b          	srliw	t0,t0,0x10
   15844:	f80289e3          	beqz	t0,157d6 <__multiply+0x7e>
   15848:	000e2683          	lw	a3,0(t3)
   1584c:	8ff2                	mv	t6,t3
   1584e:	8f32                	mv	t5,a2
   15850:	83b6                	mv	t2,a3
   15852:	4701                	li	a4,0
   15854:	000f2783          	lw	a5,0(t5)
   15858:	0103d91b          	srliw	s2,t2,0x10
   1585c:	0106f6b3          	and	a3,a3,a6
   15860:	0107f7b3          	and	a5,a5,a6
   15864:	025787bb          	mulw	a5,a5,t0
   15868:	0f91                	addi	t6,t6,4
   1586a:	0f11                	addi	t5,t5,4
   1586c:	000fa383          	lw	t2,0(t6)
   15870:	0103f4b3          	and	s1,t2,a6
   15874:	012787bb          	addw	a5,a5,s2
   15878:	9fb9                	addw	a5,a5,a4
   1587a:	0107971b          	slliw	a4,a5,0x10
   1587e:	8ed9                	or	a3,a3,a4
   15880:	fedfae23          	sw	a3,-4(t6)
   15884:	ffef5703          	lhu	a4,-2(t5)
   15888:	0107d79b          	srliw	a5,a5,0x10
   1588c:	0257073b          	mulw	a4,a4,t0
   15890:	9f25                	addw	a4,a4,s1
   15892:	9fb9                	addw	a5,a5,a4
   15894:	0007869b          	sext.w	a3,a5
   15898:	0107d71b          	srliw	a4,a5,0x10
   1589c:	fb1f6ce3          	bltu	t5,a7,15854 <__multiply+0xfc>
   158a0:	00dfa023          	sw	a3,0(t6)
   158a4:	0591                	addi	a1,a1,4
   158a6:	0e11                	addi	t3,t3,4
   158a8:	f3d5ebe3          	bltu	a1,t4,157de <__multiply+0x86>
   158ac:	00805d63          	blez	s0,158c6 <__multiply+0x16e>
   158b0:	ffc32783          	lw	a5,-4(t1)
   158b4:	1371                	addi	t1,t1,-4
   158b6:	c789                	beqz	a5,158c0 <__multiply+0x168>
   158b8:	a039                	j	158c6 <__multiply+0x16e>
   158ba:	00032783          	lw	a5,0(t1)
   158be:	e781                	bnez	a5,158c6 <__multiply+0x16e>
   158c0:	347d                	addiw	s0,s0,-1
   158c2:	1371                	addi	t1,t1,-4
   158c4:	f87d                	bnez	s0,158ba <__multiply+0x162>
   158c6:	c940                	sw	s0,20(a0)
   158c8:	70a2                	ld	ra,40(sp)
   158ca:	7402                	ld	s0,32(sp)
   158cc:	64e2                	ld	s1,24(sp)
   158ce:	6942                	ld	s2,16(sp)
   158d0:	69a2                	ld	s3,8(sp)
   158d2:	6a02                	ld	s4,0(sp)
   158d4:	6145                	addi	sp,sp,48
   158d6:	8082                	ret

00000000000158d8 <__pow5mult>:
   158d8:	7179                	addi	sp,sp,-48
   158da:	f022                	sd	s0,32(sp)
   158dc:	e44e                	sd	s3,8(sp)
   158de:	e052                	sd	s4,0(sp)
   158e0:	f406                	sd	ra,40(sp)
   158e2:	ec26                	sd	s1,24(sp)
   158e4:	e84a                	sd	s2,16(sp)
   158e6:	00367793          	andi	a5,a2,3
   158ea:	8432                	mv	s0,a2
   158ec:	89aa                	mv	s3,a0
   158ee:	8a2e                	mv	s4,a1
   158f0:	efad                	bnez	a5,1596a <__pow5mult+0x92>
   158f2:	8409                	srai	s0,s0,0x2
   158f4:	8952                	mv	s2,s4
   158f6:	c429                	beqz	s0,15940 <__pow5mult+0x68>
   158f8:	0709b483          	ld	s1,112(s3)
   158fc:	c4c1                	beqz	s1,15984 <__pow5mult+0xac>
   158fe:	00147793          	andi	a5,s0,1
   15902:	8952                	mv	s2,s4
   15904:	eb89                	bnez	a5,15916 <__pow5mult+0x3e>
   15906:	8405                	srai	s0,s0,0x1
   15908:	cc05                	beqz	s0,15940 <__pow5mult+0x68>
   1590a:	6088                	ld	a0,0(s1)
   1590c:	c139                	beqz	a0,15952 <__pow5mult+0x7a>
   1590e:	84aa                	mv	s1,a0
   15910:	00147793          	andi	a5,s0,1
   15914:	dbed                	beqz	a5,15906 <__pow5mult+0x2e>
   15916:	8626                	mv	a2,s1
   15918:	85ca                	mv	a1,s2
   1591a:	854e                	mv	a0,s3
   1591c:	e3dff0ef          	jal	ra,15758 <__multiply>
   15920:	04090363          	beqz	s2,15966 <__pow5mult+0x8e>
   15924:	00892703          	lw	a4,8(s2)
   15928:	0789b783          	ld	a5,120(s3)
   1592c:	8405                	srai	s0,s0,0x1
   1592e:	070e                	slli	a4,a4,0x3
   15930:	97ba                	add	a5,a5,a4
   15932:	6398                	ld	a4,0(a5)
   15934:	00e93023          	sd	a4,0(s2)
   15938:	0127b023          	sd	s2,0(a5)
   1593c:	892a                	mv	s2,a0
   1593e:	f471                	bnez	s0,1590a <__pow5mult+0x32>
   15940:	70a2                	ld	ra,40(sp)
   15942:	7402                	ld	s0,32(sp)
   15944:	854a                	mv	a0,s2
   15946:	64e2                	ld	s1,24(sp)
   15948:	6942                	ld	s2,16(sp)
   1594a:	69a2                	ld	s3,8(sp)
   1594c:	6a02                	ld	s4,0(sp)
   1594e:	6145                	addi	sp,sp,48
   15950:	8082                	ret
   15952:	8626                	mv	a2,s1
   15954:	85a6                	mv	a1,s1
   15956:	854e                	mv	a0,s3
   15958:	e01ff0ef          	jal	ra,15758 <__multiply>
   1595c:	e088                	sd	a0,0(s1)
   1595e:	00053023          	sd	zero,0(a0)
   15962:	84aa                	mv	s1,a0
   15964:	b775                	j	15910 <__pow5mult+0x38>
   15966:	892a                	mv	s2,a0
   15968:	bf79                	j	15906 <__pow5mult+0x2e>
   1596a:	37fd                	addiw	a5,a5,-1
   1596c:	00007717          	auipc	a4,0x7
   15970:	c0c70713          	addi	a4,a4,-1012 # 1c578 <p05.3334>
   15974:	078a                	slli	a5,a5,0x2
   15976:	97ba                	add	a5,a5,a4
   15978:	4390                	lw	a2,0(a5)
   1597a:	4681                	li	a3,0
   1597c:	b75ff0ef          	jal	ra,154f0 <__multadd>
   15980:	8a2a                	mv	s4,a0
   15982:	bf85                	j	158f2 <__pow5mult+0x1a>
   15984:	4585                	li	a1,1
   15986:	854e                	mv	a0,s3
   15988:	af3ff0ef          	jal	ra,1547a <_Balloc>
   1598c:	27100793          	li	a5,625
   15990:	cd1c                	sw	a5,24(a0)
   15992:	4785                	li	a5,1
   15994:	c95c                	sw	a5,20(a0)
   15996:	06a9b823          	sd	a0,112(s3)
   1599a:	84aa                	mv	s1,a0
   1599c:	00053023          	sd	zero,0(a0)
   159a0:	bfb9                	j	158fe <__pow5mult+0x26>

00000000000159a2 <__lshift>:
   159a2:	7139                	addi	sp,sp,-64
   159a4:	ec4e                	sd	s3,24(sp)
   159a6:	0145a983          	lw	s3,20(a1)
   159aa:	e05a                	sd	s6,0(sp)
   159ac:	45dc                	lw	a5,12(a1)
   159ae:	40565b1b          	sraiw	s6,a2,0x5
   159b2:	016989bb          	addw	s3,s3,s6
   159b6:	f822                	sd	s0,48(sp)
   159b8:	f426                	sd	s1,40(sp)
   159ba:	f04a                	sd	s2,32(sp)
   159bc:	e852                	sd	s4,16(sp)
   159be:	e456                	sd	s5,8(sp)
   159c0:	fc06                	sd	ra,56(sp)
   159c2:	0019849b          	addiw	s1,s3,1
   159c6:	892e                	mv	s2,a1
   159c8:	8ab2                	mv	s5,a2
   159ca:	845a                	mv	s0,s6
   159cc:	8a2a                	mv	s4,a0
   159ce:	458c                	lw	a1,8(a1)
   159d0:	0097d763          	bge	a5,s1,159de <__lshift+0x3c>
   159d4:	0017979b          	slliw	a5,a5,0x1
   159d8:	2585                	addiw	a1,a1,1
   159da:	fe97cde3          	blt	a5,s1,159d4 <__lshift+0x32>
   159de:	8552                	mv	a0,s4
   159e0:	a9bff0ef          	jal	ra,1547a <_Balloc>
   159e4:	01850713          	addi	a4,a0,24
   159e8:	03605263          	blez	s6,15a0c <__lshift+0x6a>
   159ec:	347d                	addiw	s0,s0,-1
   159ee:	1402                	slli	s0,s0,0x20
   159f0:	9001                	srli	s0,s0,0x20
   159f2:	00740693          	addi	a3,s0,7
   159f6:	068a                	slli	a3,a3,0x2
   159f8:	96aa                	add	a3,a3,a0
   159fa:	87ba                	mv	a5,a4
   159fc:	0791                	addi	a5,a5,4
   159fe:	fe07ae23          	sw	zero,-4(a5)
   15a02:	fed79de3          	bne	a5,a3,159fc <__lshift+0x5a>
   15a06:	0405                	addi	s0,s0,1
   15a08:	040a                	slli	s0,s0,0x2
   15a0a:	9722                	add	a4,a4,s0
   15a0c:	01492803          	lw	a6,20(s2)
   15a10:	01890793          	addi	a5,s2,24
   15a14:	01faf613          	andi	a2,s5,31
   15a18:	080a                	slli	a6,a6,0x2
   15a1a:	983e                	add	a6,a6,a5
   15a1c:	ce31                	beqz	a2,15a78 <__lshift+0xd6>
   15a1e:	02000893          	li	a7,32
   15a22:	40c888bb          	subw	a7,a7,a2
   15a26:	4681                	li	a3,0
   15a28:	438c                	lw	a1,0(a5)
   15a2a:	0711                	addi	a4,a4,4
   15a2c:	0791                	addi	a5,a5,4
   15a2e:	00c595bb          	sllw	a1,a1,a2
   15a32:	8ecd                	or	a3,a3,a1
   15a34:	fed72e23          	sw	a3,-4(a4)
   15a38:	ffc7a683          	lw	a3,-4(a5)
   15a3c:	0116d6bb          	srlw	a3,a3,a7
   15a40:	ff07e4e3          	bltu	a5,a6,15a28 <__lshift+0x86>
   15a44:	c314                	sw	a3,0(a4)
   15a46:	c291                	beqz	a3,15a4a <__lshift+0xa8>
   15a48:	89a6                	mv	s3,s1
   15a4a:	00892703          	lw	a4,8(s2)
   15a4e:	078a3783          	ld	a5,120(s4)
   15a52:	70e2                	ld	ra,56(sp)
   15a54:	070e                	slli	a4,a4,0x3
   15a56:	97ba                	add	a5,a5,a4
   15a58:	6398                	ld	a4,0(a5)
   15a5a:	01352a23          	sw	s3,20(a0)
   15a5e:	7442                	ld	s0,48(sp)
   15a60:	00e93023          	sd	a4,0(s2)
   15a64:	0127b023          	sd	s2,0(a5)
   15a68:	74a2                	ld	s1,40(sp)
   15a6a:	7902                	ld	s2,32(sp)
   15a6c:	69e2                	ld	s3,24(sp)
   15a6e:	6a42                	ld	s4,16(sp)
   15a70:	6aa2                	ld	s5,8(sp)
   15a72:	6b02                	ld	s6,0(sp)
   15a74:	6121                	addi	sp,sp,64
   15a76:	8082                	ret
   15a78:	0791                	addi	a5,a5,4
   15a7a:	ffc7a683          	lw	a3,-4(a5)
   15a7e:	0711                	addi	a4,a4,4
   15a80:	fed72e23          	sw	a3,-4(a4)
   15a84:	fd07f3e3          	bgeu	a5,a6,15a4a <__lshift+0xa8>
   15a88:	0791                	addi	a5,a5,4
   15a8a:	ffc7a683          	lw	a3,-4(a5)
   15a8e:	0711                	addi	a4,a4,4
   15a90:	fed72e23          	sw	a3,-4(a4)
   15a94:	ff07e2e3          	bltu	a5,a6,15a78 <__lshift+0xd6>
   15a98:	bf4d                	j	15a4a <__lshift+0xa8>

0000000000015a9a <__mcmp>:
   15a9a:	862a                	mv	a2,a0
   15a9c:	49dc                	lw	a5,20(a1)
   15a9e:	4948                	lw	a0,20(a0)
   15aa0:	9d1d                	subw	a0,a0,a5
   15aa2:	e505                	bnez	a0,15aca <__mcmp+0x30>
   15aa4:	00279713          	slli	a4,a5,0x2
   15aa8:	0661                	addi	a2,a2,24
   15aaa:	05e1                	addi	a1,a1,24
   15aac:	00e607b3          	add	a5,a2,a4
   15ab0:	95ba                	add	a1,a1,a4
   15ab2:	a019                	j	15ab8 <__mcmp+0x1e>
   15ab4:	00f67b63          	bgeu	a2,a5,15aca <__mcmp+0x30>
   15ab8:	17f1                	addi	a5,a5,-4
   15aba:	15f1                	addi	a1,a1,-4
   15abc:	4394                	lw	a3,0(a5)
   15abe:	4198                	lw	a4,0(a1)
   15ac0:	fee68ae3          	beq	a3,a4,15ab4 <__mcmp+0x1a>
   15ac4:	557d                	li	a0,-1
   15ac6:	00e6f363          	bgeu	a3,a4,15acc <__mcmp+0x32>
   15aca:	8082                	ret
   15acc:	4505                	li	a0,1
   15ace:	8082                	ret

0000000000015ad0 <__mdiff>:
   15ad0:	7179                	addi	sp,sp,-48
   15ad2:	e84a                	sd	s2,16(sp)
   15ad4:	4a58                	lw	a4,20(a2)
   15ad6:	0145a903          	lw	s2,20(a1)
   15ada:	f022                	sd	s0,32(sp)
   15adc:	ec26                	sd	s1,24(sp)
   15ade:	e44e                	sd	s3,8(sp)
   15ae0:	e052                	sd	s4,0(sp)
   15ae2:	f406                	sd	ra,40(sp)
   15ae4:	40e9093b          	subw	s2,s2,a4
   15ae8:	89ae                	mv	s3,a1
   15aea:	8a32                	mv	s4,a2
   15aec:	01858413          	addi	s0,a1,24
   15af0:	01860493          	addi	s1,a2,24
   15af4:	02091963          	bnez	s2,15b26 <__mdiff+0x56>
   15af8:	070a                	slli	a4,a4,0x2
   15afa:	00e407b3          	add	a5,s0,a4
   15afe:	9726                	add	a4,a4,s1
   15b00:	a019                	j	15b06 <__mdiff+0x36>
   15b02:	0ef47c63          	bgeu	s0,a5,15bfa <__mdiff+0x12a>
   15b06:	17f1                	addi	a5,a5,-4
   15b08:	1771                	addi	a4,a4,-4
   15b0a:	438c                	lw	a1,0(a5)
   15b0c:	4314                	lw	a3,0(a4)
   15b0e:	fed58ae3          	beq	a1,a3,15b02 <__mdiff+0x32>
   15b12:	00d5fd63          	bgeu	a1,a3,15b2c <__mdiff+0x5c>
   15b16:	8722                	mv	a4,s0
   15b18:	87ce                	mv	a5,s3
   15b1a:	8426                	mv	s0,s1
   15b1c:	89d2                	mv	s3,s4
   15b1e:	84ba                	mv	s1,a4
   15b20:	8a3e                	mv	s4,a5
   15b22:	4905                	li	s2,1
   15b24:	a021                	j	15b2c <__mdiff+0x5c>
   15b26:	fe0948e3          	bltz	s2,15b16 <__mdiff+0x46>
   15b2a:	4901                	li	s2,0
   15b2c:	0089a583          	lw	a1,8(s3)
   15b30:	94bff0ef          	jal	ra,1547a <_Balloc>
   15b34:	0149a883          	lw	a7,20(s3)
   15b38:	014a2e83          	lw	t4,20(s4)
   15b3c:	6e41                	lui	t3,0x10
   15b3e:	00289313          	slli	t1,a7,0x2
   15b42:	0e8a                	slli	t4,t4,0x2
   15b44:	01252823          	sw	s2,16(a0)
   15b48:	9322                	add	t1,t1,s0
   15b4a:	9ea6                	add	t4,t4,s1
   15b4c:	01850593          	addi	a1,a0,24
   15b50:	4701                	li	a4,0
   15b52:	1e7d                	addi	t3,t3,-1
   15b54:	a011                	j	15b58 <__mdiff+0x88>
   15b56:	85c2                	mv	a1,a6
   15b58:	4014                	lw	a3,0(s0)
   15b5a:	4090                	lw	a2,0(s1)
   15b5c:	00458813          	addi	a6,a1,4
   15b60:	01c6f7b3          	and	a5,a3,t3
   15b64:	9fb9                	addw	a5,a5,a4
   15b66:	01c67733          	and	a4,a2,t3
   15b6a:	9f99                	subw	a5,a5,a4
   15b6c:	0106561b          	srliw	a2,a2,0x10
   15b70:	0106d71b          	srliw	a4,a3,0x10
   15b74:	9f11                	subw	a4,a4,a2
   15b76:	4107d69b          	sraiw	a3,a5,0x10
   15b7a:	9f35                	addw	a4,a4,a3
   15b7c:	0107169b          	slliw	a3,a4,0x10
   15b80:	01c7f7b3          	and	a5,a5,t3
   15b84:	8fd5                	or	a5,a5,a3
   15b86:	2781                	sext.w	a5,a5
   15b88:	0491                	addi	s1,s1,4
   15b8a:	fef82e23          	sw	a5,-4(a6) # fffc <register_fini-0xb4>
   15b8e:	0411                	addi	s0,s0,4
   15b90:	4107571b          	sraiw	a4,a4,0x10
   15b94:	fdd4e1e3          	bltu	s1,t4,15b56 <__mdiff+0x86>
   15b98:	04647263          	bgeu	s0,t1,15bdc <__mdiff+0x10c>
   15b9c:	6e41                	lui	t3,0x10
   15b9e:	85c2                	mv	a1,a6
   15ba0:	8622                	mv	a2,s0
   15ba2:	1e7d                	addi	t3,t3,-1
   15ba4:	4214                	lw	a3,0(a2)
   15ba6:	0591                	addi	a1,a1,4
   15ba8:	0611                	addi	a2,a2,4
   15baa:	01c6f7b3          	and	a5,a3,t3
   15bae:	9fb9                	addw	a5,a5,a4
   15bb0:	0106d71b          	srliw	a4,a3,0x10
   15bb4:	4107d69b          	sraiw	a3,a5,0x10
   15bb8:	9f35                	addw	a4,a4,a3
   15bba:	0107169b          	slliw	a3,a4,0x10
   15bbe:	01c7f7b3          	and	a5,a5,t3
   15bc2:	8fd5                	or	a5,a5,a3
   15bc4:	2781                	sext.w	a5,a5
   15bc6:	fef5ae23          	sw	a5,-4(a1)
   15bca:	4107571b          	sraiw	a4,a4,0x10
   15bce:	fc666be3          	bltu	a2,t1,15ba4 <__mdiff+0xd4>
   15bd2:	fff30593          	addi	a1,t1,-1
   15bd6:	8d81                	sub	a1,a1,s0
   15bd8:	99f1                	andi	a1,a1,-4
   15bda:	95c2                	add	a1,a1,a6
   15bdc:	e789                	bnez	a5,15be6 <__mdiff+0x116>
   15bde:	15f1                	addi	a1,a1,-4
   15be0:	419c                	lw	a5,0(a1)
   15be2:	38fd                	addiw	a7,a7,-1
   15be4:	dfed                	beqz	a5,15bde <__mdiff+0x10e>
   15be6:	70a2                	ld	ra,40(sp)
   15be8:	7402                	ld	s0,32(sp)
   15bea:	01152a23          	sw	a7,20(a0)
   15bee:	64e2                	ld	s1,24(sp)
   15bf0:	6942                	ld	s2,16(sp)
   15bf2:	69a2                	ld	s3,8(sp)
   15bf4:	6a02                	ld	s4,0(sp)
   15bf6:	6145                	addi	sp,sp,48
   15bf8:	8082                	ret
   15bfa:	4581                	li	a1,0
   15bfc:	87fff0ef          	jal	ra,1547a <_Balloc>
   15c00:	70a2                	ld	ra,40(sp)
   15c02:	7402                	ld	s0,32(sp)
   15c04:	4785                	li	a5,1
   15c06:	c95c                	sw	a5,20(a0)
   15c08:	00052c23          	sw	zero,24(a0)
   15c0c:	64e2                	ld	s1,24(sp)
   15c0e:	6942                	ld	s2,16(sp)
   15c10:	69a2                	ld	s3,8(sp)
   15c12:	6a02                	ld	s4,0(sp)
   15c14:	6145                	addi	sp,sp,48
   15c16:	8082                	ret

0000000000015c18 <__ulp>:
   15c18:	e20507d3          	fmv.x.d	a5,fa0
   15c1c:	7ff00737          	lui	a4,0x7ff00
   15c20:	9381                	srli	a5,a5,0x20
   15c22:	8f7d                	and	a4,a4,a5
   15c24:	fcc007b7          	lui	a5,0xfcc00
   15c28:	9fb9                	addw	a5,a5,a4
   15c2a:	0007871b          	sext.w	a4,a5
   15c2e:	00e05663          	blez	a4,15c3a <__ulp+0x22>
   15c32:	1782                	slli	a5,a5,0x20
   15c34:	f2078553          	fmv.d.x	fa0,a5
   15c38:	8082                	ret
   15c3a:	40f007bb          	negw	a5,a5
   15c3e:	4147d71b          	sraiw	a4,a5,0x14
   15c42:	46cd                	li	a3,19
   15c44:	00e6c763          	blt	a3,a4,15c52 <__ulp+0x3a>
   15c48:	000807b7          	lui	a5,0x80
   15c4c:	40e7d7bb          	sraw	a5,a5,a4
   15c50:	b7cd                	j	15c32 <__ulp+0x1a>
   15c52:	fec7069b          	addiw	a3,a4,-20
   15c56:	4679                	li	a2,30
   15c58:	4781                	li	a5,0
   15c5a:	4705                	li	a4,1
   15c5c:	00d64663          	blt	a2,a3,15c68 <__ulp+0x50>
   15c60:	80000737          	lui	a4,0x80000
   15c64:	00d7573b          	srlw	a4,a4,a3
   15c68:	9381                	srli	a5,a5,0x20
   15c6a:	1702                	slli	a4,a4,0x20
   15c6c:	9301                	srli	a4,a4,0x20
   15c6e:	1782                	slli	a5,a5,0x20
   15c70:	8fd9                	or	a5,a5,a4
   15c72:	f2078553          	fmv.d.x	fa0,a5
   15c76:	8082                	ret

0000000000015c78 <__b2d>:
   15c78:	7179                	addi	sp,sp,-48
   15c7a:	f022                	sd	s0,32(sp)
   15c7c:	4940                	lw	s0,20(a0)
   15c7e:	e84a                	sd	s2,16(sp)
   15c80:	01850913          	addi	s2,a0,24
   15c84:	040a                	slli	s0,s0,0x2
   15c86:	944a                	add	s0,s0,s2
   15c88:	ec26                	sd	s1,24(sp)
   15c8a:	ffc42483          	lw	s1,-4(s0)
   15c8e:	e44e                	sd	s3,8(sp)
   15c90:	e052                	sd	s4,0(sp)
   15c92:	8526                	mv	a0,s1
   15c94:	8a2e                	mv	s4,a1
   15c96:	f406                	sd	ra,40(sp)
   15c98:	9d9ff0ef          	jal	ra,15670 <__hi0bits>
   15c9c:	02000693          	li	a3,32
   15ca0:	40a687bb          	subw	a5,a3,a0
   15ca4:	00fa2023          	sw	a5,0(s4)
   15ca8:	47a9                	li	a5,10
   15caa:	ffc40993          	addi	s3,s0,-4
   15cae:	06a7dd63          	bge	a5,a0,15d28 <__b2d+0xb0>
   15cb2:	ff55079b          	addiw	a5,a0,-11
   15cb6:	05397663          	bgeu	s2,s3,15d02 <__b2d+0x8a>
   15cba:	ff842703          	lw	a4,-8(s0)
   15cbe:	c7a1                	beqz	a5,15d06 <__b2d+0x8e>
   15cc0:	40f6853b          	subw	a0,a3,a5
   15cc4:	00f496bb          	sllw	a3,s1,a5
   15cc8:	00a754bb          	srlw	s1,a4,a0
   15ccc:	8ec5                	or	a3,a3,s1
   15cce:	3ff004b7          	lui	s1,0x3ff00
   15cd2:	8ec5                	or	a3,a3,s1
   15cd4:	00f7173b          	sllw	a4,a4,a5
   15cd8:	ff840613          	addi	a2,s0,-8
   15cdc:	02069793          	slli	a5,a3,0x20
   15ce0:	0007069b          	sext.w	a3,a4
   15ce4:	00c97963          	bgeu	s2,a2,15cf6 <__b2d+0x7e>
   15ce8:	ff442683          	lw	a3,-12(s0)
   15cec:	00a6d53b          	srlw	a0,a3,a0
   15cf0:	00e566b3          	or	a3,a0,a4
   15cf4:	2681                	sext.w	a3,a3
   15cf6:	9381                	srli	a5,a5,0x20
   15cf8:	1682                	slli	a3,a3,0x20
   15cfa:	9281                	srli	a3,a3,0x20
   15cfc:	1782                	slli	a5,a5,0x20
   15cfe:	8fd5                	or	a5,a5,a3
   15d00:	a811                	j	15d14 <__b2d+0x9c>
   15d02:	4701                	li	a4,0
   15d04:	ebb9                	bnez	a5,15d5a <__b2d+0xe2>
   15d06:	3ff007b7          	lui	a5,0x3ff00
   15d0a:	8fc5                	or	a5,a5,s1
   15d0c:	1702                	slli	a4,a4,0x20
   15d0e:	9301                	srli	a4,a4,0x20
   15d10:	1782                	slli	a5,a5,0x20
   15d12:	8fd9                	or	a5,a5,a4
   15d14:	70a2                	ld	ra,40(sp)
   15d16:	7402                	ld	s0,32(sp)
   15d18:	64e2                	ld	s1,24(sp)
   15d1a:	6942                	ld	s2,16(sp)
   15d1c:	69a2                	ld	s3,8(sp)
   15d1e:	6a02                	ld	s4,0(sp)
   15d20:	f2078553          	fmv.d.x	fa0,a5
   15d24:	6145                	addi	sp,sp,48
   15d26:	8082                	ret
   15d28:	46ad                	li	a3,11
   15d2a:	9e89                	subw	a3,a3,a0
   15d2c:	3ff00737          	lui	a4,0x3ff00
   15d30:	00d4d7bb          	srlw	a5,s1,a3
   15d34:	8fd9                	or	a5,a5,a4
   15d36:	1782                	slli	a5,a5,0x20
   15d38:	4701                	li	a4,0
   15d3a:	01397663          	bgeu	s2,s3,15d46 <__b2d+0xce>
   15d3e:	ff842703          	lw	a4,-8(s0)
   15d42:	00d7573b          	srlw	a4,a4,a3
   15d46:	2555                	addiw	a0,a0,21
   15d48:	00a494bb          	sllw	s1,s1,a0
   15d4c:	8cd9                	or	s1,s1,a4
   15d4e:	9381                	srli	a5,a5,0x20
   15d50:	1482                	slli	s1,s1,0x20
   15d52:	9081                	srli	s1,s1,0x20
   15d54:	1782                	slli	a5,a5,0x20
   15d56:	8fc5                	or	a5,a5,s1
   15d58:	bf75                	j	15d14 <__b2d+0x9c>
   15d5a:	00f497bb          	sllw	a5,s1,a5
   15d5e:	3ff004b7          	lui	s1,0x3ff00
   15d62:	8fc5                	or	a5,a5,s1
   15d64:	1782                	slli	a5,a5,0x20
   15d66:	4681                	li	a3,0
   15d68:	b779                	j	15cf6 <__b2d+0x7e>

0000000000015d6a <__d2b>:
   15d6a:	7139                	addi	sp,sp,-64
   15d6c:	f426                	sd	s1,40(sp)
   15d6e:	e20504d3          	fmv.x.d	s1,fa0
   15d72:	ec4e                	sd	s3,24(sp)
   15d74:	89ae                	mv	s3,a1
   15d76:	4585                	li	a1,1
   15d78:	f822                	sd	s0,48(sp)
   15d7a:	f04a                	sd	s2,32(sp)
   15d7c:	e852                	sd	s4,16(sp)
   15d7e:	fc06                	sd	ra,56(sp)
   15d80:	8932                	mv	s2,a2
   15d82:	ef8ff0ef          	jal	ra,1547a <_Balloc>
   15d86:	4204d793          	srai	a5,s1,0x20
   15d8a:	0147d41b          	srliw	s0,a5,0x14
   15d8e:	7ff47413          	andi	s0,s0,2047
   15d92:	17b2                	slli	a5,a5,0x2c
   15d94:	8a2a                	mv	s4,a0
   15d96:	93b1                	srli	a5,a5,0x2c
   15d98:	c401                	beqz	s0,15da0 <__d2b+0x36>
   15d9a:	00100737          	lui	a4,0x100
   15d9e:	8fd9                	or	a5,a5,a4
   15da0:	c63e                	sw	a5,12(sp)
   15da2:	2481                	sext.w	s1,s1
   15da4:	c4b5                	beqz	s1,15e10 <__d2b+0xa6>
   15da6:	0028                	addi	a0,sp,8
   15da8:	c426                	sw	s1,8(sp)
   15daa:	917ff0ef          	jal	ra,156c0 <__lo0bits>
   15dae:	e129                	bnez	a0,15df0 <__d2b+0x86>
   15db0:	4722                	lw	a4,8(sp)
   15db2:	47b2                	lw	a5,12(sp)
   15db4:	00ea2c23          	sw	a4,24(s4)
   15db8:	00f034b3          	snez	s1,a5
   15dbc:	0485                	addi	s1,s1,1
   15dbe:	00fa2e23          	sw	a5,28(s4)
   15dc2:	009a2a23          	sw	s1,20(s4)
   15dc6:	c035                	beqz	s0,15e2a <__d2b+0xc0>
   15dc8:	bcd4041b          	addiw	s0,s0,-1075
   15dcc:	9c29                	addw	s0,s0,a0
   15dce:	03500793          	li	a5,53
   15dd2:	0089a023          	sw	s0,0(s3)
   15dd6:	40a7853b          	subw	a0,a5,a0
   15dda:	00a92023          	sw	a0,0(s2)
   15dde:	70e2                	ld	ra,56(sp)
   15de0:	7442                	ld	s0,48(sp)
   15de2:	8552                	mv	a0,s4
   15de4:	74a2                	ld	s1,40(sp)
   15de6:	7902                	ld	s2,32(sp)
   15de8:	69e2                	ld	s3,24(sp)
   15dea:	6a42                	ld	s4,16(sp)
   15dec:	6121                	addi	sp,sp,64
   15dee:	8082                	ret
   15df0:	4732                	lw	a4,12(sp)
   15df2:	46a2                	lw	a3,8(sp)
   15df4:	02000793          	li	a5,32
   15df8:	9f89                	subw	a5,a5,a0
   15dfa:	00f717bb          	sllw	a5,a4,a5
   15dfe:	8fd5                	or	a5,a5,a3
   15e00:	00a7573b          	srlw	a4,a4,a0
   15e04:	00fa2c23          	sw	a5,24(s4)
   15e08:	c63a                	sw	a4,12(sp)
   15e0a:	0007079b          	sext.w	a5,a4
   15e0e:	b76d                	j	15db8 <__d2b+0x4e>
   15e10:	0068                	addi	a0,sp,12
   15e12:	8afff0ef          	jal	ra,156c0 <__lo0bits>
   15e16:	4785                	li	a5,1
   15e18:	00fa2a23          	sw	a5,20(s4)
   15e1c:	47b2                	lw	a5,12(sp)
   15e1e:	0205051b          	addiw	a0,a0,32
   15e22:	4485                	li	s1,1
   15e24:	00fa2c23          	sw	a5,24(s4)
   15e28:	f045                	bnez	s0,15dc8 <__d2b+0x5e>
   15e2a:	bce5051b          	addiw	a0,a0,-1074
   15e2e:	00249793          	slli	a5,s1,0x2
   15e32:	00a9a023          	sw	a0,0(s3)
   15e36:	97d2                	add	a5,a5,s4
   15e38:	4bc8                	lw	a0,20(a5)
   15e3a:	0054949b          	slliw	s1,s1,0x5
   15e3e:	833ff0ef          	jal	ra,15670 <__hi0bits>
   15e42:	9c89                	subw	s1,s1,a0
   15e44:	00992023          	sw	s1,0(s2)
   15e48:	bf59                	j	15dde <__d2b+0x74>

0000000000015e4a <__ratio>:
   15e4a:	7179                	addi	sp,sp,-48
   15e4c:	ec26                	sd	s1,24(sp)
   15e4e:	84ae                	mv	s1,a1
   15e50:	002c                	addi	a1,sp,8
   15e52:	f406                	sd	ra,40(sp)
   15e54:	f022                	sd	s0,32(sp)
   15e56:	e84a                	sd	s2,16(sp)
   15e58:	892a                	mv	s2,a0
   15e5a:	e1fff0ef          	jal	ra,15c78 <__b2d>
   15e5e:	006c                	addi	a1,sp,12
   15e60:	8526                	mv	a0,s1
   15e62:	e2050453          	fmv.x.d	s0,fa0
   15e66:	e13ff0ef          	jal	ra,15c78 <__b2d>
   15e6a:	48d4                	lw	a3,20(s1)
   15e6c:	01492783          	lw	a5,20(s2)
   15e70:	4632                	lw	a2,12(sp)
   15e72:	e2050753          	fmv.x.d	a4,fa0
   15e76:	9f95                	subw	a5,a5,a3
   15e78:	46a2                	lw	a3,8(sp)
   15e7a:	0057979b          	slliw	a5,a5,0x5
   15e7e:	9e91                	subw	a3,a3,a2
   15e80:	9ebd                	addw	a3,a3,a5
   15e82:	87b6                	mv	a5,a3
   15e84:	02d05863          	blez	a3,15eb4 <__ratio+0x6a>
   15e88:	02045693          	srli	a3,s0,0x20
   15e8c:	0147979b          	slliw	a5,a5,0x14
   15e90:	9fb5                	addw	a5,a5,a3
   15e92:	56fd                	li	a3,-1
   15e94:	9281                	srli	a3,a3,0x20
   15e96:	1782                	slli	a5,a5,0x20
   15e98:	8c75                	and	s0,s0,a3
   15e9a:	8c5d                	or	s0,s0,a5
   15e9c:	f20407d3          	fmv.d.x	fa5,s0
   15ea0:	70a2                	ld	ra,40(sp)
   15ea2:	7402                	ld	s0,32(sp)
   15ea4:	f2070753          	fmv.d.x	fa4,a4
   15ea8:	64e2                	ld	s1,24(sp)
   15eaa:	6942                	ld	s2,16(sp)
   15eac:	1ae7f553          	fdiv.d	fa0,fa5,fa4
   15eb0:	6145                	addi	sp,sp,48
   15eb2:	8082                	ret
   15eb4:	02075693          	srli	a3,a4,0x20
   15eb8:	0147979b          	slliw	a5,a5,0x14
   15ebc:	40f687bb          	subw	a5,a3,a5
   15ec0:	56fd                	li	a3,-1
   15ec2:	9281                	srli	a3,a3,0x20
   15ec4:	1782                	slli	a5,a5,0x20
   15ec6:	8f75                	and	a4,a4,a3
   15ec8:	8f5d                	or	a4,a4,a5
   15eca:	bfc9                	j	15e9c <__ratio+0x52>

0000000000015ecc <_mprec_log10>:
   15ecc:	47dd                	li	a5,23
   15ece:	00a7df63          	bge	a5,a0,15eec <_mprec_log10+0x20>
   15ed2:	00009797          	auipc	a5,0x9
   15ed6:	ff67b507          	fld	fa0,-10(a5) # 1eec8 <__SDATA_BEGIN__+0x10>
   15eda:	00009797          	auipc	a5,0x9
   15ede:	ff67b787          	fld	fa5,-10(a5) # 1eed0 <__SDATA_BEGIN__+0x18>
   15ee2:	357d                	addiw	a0,a0,-1
   15ee4:	12f57553          	fmul.d	fa0,fa0,fa5
   15ee8:	fd6d                	bnez	a0,15ee2 <_mprec_log10+0x16>
   15eea:	8082                	ret
   15eec:	00006797          	auipc	a5,0x6
   15ef0:	68c78793          	addi	a5,a5,1676 # 1c578 <p05.3334>
   15ef4:	050e                	slli	a0,a0,0x3
   15ef6:	953e                	add	a0,a0,a5
   15ef8:	2908                	fld	fa0,16(a0)
   15efa:	8082                	ret

0000000000015efc <__copybits>:
   15efc:	4a54                	lw	a3,20(a2)
   15efe:	35fd                	addiw	a1,a1,-1
   15f00:	4055d59b          	sraiw	a1,a1,0x5
   15f04:	0585                	addi	a1,a1,1
   15f06:	01860793          	addi	a5,a2,24
   15f0a:	068a                	slli	a3,a3,0x2
   15f0c:	058a                	slli	a1,a1,0x2
   15f0e:	96be                	add	a3,a3,a5
   15f10:	95aa                	add	a1,a1,a0
   15f12:	02d7f163          	bgeu	a5,a3,15f34 <__copybits+0x38>
   15f16:	872a                	mv	a4,a0
   15f18:	0791                	addi	a5,a5,4
   15f1a:	ffc7a803          	lw	a6,-4(a5)
   15f1e:	0711                	addi	a4,a4,4
   15f20:	ff072e23          	sw	a6,-4(a4) # ffffc <__BSS_END__+0xe105c>
   15f24:	fed7eae3          	bltu	a5,a3,15f18 <__copybits+0x1c>
   15f28:	40c687b3          	sub	a5,a3,a2
   15f2c:	179d                	addi	a5,a5,-25
   15f2e:	9bf1                	andi	a5,a5,-4
   15f30:	0791                	addi	a5,a5,4
   15f32:	953e                	add	a0,a0,a5
   15f34:	00b57763          	bgeu	a0,a1,15f42 <__copybits+0x46>
   15f38:	0511                	addi	a0,a0,4
   15f3a:	fe052e23          	sw	zero,-4(a0)
   15f3e:	feb56de3          	bltu	a0,a1,15f38 <__copybits+0x3c>
   15f42:	8082                	ret

0000000000015f44 <__any_on>:
   15f44:	4958                	lw	a4,20(a0)
   15f46:	4055d613          	srai	a2,a1,0x5
   15f4a:	01850693          	addi	a3,a0,24
   15f4e:	02c75263          	bge	a4,a2,15f72 <__any_on+0x2e>
   15f52:	00271793          	slli	a5,a4,0x2
   15f56:	97b6                	add	a5,a5,a3
   15f58:	02f6fe63          	bgeu	a3,a5,15f94 <__any_on+0x50>
   15f5c:	ffc7a503          	lw	a0,-4(a5)
   15f60:	17f1                	addi	a5,a5,-4
   15f62:	e511                	bnez	a0,15f6e <__any_on+0x2a>
   15f64:	02f6f763          	bgeu	a3,a5,15f92 <__any_on+0x4e>
   15f68:	17f1                	addi	a5,a5,-4
   15f6a:	4398                	lw	a4,0(a5)
   15f6c:	df65                	beqz	a4,15f64 <__any_on+0x20>
   15f6e:	4505                	li	a0,1
   15f70:	8082                	ret
   15f72:	00261793          	slli	a5,a2,0x2
   15f76:	97b6                	add	a5,a5,a3
   15f78:	fee650e3          	bge	a2,a4,15f58 <__any_on+0x14>
   15f7c:	89fd                	andi	a1,a1,31
   15f7e:	dde9                	beqz	a1,15f58 <__any_on+0x14>
   15f80:	4390                	lw	a2,0(a5)
   15f82:	4505                	li	a0,1
   15f84:	00b6573b          	srlw	a4,a2,a1
   15f88:	00b715bb          	sllw	a1,a4,a1
   15f8c:	fcc586e3          	beq	a1,a2,15f58 <__any_on+0x14>
   15f90:	8082                	ret
   15f92:	8082                	ret
   15f94:	4501                	li	a0,0
   15f96:	8082                	ret

0000000000015f98 <_sbrk_r>:
   15f98:	1141                	addi	sp,sp,-16
   15f9a:	e022                	sd	s0,0(sp)
   15f9c:	842a                	mv	s0,a0
   15f9e:	852e                	mv	a0,a1
   15fa0:	00009797          	auipc	a5,0x9
   15fa4:	fe07ac23          	sw	zero,-8(a5) # 1ef98 <errno>
   15fa8:	e406                	sd	ra,8(sp)
   15faa:	3c3040ef          	jal	ra,1ab6c <_sbrk>
   15fae:	57fd                	li	a5,-1
   15fb0:	00f50663          	beq	a0,a5,15fbc <_sbrk_r+0x24>
   15fb4:	60a2                	ld	ra,8(sp)
   15fb6:	6402                	ld	s0,0(sp)
   15fb8:	0141                	addi	sp,sp,16
   15fba:	8082                	ret
   15fbc:	00009797          	auipc	a5,0x9
   15fc0:	fdc78793          	addi	a5,a5,-36 # 1ef98 <errno>
   15fc4:	439c                	lw	a5,0(a5)
   15fc6:	d7fd                	beqz	a5,15fb4 <_sbrk_r+0x1c>
   15fc8:	c01c                	sw	a5,0(s0)
   15fca:	60a2                	ld	ra,8(sp)
   15fcc:	6402                	ld	s0,0(sp)
   15fce:	0141                	addi	sp,sp,16
   15fd0:	8082                	ret

0000000000015fd2 <frexp>:
   15fd2:	e20507d3          	fmv.x.d	a5,fa0
   15fd6:	80000637          	lui	a2,0x80000
   15fda:	fff64613          	not	a2,a2
   15fde:	4207d693          	srai	a3,a5,0x20
   15fe2:	0006859b          	sext.w	a1,a3
   15fe6:	00c5f733          	and	a4,a1,a2
   15fea:	00052023          	sw	zero,0(a0)
   15fee:	7ff00837          	lui	a6,0x7ff00
   15ff2:	05075e63          	bge	a4,a6,1604e <frexp+0x7c>
   15ff6:	00f76833          	or	a6,a4,a5
   15ffa:	2801                	sext.w	a6,a6
   15ffc:	04080963          	beqz	a6,1604e <frexp+0x7c>
   16000:	7ff00837          	lui	a6,0x7ff00
   16004:	0105f5b3          	and	a1,a1,a6
   16008:	4801                	li	a6,0
   1600a:	ed99                	bnez	a1,16028 <frexp+0x56>
   1600c:	00009717          	auipc	a4,0x9
   16010:	ecc73787          	fld	fa5,-308(a4) # 1eed8 <__SDATA_BEGIN__+0x20>
   16014:	12f577d3          	fmul.d	fa5,fa0,fa5
   16018:	fca00813          	li	a6,-54
   1601c:	e20787d3          	fmv.x.d	a5,fa5
   16020:	4207d693          	srai	a3,a5,0x20
   16024:	00c6f733          	and	a4,a3,a2
   16028:	80100637          	lui	a2,0x80100
   1602c:	167d                	addi	a2,a2,-1
   1602e:	8ef1                	and	a3,a3,a2
   16030:	3fe00637          	lui	a2,0x3fe00
   16034:	8ed1                	or	a3,a3,a2
   16036:	4147571b          	sraiw	a4,a4,0x14
   1603a:	567d                	li	a2,-1
   1603c:	c027071b          	addiw	a4,a4,-1022
   16040:	9201                	srli	a2,a2,0x20
   16042:	0107073b          	addw	a4,a4,a6
   16046:	1682                	slli	a3,a3,0x20
   16048:	8ff1                	and	a5,a5,a2
   1604a:	c118                	sw	a4,0(a0)
   1604c:	8fd5                	or	a5,a5,a3
   1604e:	f2078553          	fmv.d.x	fa0,a5
   16052:	8082                	ret

0000000000016054 <_sprintf_r>:
   16054:	7111                	addi	sp,sp,-256
   16056:	0d810e13          	addi	t3,sp,216
   1605a:	f5be                	sd	a5,232(sp)
   1605c:	80000337          	lui	t1,0x80000
   16060:	77c1                	lui	a5,0xffff0
   16062:	8eae                	mv	t4,a1
   16064:	fff34313          	not	t1,t1
   16068:	edb6                	sd	a3,216(sp)
   1606a:	20878793          	addi	a5,a5,520 # ffffffffffff0208 <__BSS_END__+0xfffffffffffd1268>
   1606e:	080c                	addi	a1,sp,16
   16070:	86f2                	mv	a3,t3
   16072:	e586                	sd	ra,200(sp)
   16074:	d03e                	sw	a5,32(sp)
   16076:	f1ba                	sd	a4,224(sp)
   16078:	f9c2                	sd	a6,240(sp)
   1607a:	fdc6                	sd	a7,248(sp)
   1607c:	e876                	sd	t4,16(sp)
   1607e:	f476                	sd	t4,40(sp)
   16080:	d81a                	sw	t1,48(sp)
   16082:	ce1a                	sw	t1,28(sp)
   16084:	e472                	sd	t3,8(sp)
   16086:	3fa000ef          	jal	ra,16480 <_svfprintf_r>
   1608a:	67c2                	ld	a5,16(sp)
   1608c:	00078023          	sb	zero,0(a5)
   16090:	60ae                	ld	ra,200(sp)
   16092:	6111                	addi	sp,sp,256
   16094:	8082                	ret

0000000000016096 <sprintf>:
   16096:	8eaa                	mv	t4,a0
   16098:	75818513          	addi	a0,gp,1880 # 1eef8 <_impure_ptr>
   1609c:	7111                	addi	sp,sp,-256
   1609e:	6108                	ld	a0,0(a0)
   160a0:	0d010e13          	addi	t3,sp,208
   160a4:	f5be                	sd	a5,232(sp)
   160a6:	80000337          	lui	t1,0x80000
   160aa:	77c1                	lui	a5,0xffff0
   160ac:	fff34313          	not	t1,t1
   160b0:	e9b2                	sd	a2,208(sp)
   160b2:	edb6                	sd	a3,216(sp)
   160b4:	20878793          	addi	a5,a5,520 # ffffffffffff0208 <__BSS_END__+0xfffffffffffd1268>
   160b8:	862e                	mv	a2,a1
   160ba:	86f2                	mv	a3,t3
   160bc:	080c                	addi	a1,sp,16
   160be:	e586                	sd	ra,200(sp)
   160c0:	d03e                	sw	a5,32(sp)
   160c2:	f1ba                	sd	a4,224(sp)
   160c4:	f9c2                	sd	a6,240(sp)
   160c6:	fdc6                	sd	a7,248(sp)
   160c8:	e876                	sd	t4,16(sp)
   160ca:	f476                	sd	t4,40(sp)
   160cc:	d81a                	sw	t1,48(sp)
   160ce:	ce1a                	sw	t1,28(sp)
   160d0:	e472                	sd	t3,8(sp)
   160d2:	3ae000ef          	jal	ra,16480 <_svfprintf_r>
   160d6:	67c2                	ld	a5,16(sp)
   160d8:	00078023          	sb	zero,0(a5)
   160dc:	60ae                	ld	ra,200(sp)
   160de:	6111                	addi	sp,sp,256
   160e0:	8082                	ret

00000000000160e2 <__sread>:
   160e2:	1141                	addi	sp,sp,-16
   160e4:	e022                	sd	s0,0(sp)
   160e6:	842e                	mv	s0,a1
   160e8:	01259583          	lh	a1,18(a1)
   160ec:	e406                	sd	ra,8(sp)
   160ee:	5c0030ef          	jal	ra,196ae <_read_r>
   160f2:	00054963          	bltz	a0,16104 <__sread+0x22>
   160f6:	685c                	ld	a5,144(s0)
   160f8:	60a2                	ld	ra,8(sp)
   160fa:	97aa                	add	a5,a5,a0
   160fc:	e85c                	sd	a5,144(s0)
   160fe:	6402                	ld	s0,0(sp)
   16100:	0141                	addi	sp,sp,16
   16102:	8082                	ret
   16104:	01045783          	lhu	a5,16(s0)
   16108:	777d                	lui	a4,0xfffff
   1610a:	177d                	addi	a4,a4,-1
   1610c:	8ff9                	and	a5,a5,a4
   1610e:	00f41823          	sh	a5,16(s0)
   16112:	60a2                	ld	ra,8(sp)
   16114:	6402                	ld	s0,0(sp)
   16116:	0141                	addi	sp,sp,16
   16118:	8082                	ret

000000000001611a <__seofread>:
   1611a:	4501                	li	a0,0
   1611c:	8082                	ret

000000000001611e <__swrite>:
   1611e:	01059783          	lh	a5,16(a1)
   16122:	7179                	addi	sp,sp,-48
   16124:	f022                	sd	s0,32(sp)
   16126:	ec26                	sd	s1,24(sp)
   16128:	e84a                	sd	s2,16(sp)
   1612a:	e44e                	sd	s3,8(sp)
   1612c:	f406                	sd	ra,40(sp)
   1612e:	1007f713          	andi	a4,a5,256
   16132:	842e                	mv	s0,a1
   16134:	84aa                	mv	s1,a0
   16136:	8932                	mv	s2,a2
   16138:	89b6                	mv	s3,a3
   1613a:	01259583          	lh	a1,18(a1)
   1613e:	e30d                	bnez	a4,16160 <__swrite+0x42>
   16140:	777d                	lui	a4,0xfffff
   16142:	177d                	addi	a4,a4,-1
   16144:	8ff9                	and	a5,a5,a4
   16146:	00f41823          	sh	a5,16(s0)
   1614a:	7402                	ld	s0,32(sp)
   1614c:	70a2                	ld	ra,40(sp)
   1614e:	86ce                	mv	a3,s3
   16150:	864a                	mv	a2,s2
   16152:	69a2                	ld	s3,8(sp)
   16154:	6942                	ld	s2,16(sp)
   16156:	8526                	mv	a0,s1
   16158:	64e2                	ld	s1,24(sp)
   1615a:	6145                	addi	sp,sp,48
   1615c:	4c50206f          	j	18e20 <_write_r>
   16160:	4689                	li	a3,2
   16162:	4601                	li	a2,0
   16164:	352030ef          	jal	ra,194b6 <_lseek_r>
   16168:	01041783          	lh	a5,16(s0)
   1616c:	01241583          	lh	a1,18(s0)
   16170:	bfc1                	j	16140 <__swrite+0x22>

0000000000016172 <__sseek>:
   16172:	1141                	addi	sp,sp,-16
   16174:	e022                	sd	s0,0(sp)
   16176:	842e                	mv	s0,a1
   16178:	01259583          	lh	a1,18(a1)
   1617c:	e406                	sd	ra,8(sp)
   1617e:	338030ef          	jal	ra,194b6 <_lseek_r>
   16182:	57fd                	li	a5,-1
   16184:	00f50d63          	beq	a0,a5,1619e <__sseek+0x2c>
   16188:	01045783          	lhu	a5,16(s0)
   1618c:	6705                	lui	a4,0x1
   1618e:	e848                	sd	a0,144(s0)
   16190:	8fd9                	or	a5,a5,a4
   16192:	00f41823          	sh	a5,16(s0)
   16196:	60a2                	ld	ra,8(sp)
   16198:	6402                	ld	s0,0(sp)
   1619a:	0141                	addi	sp,sp,16
   1619c:	8082                	ret
   1619e:	01045783          	lhu	a5,16(s0)
   161a2:	777d                	lui	a4,0xfffff
   161a4:	177d                	addi	a4,a4,-1
   161a6:	8ff9                	and	a5,a5,a4
   161a8:	00f41823          	sh	a5,16(s0)
   161ac:	60a2                	ld	ra,8(sp)
   161ae:	6402                	ld	s0,0(sp)
   161b0:	0141                	addi	sp,sp,16
   161b2:	8082                	ret

00000000000161b4 <__sclose>:
   161b4:	01259583          	lh	a1,18(a1)
   161b8:	52f0206f          	j	18ee6 <_close_r>

00000000000161bc <strcmp>:
   161bc:	00b56733          	or	a4,a0,a1
   161c0:	53fd                	li	t2,-1
   161c2:	8b1d                	andi	a4,a4,7
   161c4:	eb4d                	bnez	a4,16276 <strcmp+0xba>
   161c6:	00009797          	auipc	a5,0x9
   161ca:	d1a7b783          	ld	a5,-742(a5) # 1eee0 <mask>
   161ce:	6110                	ld	a2,0(a0)
   161d0:	6194                	ld	a3,0(a1)
   161d2:	00f672b3          	and	t0,a2,a5
   161d6:	00f66333          	or	t1,a2,a5
   161da:	92be                	add	t0,t0,a5
   161dc:	0062e2b3          	or	t0,t0,t1
   161e0:	0a729963          	bne	t0,t2,16292 <strcmp+0xd6>
   161e4:	02d61e63          	bne	a2,a3,16220 <strcmp+0x64>
   161e8:	6510                	ld	a2,8(a0)
   161ea:	6594                	ld	a3,8(a1)
   161ec:	00f672b3          	and	t0,a2,a5
   161f0:	00f66333          	or	t1,a2,a5
   161f4:	92be                	add	t0,t0,a5
   161f6:	0062e2b3          	or	t0,t0,t1
   161fa:	08729a63          	bne	t0,t2,1628e <strcmp+0xd2>
   161fe:	02d61163          	bne	a2,a3,16220 <strcmp+0x64>
   16202:	6910                	ld	a2,16(a0)
   16204:	6994                	ld	a3,16(a1)
   16206:	00f672b3          	and	t0,a2,a5
   1620a:	00f66333          	or	t1,a2,a5
   1620e:	92be                	add	t0,t0,a5
   16210:	0062e2b3          	or	t0,t0,t1
   16214:	08729363          	bne	t0,t2,1629a <strcmp+0xde>
   16218:	0561                	addi	a0,a0,24
   1621a:	05e1                	addi	a1,a1,24
   1621c:	fad609e3          	beq	a2,a3,161ce <strcmp+0x12>
   16220:	03061713          	slli	a4,a2,0x30
   16224:	03069793          	slli	a5,a3,0x30
   16228:	02f71863          	bne	a4,a5,16258 <strcmp+0x9c>
   1622c:	02061713          	slli	a4,a2,0x20
   16230:	02069793          	slli	a5,a3,0x20
   16234:	02f71263          	bne	a4,a5,16258 <strcmp+0x9c>
   16238:	01061713          	slli	a4,a2,0x10
   1623c:	01069793          	slli	a5,a3,0x10
   16240:	00f71c63          	bne	a4,a5,16258 <strcmp+0x9c>
   16244:	03065713          	srli	a4,a2,0x30
   16248:	0306d793          	srli	a5,a3,0x30
   1624c:	40f70533          	sub	a0,a4,a5
   16250:	0ff57593          	andi	a1,a0,255
   16254:	e991                	bnez	a1,16268 <strcmp+0xac>
   16256:	8082                	ret
   16258:	9341                	srli	a4,a4,0x30
   1625a:	93c1                	srli	a5,a5,0x30
   1625c:	40f70533          	sub	a0,a4,a5
   16260:	0ff57593          	andi	a1,a0,255
   16264:	e191                	bnez	a1,16268 <strcmp+0xac>
   16266:	8082                	ret
   16268:	0ff77713          	andi	a4,a4,255
   1626c:	0ff7f793          	andi	a5,a5,255
   16270:	40f70533          	sub	a0,a4,a5
   16274:	8082                	ret
   16276:	00054603          	lbu	a2,0(a0)
   1627a:	0005c683          	lbu	a3,0(a1)
   1627e:	0505                	addi	a0,a0,1
   16280:	0585                	addi	a1,a1,1
   16282:	00d61363          	bne	a2,a3,16288 <strcmp+0xcc>
   16286:	fa65                	bnez	a2,16276 <strcmp+0xba>
   16288:	40d60533          	sub	a0,a2,a3
   1628c:	8082                	ret
   1628e:	0521                	addi	a0,a0,8
   16290:	05a1                	addi	a1,a1,8
   16292:	fed612e3          	bne	a2,a3,16276 <strcmp+0xba>
   16296:	4501                	li	a0,0
   16298:	8082                	ret
   1629a:	0541                	addi	a0,a0,16
   1629c:	05c1                	addi	a1,a1,16
   1629e:	fcd61ce3          	bne	a2,a3,16276 <strcmp+0xba>
   162a2:	4501                	li	a0,0
   162a4:	8082                	ret

00000000000162a6 <strcpy>:
   162a6:	00b567b3          	or	a5,a0,a1
   162aa:	8b9d                	andi	a5,a5,7
   162ac:	e3c9                	bnez	a5,1632e <strcpy+0x88>
   162ae:	00009797          	auipc	a5,0x9
   162b2:	c3278793          	addi	a5,a5,-974 # 1eee0 <mask>
   162b6:	6394                	ld	a3,0(a5)
   162b8:	6198                	ld	a4,0(a1)
   162ba:	567d                	li	a2,-1
   162bc:	00d777b3          	and	a5,a4,a3
   162c0:	97b6                	add	a5,a5,a3
   162c2:	8fd9                	or	a5,a5,a4
   162c4:	8fd5                	or	a5,a5,a3
   162c6:	06c79d63          	bne	a5,a2,16340 <strcpy+0x9a>
   162ca:	862a                	mv	a2,a0
   162cc:	587d                	li	a6,-1
   162ce:	0621                	addi	a2,a2,8
   162d0:	05a1                	addi	a1,a1,8
   162d2:	fee63c23          	sd	a4,-8(a2) # 3fdffff8 <__BSS_END__+0x3fde1058>
   162d6:	6198                	ld	a4,0(a1)
   162d8:	00d777b3          	and	a5,a4,a3
   162dc:	97b6                	add	a5,a5,a3
   162de:	8fd9                	or	a5,a5,a4
   162e0:	8fd5                	or	a5,a5,a3
   162e2:	ff0786e3          	beq	a5,a6,162ce <strcpy+0x28>
   162e6:	0005c783          	lbu	a5,0(a1)
   162ea:	0015c703          	lbu	a4,1(a1)
   162ee:	0025c683          	lbu	a3,2(a1)
   162f2:	00f60023          	sb	a5,0(a2)
   162f6:	cb9d                	beqz	a5,1632c <strcpy+0x86>
   162f8:	00e600a3          	sb	a4,1(a2)
   162fc:	cb05                	beqz	a4,1632c <strcpy+0x86>
   162fe:	0035c783          	lbu	a5,3(a1)
   16302:	00d60123          	sb	a3,2(a2)
   16306:	c29d                	beqz	a3,1632c <strcpy+0x86>
   16308:	0045c703          	lbu	a4,4(a1)
   1630c:	00f601a3          	sb	a5,3(a2)
   16310:	cf91                	beqz	a5,1632c <strcpy+0x86>
   16312:	0055c783          	lbu	a5,5(a1)
   16316:	00e60223          	sb	a4,4(a2)
   1631a:	cb09                	beqz	a4,1632c <strcpy+0x86>
   1631c:	0065c703          	lbu	a4,6(a1)
   16320:	00f602a3          	sb	a5,5(a2)
   16324:	c781                	beqz	a5,1632c <strcpy+0x86>
   16326:	00e60323          	sb	a4,6(a2)
   1632a:	ef09                	bnez	a4,16344 <strcpy+0x9e>
   1632c:	8082                	ret
   1632e:	87aa                	mv	a5,a0
   16330:	0005c703          	lbu	a4,0(a1)
   16334:	0785                	addi	a5,a5,1
   16336:	0585                	addi	a1,a1,1
   16338:	fee78fa3          	sb	a4,-1(a5)
   1633c:	fb75                	bnez	a4,16330 <strcpy+0x8a>
   1633e:	8082                	ret
   16340:	862a                	mv	a2,a0
   16342:	b755                	j	162e6 <strcpy+0x40>
   16344:	000603a3          	sb	zero,7(a2)
   16348:	8082                	ret

000000000001634a <strlen>:
   1634a:	00757793          	andi	a5,a0,7
   1634e:	872a                	mv	a4,a0
   16350:	efa9                	bnez	a5,163aa <strlen+0x60>
   16352:	00009797          	auipc	a5,0x9
   16356:	b8e78793          	addi	a5,a5,-1138 # 1eee0 <mask>
   1635a:	6394                	ld	a3,0(a5)
   1635c:	55fd                	li	a1,-1
   1635e:	0721                	addi	a4,a4,8
   16360:	ff873603          	ld	a2,-8(a4) # ffffffffffffeff8 <__BSS_END__+0xfffffffffffe0058>
   16364:	00d677b3          	and	a5,a2,a3
   16368:	97b6                	add	a5,a5,a3
   1636a:	8fd1                	or	a5,a5,a2
   1636c:	8fd5                	or	a5,a5,a3
   1636e:	feb788e3          	beq	a5,a1,1635e <strlen+0x14>
   16372:	ff874783          	lbu	a5,-8(a4)
   16376:	40a706b3          	sub	a3,a4,a0
   1637a:	c7a9                	beqz	a5,163c4 <strlen+0x7a>
   1637c:	ff974783          	lbu	a5,-7(a4)
   16380:	cf9d                	beqz	a5,163be <strlen+0x74>
   16382:	ffa74783          	lbu	a5,-6(a4)
   16386:	c7a9                	beqz	a5,163d0 <strlen+0x86>
   16388:	ffb74783          	lbu	a5,-5(a4)
   1638c:	cf9d                	beqz	a5,163ca <strlen+0x80>
   1638e:	ffc74603          	lbu	a2,-4(a4)
   16392:	ffd74583          	lbu	a1,-3(a4)
   16396:	ffe74783          	lbu	a5,-2(a4)
   1639a:	ce15                	beqz	a2,163d6 <strlen+0x8c>
   1639c:	c1a1                	beqz	a1,163dc <strlen+0x92>
   1639e:	00f03533          	snez	a0,a5
   163a2:	9536                	add	a0,a0,a3
   163a4:	1579                	addi	a0,a0,-2
   163a6:	8082                	ret
   163a8:	d6cd                	beqz	a3,16352 <strlen+0x8>
   163aa:	00074783          	lbu	a5,0(a4)
   163ae:	0705                	addi	a4,a4,1
   163b0:	00777693          	andi	a3,a4,7
   163b4:	fbf5                	bnez	a5,163a8 <strlen+0x5e>
   163b6:	8f09                	sub	a4,a4,a0
   163b8:	fff70513          	addi	a0,a4,-1
   163bc:	8082                	ret
   163be:	ff968513          	addi	a0,a3,-7
   163c2:	8082                	ret
   163c4:	ff868513          	addi	a0,a3,-8
   163c8:	8082                	ret
   163ca:	ffb68513          	addi	a0,a3,-5
   163ce:	8082                	ret
   163d0:	ffa68513          	addi	a0,a3,-6
   163d4:	8082                	ret
   163d6:	ffc68513          	addi	a0,a3,-4
   163da:	8082                	ret
   163dc:	ffd68513          	addi	a0,a3,-3
   163e0:	8082                	ret

00000000000163e2 <strncpy>:
   163e2:	00a5e7b3          	or	a5,a1,a0
   163e6:	8b9d                	andi	a5,a5,7
   163e8:	efb5                	bnez	a5,16464 <strncpy+0x82>
   163ea:	479d                	li	a5,7
   163ec:	06c7fc63          	bgeu	a5,a2,16464 <strncpy+0x82>
   163f0:	00009797          	auipc	a5,0x9
   163f4:	ac878793          	addi	a5,a5,-1336 # 1eeb8 <__SDATA_BEGIN__>
   163f8:	0007b303          	ld	t1,0(a5)
   163fc:	00009797          	auipc	a5,0x9
   16400:	ac478793          	addi	a5,a5,-1340 # 1eec0 <__SDATA_BEGIN__+0x8>
   16404:	0007b883          	ld	a7,0(a5)
   16408:	872a                	mv	a4,a0
   1640a:	4e1d                	li	t3,7
   1640c:	6194                	ld	a3,0(a1)
   1640e:	006687b3          	add	a5,a3,t1
   16412:	fff6c813          	not	a6,a3
   16416:	0107f7b3          	and	a5,a5,a6
   1641a:	0117f7b3          	and	a5,a5,a7
   1641e:	eb89                	bnez	a5,16430 <strncpy+0x4e>
   16420:	0721                	addi	a4,a4,8
   16422:	1661                	addi	a2,a2,-8
   16424:	fed73c23          	sd	a3,-8(a4)
   16428:	05a1                	addi	a1,a1,8
   1642a:	fece61e3          	bltu	t3,a2,1640c <strncpy+0x2a>
   1642e:	c639                	beqz	a2,1647c <strncpy+0x9a>
   16430:	0005c803          	lbu	a6,0(a1)
   16434:	fff60693          	addi	a3,a2,-1
   16438:	0585                	addi	a1,a1,1
   1643a:	01070023          	sb	a6,0(a4)
   1643e:	00170793          	addi	a5,a4,1
   16442:	02080363          	beqz	a6,16468 <strncpy+0x86>
   16446:	963a                	add	a2,a2,a4
   16448:	96ba                	add	a3,a3,a4
   1644a:	a039                	j	16458 <strncpy+0x76>
   1644c:	fff5c703          	lbu	a4,-1(a1)
   16450:	0785                	addi	a5,a5,1
   16452:	fee78fa3          	sb	a4,-1(a5)
   16456:	cb11                	beqz	a4,1646a <strncpy+0x88>
   16458:	0585                	addi	a1,a1,1
   1645a:	40f68833          	sub	a6,a3,a5
   1645e:	fec797e3          	bne	a5,a2,1644c <strncpy+0x6a>
   16462:	8082                	ret
   16464:	872a                	mv	a4,a0
   16466:	b7e1                	j	1642e <strncpy+0x4c>
   16468:	8836                	mv	a6,a3
   1646a:	01078733          	add	a4,a5,a6
   1646e:	00080863          	beqz	a6,1647e <strncpy+0x9c>
   16472:	0785                	addi	a5,a5,1
   16474:	fe078fa3          	sb	zero,-1(a5)
   16478:	fee79de3          	bne	a5,a4,16472 <strncpy+0x90>
   1647c:	8082                	ret
   1647e:	8082                	ret

0000000000016480 <_svfprintf_r>:
   16480:	d8010113          	addi	sp,sp,-640
   16484:	26113c23          	sd	ra,632(sp)
   16488:	25413823          	sd	s4,592(sp)
   1648c:	25613023          	sd	s6,576(sp)
   16490:	23a13023          	sd	s10,544(sp)
   16494:	8b2e                	mv	s6,a1
   16496:	8d32                	mv	s10,a2
   16498:	e836                	sd	a3,16(sp)
   1649a:	26813823          	sd	s0,624(sp)
   1649e:	26913423          	sd	s1,616(sp)
   164a2:	27213023          	sd	s2,608(sp)
   164a6:	25313c23          	sd	s3,600(sp)
   164aa:	25513423          	sd	s5,584(sp)
   164ae:	23713c23          	sd	s7,568(sp)
   164b2:	23813823          	sd	s8,560(sp)
   164b6:	23913423          	sd	s9,552(sp)
   164ba:	21b13c23          	sd	s11,536(sp)
   164be:	8a2a                	mv	s4,a0
   164c0:	ea8fe0ef          	jal	ra,14b68 <_localeconv_r>
   164c4:	611c                	ld	a5,0(a0)
   164c6:	853e                	mv	a0,a5
   164c8:	e13e                	sd	a5,128(sp)
   164ca:	e81ff0ef          	jal	ra,1634a <strlen>
   164ce:	010b5783          	lhu	a5,16(s6)
   164d2:	fcaa                	sd	a0,120(sp)
   164d4:	e202                	sd	zero,256(sp)
   164d6:	e602                	sd	zero,264(sp)
   164d8:	0807f793          	andi	a5,a5,128
   164dc:	c791                	beqz	a5,164e8 <_svfprintf_r+0x68>
   164de:	018b3783          	ld	a5,24(s6)
   164e2:	e399                	bnez	a5,164e8 <_svfprintf_r+0x68>
   164e4:	7c30006f          	j	174a6 <_svfprintf_r+0x1026>
   164e8:	000d4783          	lbu	a5,0(s10)
   164ec:	19010a93          	addi	s5,sp,400
   164f0:	ea56                	sd	s5,272(sp)
   164f2:	f202                	sd	zero,288(sp)
   164f4:	10012c23          	sw	zero,280(sp)
   164f8:	f402                	sd	zero,40(sp)
   164fa:	f802                	sd	zero,48(sp)
   164fc:	e902                	sd	zero,144(sp)
   164fe:	f882                	sd	zero,112(sp)
   16500:	e502                	sd	zero,136(sp)
   16502:	ed02                	sd	zero,152(sp)
   16504:	e402                	sd	zero,8(sp)
   16506:	8356                	mv	t1,s5
   16508:	4dc1                	li	s11,16
   1650a:	00006917          	auipc	s2,0x6
   1650e:	31690913          	addi	s2,s2,790 # 1c820 <zeroes.4526>
   16512:	50078963          	beqz	a5,16a24 <_svfprintf_r+0x5a4>
   16516:	02500693          	li	a3,37
   1651a:	6cd78de3          	beq	a5,a3,173f4 <_svfprintf_r+0xf74>
   1651e:	846a                	mv	s0,s10
   16520:	a021                	j	16528 <_svfprintf_r+0xa8>
   16522:	08d78c63          	beq	a5,a3,165ba <_svfprintf_r+0x13a>
   16526:	844e                	mv	s0,s3
   16528:	00144783          	lbu	a5,1(s0)
   1652c:	00140993          	addi	s3,s0,1
   16530:	fbed                	bnez	a5,16522 <_svfprintf_r+0xa2>
   16532:	41a984bb          	subw	s1,s3,s10
   16536:	4e048763          	beqz	s1,16a24 <_svfprintf_r+0x5a4>
   1653a:	7692                	ld	a3,288(sp)
   1653c:	11812783          	lw	a5,280(sp)
   16540:	01a33023          	sd	s10,0(t1) # ffffffff80000000 <__BSS_END__+0xffffffff7ffe1060>
   16544:	96a6                	add	a3,a3,s1
   16546:	2785                	addiw	a5,a5,1
   16548:	00933423          	sd	s1,8(t1)
   1654c:	f236                	sd	a3,288(sp)
   1654e:	10f12c23          	sw	a5,280(sp)
   16552:	0007869b          	sext.w	a3,a5
   16556:	479d                	li	a5,7
   16558:	0341                	addi	t1,t1,16
   1655a:	06d7c463          	blt	a5,a3,165c2 <_svfprintf_r+0x142>
   1655e:	6722                	ld	a4,8(sp)
   16560:	00144783          	lbu	a5,1(s0)
   16564:	9f25                	addw	a4,a4,s1
   16566:	e43a                	sd	a4,8(sp)
   16568:	4a078e63          	beqz	a5,16a24 <_svfprintf_r+0x5a4>
   1656c:	00198493          	addi	s1,s3,1
   16570:	0019cf03          	lbu	t5,1(s3)
   16574:	0c010fa3          	sb	zero,223(sp)
   16578:	5efd                	li	t4,-1
   1657a:	4b81                	li	s7,0
   1657c:	4401                	li	s0,0
   1657e:	49a5                	li	s3,9
   16580:	02a00c13          	li	s8,42
   16584:	0485                	addi	s1,s1,1
   16586:	000f0c9b          	sext.w	s9,t5
   1658a:	05a00613          	li	a2,90
   1658e:	fe0c879b          	addiw	a5,s9,-32
   16592:	0007869b          	sext.w	a3,a5
   16596:	14d66e63          	bltu	a2,a3,166f2 <_svfprintf_r+0x272>
   1659a:	1782                	slli	a5,a5,0x20
   1659c:	00006717          	auipc	a4,0x6
   165a0:	10470713          	addi	a4,a4,260 # 1c6a0 <__mprec_bigtens+0x28>
   165a4:	83f9                	srli	a5,a5,0x1e
   165a6:	97ba                	add	a5,a5,a4
   165a8:	439c                	lw	a5,0(a5)
   165aa:	97ba                	add	a5,a5,a4
   165ac:	8782                	jr	a5
   165ae:	01046413          	ori	s0,s0,16
   165b2:	2401                	sext.w	s0,s0
   165b4:	0004cf03          	lbu	t5,0(s1) # 3ff00000 <__BSS_END__+0x3fee1060>
   165b8:	b7f1                	j	16584 <_svfprintf_r+0x104>
   165ba:	41a984bb          	subw	s1,s3,s10
   165be:	d4dd                	beqz	s1,1656c <_svfprintf_r+0xec>
   165c0:	bfad                	j	1653a <_svfprintf_r+0xba>
   165c2:	0a10                	addi	a2,sp,272
   165c4:	85da                	mv	a1,s6
   165c6:	8552                	mv	a0,s4
   165c8:	648030ef          	jal	ra,19c10 <__ssprint_r>
   165cc:	e105                	bnez	a0,165ec <_svfprintf_r+0x16c>
   165ce:	8356                	mv	t1,s5
   165d0:	b779                	j	1655e <_svfprintf_r+0xde>
   165d2:	0a10                	addi	a2,sp,272
   165d4:	85da                	mv	a1,s6
   165d6:	8552                	mv	a0,s4
   165d8:	638030ef          	jal	ra,19c10 <__ssprint_r>
   165dc:	42050663          	beqz	a0,16a08 <_svfprintf_r+0x588>
   165e0:	7782                	ld	a5,32(sp)
   165e2:	c789                	beqz	a5,165ec <_svfprintf_r+0x16c>
   165e4:	7582                	ld	a1,32(sp)
   165e6:	8552                	mv	a0,s4
   165e8:	96afc0ef          	jal	ra,12752 <_free_r>
   165ec:	010b5783          	lhu	a5,16(s6)
   165f0:	0407f793          	andi	a5,a5,64
   165f4:	c399                	beqz	a5,165fa <_svfprintf_r+0x17a>
   165f6:	0ad0106f          	j	17ea2 <_svfprintf_r+0x1a22>
   165fa:	27813083          	ld	ra,632(sp)
   165fe:	27013403          	ld	s0,624(sp)
   16602:	6522                	ld	a0,8(sp)
   16604:	26813483          	ld	s1,616(sp)
   16608:	26013903          	ld	s2,608(sp)
   1660c:	25813983          	ld	s3,600(sp)
   16610:	25013a03          	ld	s4,592(sp)
   16614:	24813a83          	ld	s5,584(sp)
   16618:	24013b03          	ld	s6,576(sp)
   1661c:	23813b83          	ld	s7,568(sp)
   16620:	23013c03          	ld	s8,560(sp)
   16624:	22813c83          	ld	s9,552(sp)
   16628:	22013d03          	ld	s10,544(sp)
   1662c:	21813d83          	ld	s11,536(sp)
   16630:	28010113          	addi	sp,sp,640
   16634:	8082                	ret
   16636:	66c2                	ld	a3,16(sp)
   16638:	00006797          	auipc	a5,0x6
   1663c:	c4878793          	addi	a5,a5,-952 # 1c280 <zeroes.4541+0x60>
   16640:	f83e                	sd	a5,48(sp)
   16642:	02047793          	andi	a5,s0,32
   16646:	00868713          	addi	a4,a3,8
   1664a:	cbf1                	beqz	a5,1671e <_svfprintf_r+0x29e>
   1664c:	0006b983          	ld	s3,0(a3)
   16650:	00147793          	andi	a5,s0,1
   16654:	cf81                	beqz	a5,1666c <_svfprintf_r+0x1ec>
   16656:	00098b63          	beqz	s3,1666c <_svfprintf_r+0x1ec>
   1665a:	00246413          	ori	s0,s0,2
   1665e:	03000793          	li	a5,48
   16662:	0ef10023          	sb	a5,224(sp)
   16666:	0f9100a3          	sb	s9,225(sp)
   1666a:	2401                	sext.w	s0,s0
   1666c:	bff47693          	andi	a3,s0,-1025
   16670:	2681                	sext.w	a3,a3
   16672:	e83a                	sd	a4,16(sp)
   16674:	4789                	li	a5,2
   16676:	0c010fa3          	sb	zero,223(sp)
   1667a:	577d                	li	a4,-1
   1667c:	24ee8763          	beq	t4,a4,168ca <_svfprintf_r+0x44a>
   16680:	f7f6f413          	andi	s0,a3,-129
   16684:	2401                	sext.w	s0,s0
   16686:	260991e3          	bnez	s3,170e8 <_svfprintf_r+0xc68>
   1668a:	3a0e92e3          	bnez	t4,1722e <_svfprintf_r+0xdae>
   1668e:	1e079d63          	bnez	a5,16888 <_svfprintf_r+0x408>
   16692:	0016fc13          	andi	s8,a3,1
   16696:	18c10d13          	addi	s10,sp,396
   1669a:	580c1ae3          	bnez	s8,1742e <_svfprintf_r+0xfae>
   1669e:	000c099b          	sext.w	s3,s8
   166a2:	01dc5463          	bge	s8,t4,166aa <_svfprintf_r+0x22a>
   166a6:	000e899b          	sext.w	s3,t4
   166aa:	0df14783          	lbu	a5,223(sp)
   166ae:	f002                	sd	zero,32(sp)
   166b0:	ec82                	sd	zero,88(sp)
   166b2:	f482                	sd	zero,104(sp)
   166b4:	f082                	sd	zero,96(sp)
   166b6:	28078263          	beqz	a5,1693a <_svfprintf_r+0x4ba>
   166ba:	2985                	addiw	s3,s3,1
   166bc:	acbd                	j	1693a <_svfprintf_r+0x4ba>
   166be:	4b81                	li	s7,0
   166c0:	0485                	addi	s1,s1,1
   166c2:	fff4c683          	lbu	a3,-1(s1)
   166c6:	002b979b          	slliw	a5,s7,0x2
   166ca:	01778bbb          	addw	s7,a5,s7
   166ce:	fd0c8f1b          	addiw	t5,s9,-48
   166d2:	001b9b9b          	slliw	s7,s7,0x1
   166d6:	fd06879b          	addiw	a5,a3,-48
   166da:	017f0bbb          	addw	s7,t5,s7
   166de:	00068c9b          	sext.w	s9,a3
   166e2:	fcf9ffe3          	bgeu	s3,a5,166c0 <_svfprintf_r+0x240>
   166e6:	fe0c879b          	addiw	a5,s9,-32
   166ea:	0007869b          	sext.w	a3,a5
   166ee:	ead676e3          	bgeu	a2,a3,1659a <_svfprintf_r+0x11a>
   166f2:	320c8963          	beqz	s9,16a24 <_svfprintf_r+0x5a4>
   166f6:	13910423          	sb	s9,296(sp)
   166fa:	0c010fa3          	sb	zero,223(sp)
   166fe:	4985                	li	s3,1
   16700:	4c05                	li	s8,1
   16702:	12810d13          	addi	s10,sp,296
   16706:	a42d                	j	16930 <_svfprintf_r+0x4b0>
   16708:	66c2                	ld	a3,16(sp)
   1670a:	00006797          	auipc	a5,0x6
   1670e:	b8e78793          	addi	a5,a5,-1138 # 1c298 <zeroes.4541+0x78>
   16712:	f83e                	sd	a5,48(sp)
   16714:	02047793          	andi	a5,s0,32
   16718:	00868713          	addi	a4,a3,8
   1671c:	fb85                	bnez	a5,1664c <_svfprintf_r+0x1cc>
   1671e:	01047793          	andi	a5,s0,16
   16722:	52079ee3          	bnez	a5,1745e <_svfprintf_r+0xfde>
   16726:	66c2                	ld	a3,16(sp)
   16728:	04047793          	andi	a5,s0,64
   1672c:	0006a983          	lw	s3,0(a3)
   16730:	e399                	bnez	a5,16736 <_svfprintf_r+0x2b6>
   16732:	1420106f          	j	17874 <_svfprintf_r+0x13f4>
   16736:	19c2                	slli	s3,s3,0x30
   16738:	0309d993          	srli	s3,s3,0x30
   1673c:	bf11                	j	16650 <_svfprintf_r+0x1d0>
   1673e:	0004cf03          	lbu	t5,0(s1)
   16742:	00446413          	ori	s0,s0,4
   16746:	2401                	sext.w	s0,s0
   16748:	bd35                	j	16584 <_svfprintf_r+0x104>
   1674a:	0004cc83          	lbu	s9,0(s1)
   1674e:	00148793          	addi	a5,s1,1
   16752:	018c9463          	bne	s9,s8,1675a <_svfprintf_r+0x2da>
   16756:	08b0106f          	j	17fe0 <_svfprintf_r+0x1b60>
   1675a:	fd0c869b          	addiw	a3,s9,-48
   1675e:	84be                	mv	s1,a5
   16760:	4e81                	li	t4,0
   16762:	e2d9e6e3          	bltu	s3,a3,1658e <_svfprintf_r+0x10e>
   16766:	0485                	addi	s1,s1,1
   16768:	002e979b          	slliw	a5,t4,0x2
   1676c:	fff4cc83          	lbu	s9,-1(s1)
   16770:	01d78ebb          	addw	t4,a5,t4
   16774:	001e9e9b          	slliw	t4,t4,0x1
   16778:	00de8ebb          	addw	t4,t4,a3
   1677c:	fd0c869b          	addiw	a3,s9,-48
   16780:	fed9f3e3          	bgeu	s3,a3,16766 <_svfprintf_r+0x2e6>
   16784:	b529                	j	1658e <_svfprintf_r+0x10e>
   16786:	08046413          	ori	s0,s0,128
   1678a:	2401                	sext.w	s0,s0
   1678c:	0004cf03          	lbu	t5,0(s1)
   16790:	bbd5                	j	16584 <_svfprintf_r+0x104>
   16792:	67c2                	ld	a5,16(sp)
   16794:	01046693          	ori	a3,s0,16
   16798:	2681                	sext.w	a3,a3
   1679a:	00878713          	addi	a4,a5,8
   1679e:	67c2                	ld	a5,16(sp)
   167a0:	0007b983          	ld	s3,0(a5)
   167a4:	4785                	li	a5,1
   167a6:	e83a                	sd	a4,16(sp)
   167a8:	b5f9                	j	16676 <_svfprintf_r+0x1f6>
   167aa:	67c2                	ld	a5,16(sp)
   167ac:	0c010fa3          	sb	zero,223(sp)
   167b0:	0007bd03          	ld	s10,0(a5)
   167b4:	00878693          	addi	a3,a5,8
   167b8:	500d08e3          	beqz	s10,174c8 <_svfprintf_r+0x1048>
   167bc:	57fd                	li	a5,-1
   167be:	00fe9463          	bne	t4,a5,167c6 <_svfprintf_r+0x346>
   167c2:	7e50006f          	j	177a6 <_svfprintf_r+0x1326>
   167c6:	8676                	mv	a2,t4
   167c8:	4581                	li	a1,0
   167ca:	856a                	mv	a0,s10
   167cc:	fc36                	sd	a3,56(sp)
   167ce:	ec1a                	sd	t1,24(sp)
   167d0:	e876                	sd	t4,16(sp)
   167d2:	bf5fe0ef          	jal	ra,153c6 <memchr>
   167d6:	f02a                	sd	a0,32(sp)
   167d8:	6ec2                	ld	t4,16(sp)
   167da:	6362                	ld	t1,24(sp)
   167dc:	76e2                	ld	a3,56(sp)
   167de:	e119                	bnez	a0,167e4 <_svfprintf_r+0x364>
   167e0:	37c0106f          	j	17b5c <_svfprintf_r+0x16dc>
   167e4:	7782                	ld	a5,32(sp)
   167e6:	e836                	sd	a3,16(sp)
   167e8:	f002                	sd	zero,32(sp)
   167ea:	41a78c3b          	subw	s8,a5,s10
   167ee:	fffc4993          	not	s3,s8
   167f2:	0df14783          	lbu	a5,223(sp)
   167f6:	43f9d993          	srai	s3,s3,0x3f
   167fa:	013c79b3          	and	s3,s8,s3
   167fe:	ec82                	sd	zero,88(sp)
   16800:	f482                	sd	zero,104(sp)
   16802:	f082                	sd	zero,96(sp)
   16804:	2981                	sext.w	s3,s3
   16806:	4e81                	li	t4,0
   16808:	ea0799e3          	bnez	a5,166ba <_svfprintf_r+0x23a>
   1680c:	a23d                	j	1693a <_svfprintf_r+0x4ba>
   1680e:	6742                	ld	a4,16(sp)
   16810:	01046693          	ori	a3,s0,16
   16814:	0006841b          	sext.w	s0,a3
   16818:	0721                	addi	a4,a4,8
   1681a:	67c2                	ld	a5,16(sp)
   1681c:	0007b983          	ld	s3,0(a5)
   16820:	e83a                	sd	a4,16(sp)
   16822:	bff47693          	andi	a3,s0,-1025
   16826:	2681                	sext.w	a3,a3
   16828:	4781                	li	a5,0
   1682a:	b5b1                	j	16676 <_svfprintf_r+0x1f6>
   1682c:	0004cf03          	lbu	t5,0(s1)
   16830:	06800793          	li	a5,104
   16834:	44ff09e3          	beq	t5,a5,17486 <_svfprintf_r+0x1006>
   16838:	04046413          	ori	s0,s0,64
   1683c:	2401                	sext.w	s0,s0
   1683e:	b399                	j	16584 <_svfprintf_r+0x104>
   16840:	6742                	ld	a4,16(sp)
   16842:	02047793          	andi	a5,s0,32
   16846:	0721                	addi	a4,a4,8
   16848:	3e079be3          	bnez	a5,1743e <_svfprintf_r+0xfbe>
   1684c:	01047793          	andi	a5,s0,16
   16850:	3e0797e3          	bnez	a5,1743e <_svfprintf_r+0xfbe>
   16854:	04047793          	andi	a5,s0,64
   16858:	e399                	bnez	a5,1685e <_svfprintf_r+0x3de>
   1685a:	0520106f          	j	178ac <_svfprintf_r+0x142c>
   1685e:	67c2                	ld	a5,16(sp)
   16860:	86a2                	mv	a3,s0
   16862:	e83a                	sd	a4,16(sp)
   16864:	00079983          	lh	s3,0(a5)
   16868:	87ce                	mv	a5,s3
   1686a:	0407c663          	bltz	a5,168b6 <_svfprintf_r+0x436>
   1686e:	57fd                	li	a5,-1
   16870:	62fe8363          	beq	t4,a5,16e96 <_svfprintf_r+0xa16>
   16874:	f7f6f693          	andi	a3,a3,-129
   16878:	0006841b          	sext.w	s0,a3
   1687c:	60099c63          	bnez	s3,16e94 <_svfprintf_r+0xa14>
   16880:	000e8463          	beqz	t4,16888 <_svfprintf_r+0x408>
   16884:	1820106f          	j	17a06 <_svfprintf_r+0x1586>
   16888:	4e81                	li	t4,0
   1688a:	4c01                	li	s8,0
   1688c:	18c10d13          	addi	s10,sp,396
   16890:	b539                	j	1669e <_svfprintf_r+0x21e>
   16892:	00846413          	ori	s0,s0,8
   16896:	2401                	sext.w	s0,s0
   16898:	0004cf03          	lbu	t5,0(s1)
   1689c:	b1e5                	j	16584 <_svfprintf_r+0x104>
   1689e:	67c2                	ld	a5,16(sp)
   168a0:	01046693          	ori	a3,s0,16
   168a4:	2681                	sext.w	a3,a3
   168a6:	00878713          	addi	a4,a5,8
   168aa:	67c2                	ld	a5,16(sp)
   168ac:	639c                	ld	a5,0(a5)
   168ae:	e83a                	sd	a4,16(sp)
   168b0:	89be                	mv	s3,a5
   168b2:	fa07dee3          	bgez	a5,1686e <_svfprintf_r+0x3ee>
   168b6:	02d00793          	li	a5,45
   168ba:	0cf10fa3          	sb	a5,223(sp)
   168be:	577d                	li	a4,-1
   168c0:	413009b3          	neg	s3,s3
   168c4:	4785                	li	a5,1
   168c6:	daee9de3          	bne	t4,a4,16680 <_svfprintf_r+0x200>
   168ca:	4705                	li	a4,1
   168cc:	5ce78563          	beq	a5,a4,16e96 <_svfprintf_r+0xa16>
   168d0:	4709                	li	a4,2
   168d2:	16e785e3          	beq	a5,a4,1723c <_svfprintf_r+0xdbc>
   168d6:	18c10c13          	addi	s8,sp,396
   168da:	8662                	mv	a2,s8
   168dc:	a011                	j	168e0 <_svfprintf_r+0x460>
   168de:	866a                	mv	a2,s10
   168e0:	0079f793          	andi	a5,s3,7
   168e4:	03078793          	addi	a5,a5,48
   168e8:	fef60fa3          	sb	a5,-1(a2)
   168ec:	0039d993          	srli	s3,s3,0x3
   168f0:	fff60d13          	addi	s10,a2,-1
   168f4:	fe0995e3          	bnez	s3,168de <_svfprintf_r+0x45e>
   168f8:	0016f593          	andi	a1,a3,1
   168fc:	60058163          	beqz	a1,16efe <_svfprintf_r+0xa7e>
   16900:	03000593          	li	a1,48
   16904:	5eb78d63          	beq	a5,a1,16efe <_svfprintf_r+0xa7e>
   16908:	1679                	addi	a2,a2,-2
   1690a:	febd0fa3          	sb	a1,-1(s10)
   1690e:	40cc0c3b          	subw	s8,s8,a2
   16912:	8436                	mv	s0,a3
   16914:	8d32                	mv	s10,a2
   16916:	b361                	j	1669e <_svfprintf_r+0x21e>
   16918:	6742                	ld	a4,16(sp)
   1691a:	0c010fa3          	sb	zero,223(sp)
   1691e:	4985                	li	s3,1
   16920:	431c                	lw	a5,0(a4)
   16922:	0721                	addi	a4,a4,8
   16924:	e83a                	sd	a4,16(sp)
   16926:	12f10423          	sb	a5,296(sp)
   1692a:	4c05                	li	s8,1
   1692c:	12810d13          	addi	s10,sp,296
   16930:	f002                	sd	zero,32(sp)
   16932:	4e81                	li	t4,0
   16934:	ec82                	sd	zero,88(sp)
   16936:	f482                	sd	zero,104(sp)
   16938:	f082                	sd	zero,96(sp)
   1693a:	00247893          	andi	a7,s0,2
   1693e:	2881                	sext.w	a7,a7
   16940:	00088363          	beqz	a7,16946 <_svfprintf_r+0x4c6>
   16944:	2989                	addiw	s3,s3,2
   16946:	08447293          	andi	t0,s0,132
   1694a:	7792                	ld	a5,288(sp)
   1694c:	00029663          	bnez	t0,16958 <_svfprintf_r+0x4d8>
   16950:	413b883b          	subw	a6,s7,s3
   16954:	79004d63          	bgtz	a6,170ee <_svfprintf_r+0xc6e>
   16958:	0df14683          	lbu	a3,223(sp)
   1695c:	c68d                	beqz	a3,16986 <_svfprintf_r+0x506>
   1695e:	11812683          	lw	a3,280(sp)
   16962:	0df10613          	addi	a2,sp,223
   16966:	00c33023          	sd	a2,0(t1)
   1696a:	2685                	addiw	a3,a3,1
   1696c:	4605                	li	a2,1
   1696e:	0785                	addi	a5,a5,1
   16970:	00c33423          	sd	a2,8(t1)
   16974:	10d12c23          	sw	a3,280(sp)
   16978:	0006861b          	sext.w	a2,a3
   1697c:	f23e                	sd	a5,288(sp)
   1697e:	469d                	li	a3,7
   16980:	0341                	addi	t1,t1,16
   16982:	0ac6cc63          	blt	a3,a2,16a3a <_svfprintf_r+0x5ba>
   16986:	02088563          	beqz	a7,169b0 <_svfprintf_r+0x530>
   1698a:	11812683          	lw	a3,280(sp)
   1698e:	1190                	addi	a2,sp,224
   16990:	00c33023          	sd	a2,0(t1)
   16994:	2685                	addiw	a3,a3,1
   16996:	4609                	li	a2,2
   16998:	0789                	addi	a5,a5,2
   1699a:	00c33423          	sd	a2,8(t1)
   1699e:	10d12c23          	sw	a3,280(sp)
   169a2:	0006861b          	sext.w	a2,a3
   169a6:	f23e                	sd	a5,288(sp)
   169a8:	469d                	li	a3,7
   169aa:	0341                	addi	t1,t1,16
   169ac:	7ec6c263          	blt	a3,a2,17190 <_svfprintf_r+0xd10>
   169b0:	08000693          	li	a3,128
   169b4:	62d28363          	beq	t0,a3,16fda <_svfprintf_r+0xb5a>
   169b8:	418e8ebb          	subw	t4,t4,s8
   169bc:	6bd04863          	bgtz	t4,1706c <_svfprintf_r+0xbec>
   169c0:	10047693          	andi	a3,s0,256
   169c4:	54069263          	bnez	a3,16f08 <_svfprintf_r+0xa88>
   169c8:	11812703          	lw	a4,280(sp)
   169cc:	97e2                	add	a5,a5,s8
   169ce:	01a33023          	sd	s10,0(t1)
   169d2:	0017069b          	addiw	a3,a4,1
   169d6:	8736                	mv	a4,a3
   169d8:	01833423          	sd	s8,8(t1)
   169dc:	10e12c23          	sw	a4,280(sp)
   169e0:	f23e                	sd	a5,288(sp)
   169e2:	471d                	li	a4,7
   169e4:	12d74d63          	blt	a4,a3,16b1e <_svfprintf_r+0x69e>
   169e8:	0341                	addi	t1,t1,16
   169ea:	8811                	andi	s0,s0,4
   169ec:	c409                	beqz	s0,169f6 <_svfprintf_r+0x576>
   169ee:	413b843b          	subw	s0,s7,s3
   169f2:	7a804e63          	bgtz	s0,171ae <_svfprintf_r+0xd2e>
   169f6:	875e                	mv	a4,s7
   169f8:	013bd363          	bge	s7,s3,169fe <_svfprintf_r+0x57e>
   169fc:	874e                	mv	a4,s3
   169fe:	66a2                	ld	a3,8(sp)
   16a00:	9f35                	addw	a4,a4,a3
   16a02:	e43a                	sd	a4,8(sp)
   16a04:	bc0797e3          	bnez	a5,165d2 <_svfprintf_r+0x152>
   16a08:	7782                	ld	a5,32(sp)
   16a0a:	10012c23          	sw	zero,280(sp)
   16a0e:	c789                	beqz	a5,16a18 <_svfprintf_r+0x598>
   16a10:	7582                	ld	a1,32(sp)
   16a12:	8552                	mv	a0,s4
   16a14:	d3ffb0ef          	jal	ra,12752 <_free_r>
   16a18:	8356                	mv	t1,s5
   16a1a:	8d26                	mv	s10,s1
   16a1c:	000d4783          	lbu	a5,0(s10)
   16a20:	ae079be3          	bnez	a5,16516 <_svfprintf_r+0x96>
   16a24:	7792                	ld	a5,288(sp)
   16a26:	bc0783e3          	beqz	a5,165ec <_svfprintf_r+0x16c>
   16a2a:	0a10                	addi	a2,sp,272
   16a2c:	85da                	mv	a1,s6
   16a2e:	8552                	mv	a0,s4
   16a30:	1e0030ef          	jal	ra,19c10 <__ssprint_r>
   16a34:	010b5783          	lhu	a5,16(s6)
   16a38:	be65                	j	165f0 <_svfprintf_r+0x170>
   16a3a:	0a10                	addi	a2,sp,272
   16a3c:	85da                	mv	a1,s6
   16a3e:	8552                	mv	a0,s4
   16a40:	e0f6                	sd	t4,64(sp)
   16a42:	fc16                	sd	t0,56(sp)
   16a44:	ec46                	sd	a7,24(sp)
   16a46:	1ca030ef          	jal	ra,19c10 <__ssprint_r>
   16a4a:	b8051be3          	bnez	a0,165e0 <_svfprintf_r+0x160>
   16a4e:	7792                	ld	a5,288(sp)
   16a50:	8356                	mv	t1,s5
   16a52:	6e86                	ld	t4,64(sp)
   16a54:	72e2                	ld	t0,56(sp)
   16a56:	68e2                	ld	a7,24(sp)
   16a58:	b73d                	j	16986 <_svfprintf_r+0x506>
   16a5a:	11812f03          	lw	t5,280(sp)
   16a5e:	7722                	ld	a4,40(sp)
   16a60:	4585                	li	a1,1
   16a62:	001f069b          	addiw	a3,t5,1
   16a66:	01a33023          	sd	s10,0(t1)
   16a6a:	0785                	addi	a5,a5,1
   16a6c:	8636                	mv	a2,a3
   16a6e:	01030c13          	addi	s8,t1,16
   16a72:	10e5d9e3          	bge	a1,a4,17384 <_svfprintf_r+0xf04>
   16a76:	4585                	li	a1,1
   16a78:	10c12c23          	sw	a2,280(sp)
   16a7c:	00b33423          	sd	a1,8(t1)
   16a80:	f23e                	sd	a5,288(sp)
   16a82:	461d                	li	a2,7
   16a84:	16d64be3          	blt	a2,a3,173fa <_svfprintf_r+0xf7a>
   16a88:	7766                	ld	a4,120(sp)
   16a8a:	660a                	ld	a2,128(sp)
   16a8c:	0016881b          	addiw	a6,a3,1
   16a90:	97ba                	add	a5,a5,a4
   16a92:	00cc3023          	sd	a2,0(s8)
   16a96:	00ec3423          	sd	a4,8(s8)
   16a9a:	f23e                	sd	a5,288(sp)
   16a9c:	11012c23          	sw	a6,280(sp)
   16aa0:	469d                	li	a3,7
   16aa2:	0c41                	addi	s8,s8,16
   16aa4:	1706c8e3          	blt	a3,a6,17414 <_svfprintf_r+0xf94>
   16aa8:	e4be                	sd	a5,72(sp)
   16aaa:	77a2                	ld	a5,40(sp)
   16aac:	6512                	ld	a0,256(sp)
   16aae:	65b2                	ld	a1,264(sp)
   16ab0:	00180e9b          	addiw	t4,a6,1
   16ab4:	fff7889b          	addiw	a7,a5,-1
   16ab8:	010c0313          	addi	t1,s8,16
   16abc:	4601                	li	a2,0
   16abe:	4681                	li	a3,0
   16ac0:	000e8c9b          	sext.w	s9,t4
   16ac4:	e0f6                	sd	t4,64(sp)
   16ac6:	fc1a                	sd	t1,56(sp)
   16ac8:	ec46                	sd	a7,24(sp)
   16aca:	e8c2                	sd	a6,80(sp)
   16acc:	19e040ef          	jal	ra,1ac6a <__eqtf2>
   16ad0:	68e2                	ld	a7,24(sp)
   16ad2:	7362                	ld	t1,56(sp)
   16ad4:	6e86                	ld	t4,64(sp)
   16ad6:	67a6                	ld	a5,72(sp)
   16ad8:	0c0508e3          	beqz	a0,173a8 <_svfprintf_r+0xf28>
   16adc:	001d0713          	addi	a4,s10,1
   16ae0:	97c6                	add	a5,a5,a7
   16ae2:	00ec3023          	sd	a4,0(s8)
   16ae6:	011c3423          	sd	a7,8(s8)
   16aea:	f23e                	sd	a5,288(sp)
   16aec:	11d12c23          	sw	t4,280(sp)
   16af0:	471d                	li	a4,7
   16af2:	379744e3          	blt	a4,s9,1765a <_svfprintf_r+0x11da>
   16af6:	6846                	ld	a6,80(sp)
   16af8:	020c0713          	addi	a4,s8,32
   16afc:	8c1a                	mv	s8,t1
   16afe:	00280c9b          	addiw	s9,a6,2
   16b02:	833a                	mv	t1,a4
   16b04:	66ca                	ld	a3,144(sp)
   16b06:	1998                	addi	a4,sp,240
   16b08:	00ec3023          	sd	a4,0(s8)
   16b0c:	97b6                	add	a5,a5,a3
   16b0e:	00dc3423          	sd	a3,8(s8)
   16b12:	f23e                	sd	a5,288(sp)
   16b14:	11912c23          	sw	s9,280(sp)
   16b18:	471d                	li	a4,7
   16b1a:	ed9758e3          	bge	a4,s9,169ea <_svfprintf_r+0x56a>
   16b1e:	0a10                	addi	a2,sp,272
   16b20:	85da                	mv	a1,s6
   16b22:	8552                	mv	a0,s4
   16b24:	0ec030ef          	jal	ra,19c10 <__ssprint_r>
   16b28:	aa051ce3          	bnez	a0,165e0 <_svfprintf_r+0x160>
   16b2c:	7792                	ld	a5,288(sp)
   16b2e:	8356                	mv	t1,s5
   16b30:	bd6d                	j	169ea <_svfprintf_r+0x56a>
   16b32:	02b00793          	li	a5,43
   16b36:	0cf10fa3          	sb	a5,223(sp)
   16b3a:	0004cf03          	lbu	t5,0(s1)
   16b3e:	b499                	j	16584 <_svfprintf_r+0x104>
   16b40:	67c2                	ld	a5,16(sp)
   16b42:	0004cf03          	lbu	t5,0(s1)
   16b46:	0007ab83          	lw	s7,0(a5)
   16b4a:	07a1                	addi	a5,a5,8
   16b4c:	e83e                	sd	a5,16(sp)
   16b4e:	a20bdbe3          	bgez	s7,16584 <_svfprintf_r+0x104>
   16b52:	41700bbb          	negw	s7,s7
   16b56:	b6f5                	j	16742 <_svfprintf_r+0x2c2>
   16b58:	8552                	mv	a0,s4
   16b5a:	f01a                	sd	t1,32(sp)
   16b5c:	ec76                	sd	t4,24(sp)
   16b5e:	80afe0ef          	jal	ra,14b68 <_localeconv_r>
   16b62:	651c                	ld	a5,8(a0)
   16b64:	853e                	mv	a0,a5
   16b66:	ed3e                	sd	a5,152(sp)
   16b68:	fe2ff0ef          	jal	ra,1634a <strlen>
   16b6c:	e52a                	sd	a0,136(sp)
   16b6e:	8caa                	mv	s9,a0
   16b70:	8552                	mv	a0,s4
   16b72:	ff7fd0ef          	jal	ra,14b68 <_localeconv_r>
   16b76:	6918                	ld	a4,16(a0)
   16b78:	6ee2                	ld	t4,24(sp)
   16b7a:	7302                	ld	t1,32(sp)
   16b7c:	f8ba                	sd	a4,112(sp)
   16b7e:	0004cf03          	lbu	t5,0(s1)
   16b82:	a00c81e3          	beqz	s9,16584 <_svfprintf_r+0x104>
   16b86:	9e070fe3          	beqz	a4,16584 <_svfprintf_r+0x104>
   16b8a:	00074783          	lbu	a5,0(a4)
   16b8e:	9e078be3          	beqz	a5,16584 <_svfprintf_r+0x104>
   16b92:	40046413          	ori	s0,s0,1024
   16b96:	2401                	sext.w	s0,s0
   16b98:	b2f5                	j	16584 <_svfprintf_r+0x104>
   16b9a:	00146413          	ori	s0,s0,1
   16b9e:	2401                	sext.w	s0,s0
   16ba0:	0004cf03          	lbu	t5,0(s1)
   16ba4:	b2c5                	j	16584 <_svfprintf_r+0x104>
   16ba6:	0df14783          	lbu	a5,223(sp)
   16baa:	0004cf03          	lbu	t5,0(s1)
   16bae:	9c079be3          	bnez	a5,16584 <_svfprintf_r+0x104>
   16bb2:	02000793          	li	a5,32
   16bb6:	0cf10fa3          	sb	a5,223(sp)
   16bba:	b2e9                	j	16584 <_svfprintf_r+0x104>
   16bbc:	6742                	ld	a4,16(sp)
   16bbe:	02047793          	andi	a5,s0,32
   16bc2:	0721                	addi	a4,a4,8
   16bc4:	08079ae3          	bnez	a5,17458 <_svfprintf_r+0xfd8>
   16bc8:	01047793          	andi	a5,s0,16
   16bcc:	080796e3          	bnez	a5,17458 <_svfprintf_r+0xfd8>
   16bd0:	66c2                	ld	a3,16(sp)
   16bd2:	04047793          	andi	a5,s0,64
   16bd6:	0006a983          	lw	s3,0(a3)
   16bda:	4a078ee3          	beqz	a5,17896 <_svfprintf_r+0x1416>
   16bde:	19c2                	slli	s3,s3,0x30
   16be0:	0309d993          	srli	s3,s3,0x30
   16be4:	e83a                	sd	a4,16(sp)
   16be6:	86a2                	mv	a3,s0
   16be8:	4785                	li	a5,1
   16bea:	b471                	j	16676 <_svfprintf_r+0x1f6>
   16bec:	02046413          	ori	s0,s0,32
   16bf0:	2401                	sext.w	s0,s0
   16bf2:	0004cf03          	lbu	t5,0(s1)
   16bf6:	b279                	j	16584 <_svfprintf_r+0x104>
   16bf8:	6742                	ld	a4,16(sp)
   16bfa:	77e1                	lui	a5,0xffff8
   16bfc:	8307c793          	xori	a5,a5,-2000
   16c00:	0ef11023          	sh	a5,224(sp)
   16c04:	00870793          	addi	a5,a4,8
   16c08:	00246693          	ori	a3,s0,2
   16c0c:	e83e                	sd	a5,16(sp)
   16c0e:	00005797          	auipc	a5,0x5
   16c12:	67278793          	addi	a5,a5,1650 # 1c280 <zeroes.4541+0x60>
   16c16:	f83e                	sd	a5,48(sp)
   16c18:	00073983          	ld	s3,0(a4)
   16c1c:	2681                	sext.w	a3,a3
   16c1e:	4789                	li	a5,2
   16c20:	07800c93          	li	s9,120
   16c24:	bc89                	j	16676 <_svfprintf_r+0x1f6>
   16c26:	6742                	ld	a4,16(sp)
   16c28:	02047793          	andi	a5,s0,32
   16c2c:	0721                	addi	a4,a4,8
   16c2e:	be0796e3          	bnez	a5,1681a <_svfprintf_r+0x39a>
   16c32:	01047793          	andi	a5,s0,16
   16c36:	be0792e3          	bnez	a5,1681a <_svfprintf_r+0x39a>
   16c3a:	66c2                	ld	a3,16(sp)
   16c3c:	04047793          	andi	a5,s0,64
   16c40:	0006a983          	lw	s3,0(a3)
   16c44:	440780e3          	beqz	a5,17884 <_svfprintf_r+0x1404>
   16c48:	19c2                	slli	s3,s3,0x30
   16c4a:	0309d993          	srli	s3,s3,0x30
   16c4e:	e83a                	sd	a4,16(sp)
   16c50:	bec9                	j	16822 <_svfprintf_r+0x3a2>
   16c52:	66c2                	ld	a3,16(sp)
   16c54:	02047793          	andi	a5,s0,32
   16c58:	6298                	ld	a4,0(a3)
   16c5a:	06a1                	addi	a3,a3,8
   16c5c:	e836                	sd	a3,16(sp)
   16c5e:	22079763          	bnez	a5,16e8c <_svfprintf_r+0xa0c>
   16c62:	01047793          	andi	a5,s0,16
   16c66:	22079363          	bnez	a5,16e8c <_svfprintf_r+0xa0c>
   16c6a:	04047793          	andi	a5,s0,64
   16c6e:	520793e3          	bnez	a5,17994 <_svfprintf_r+0x1514>
   16c72:	20047413          	andi	s0,s0,512
   16c76:	67a2                	ld	a5,8(sp)
   16c78:	e019                	bnez	s0,16c7e <_svfprintf_r+0x7fe>
   16c7a:	2200106f          	j	17e9a <_svfprintf_r+0x1a1a>
   16c7e:	00f70023          	sb	a5,0(a4)
   16c82:	8d26                	mv	s10,s1
   16c84:	bb61                	j	16a1c <_svfprintf_r+0x59c>
   16c86:	0004cf03          	lbu	t5,0(s1)
   16c8a:	06c00793          	li	a5,108
   16c8e:	00ff04e3          	beq	t5,a5,17496 <_svfprintf_r+0x1016>
   16c92:	01046413          	ori	s0,s0,16
   16c96:	2401                	sext.w	s0,s0
   16c98:	b0f5                	j	16584 <_svfprintf_r+0x104>
   16c9a:	00847793          	andi	a5,s0,8
   16c9e:	7a079363          	bnez	a5,17444 <_svfprintf_r+0xfc4>
   16ca2:	67c2                	ld	a5,16(sp)
   16ca4:	f01a                	sd	t1,32(sp)
   16ca6:	ec76                	sd	t4,24(sp)
   16ca8:	2388                	fld	fa0,0(a5)
   16caa:	07a1                	addi	a5,a5,8
   16cac:	e83e                	sd	a5,16(sp)
   16cae:	0c2050ef          	jal	ra,1bd70 <__extenddftf2>
   16cb2:	7302                	ld	t1,32(sp)
   16cb4:	6ee2                	ld	t4,24(sp)
   16cb6:	e22a                	sd	a0,256(sp)
   16cb8:	e62e                	sd	a1,264(sp)
   16cba:	0208                	addi	a0,sp,256
   16cbc:	f01a                	sd	t1,32(sp)
   16cbe:	ec76                	sd	t4,24(sp)
   16cc0:	e6dfd0ef          	jal	ra,14b2c <_ldcheck>
   16cc4:	d5aa                	sw	a0,232(sp)
   16cc6:	4789                	li	a5,2
   16cc8:	6ee2                	ld	t4,24(sp)
   16cca:	7302                	ld	t1,32(sp)
   16ccc:	28f50ae3          	beq	a0,a5,17760 <_svfprintf_r+0x12e0>
   16cd0:	4785                	li	a5,1
   16cd2:	3ef508e3          	beq	a0,a5,178c2 <_svfprintf_r+0x1442>
   16cd6:	06100793          	li	a5,97
   16cda:	00fc9463          	bne	s9,a5,16ce2 <_svfprintf_r+0x862>
   16cde:	19c0106f          	j	17e7a <_svfprintf_r+0x19fa>
   16ce2:	04100793          	li	a5,65
   16ce6:	70fc8ae3          	beq	s9,a5,17bfa <_svfprintf_r+0x177a>
   16cea:	fdfcf713          	andi	a4,s9,-33
   16cee:	57fd                	li	a5,-1
   16cf0:	f53a                	sd	a4,168(sp)
   16cf2:	50fe87e3          	beq	t4,a5,17a00 <_svfprintf_r+0x1580>
   16cf6:	04700793          	li	a5,71
   16cfa:	00f71463          	bne	a4,a5,16d02 <_svfprintf_r+0x882>
   16cfe:	18a0106f          	j	17e88 <_svfprintf_r+0x1a08>
   16d02:	6c32                	ld	s8,264(sp)
   16d04:	10046793          	ori	a5,s0,256
   16d08:	f922                	sd	s0,176(sp)
   16d0a:	2781                	sext.w	a5,a5
   16d0c:	6f92                	ld	t6,256(sp)
   16d0e:	000c5463          	bgez	s8,16d16 <_svfprintf_r+0x896>
   16d12:	08c0106f          	j	17d9e <_svfprintf_r+0x191e>
   16d16:	e582                	sd	zero,200(sp)
   16d18:	843e                	mv	s0,a5
   16d1a:	f002                	sd	zero,32(sp)
   16d1c:	772a                	ld	a4,168(sp)
   16d1e:	04600793          	li	a5,70
   16d22:	54f707e3          	beq	a4,a5,17a70 <_svfprintf_r+0x15f0>
   16d26:	04500793          	li	a5,69
   16d2a:	fc1a                	sd	t1,56(sp)
   16d2c:	00f71463          	bne	a4,a5,16d34 <_svfprintf_r+0x8b4>
   16d30:	11e0106f          	j	17e4e <_svfprintf_r+0x19ce>
   16d34:	8776                	mv	a4,t4
   16d36:	11bc                	addi	a5,sp,232
   16d38:	85fe                	mv	a1,t6
   16d3a:	0f810893          	addi	a7,sp,248
   16d3e:	0ec10813          	addi	a6,sp,236
   16d42:	4689                	li	a3,2
   16d44:	8662                	mv	a2,s8
   16d46:	8552                	mv	a0,s4
   16d48:	f476                	sd	t4,40(sp)
   16d4a:	ec7e                	sd	t6,24(sp)
   16d4c:	f19fc0ef          	jal	ra,13c64 <_ldtoa_r>
   16d50:	772a                	ld	a4,168(sp)
   16d52:	04700793          	li	a5,71
   16d56:	8d2a                	mv	s10,a0
   16d58:	6fe2                	ld	t6,24(sp)
   16d5a:	7ea2                	ld	t4,40(sp)
   16d5c:	7362                	ld	t1,56(sp)
   16d5e:	00f70463          	beq	a4,a5,16d66 <_svfprintf_r+0x8e6>
   16d62:	2a00106f          	j	18002 <_svfprintf_r+0x1b82>
   16d66:	77ca                	ld	a5,176(sp)
   16d68:	01d509b3          	add	s3,a0,t4
   16d6c:	8b85                	andi	a5,a5,1
   16d6e:	54079ee3          	bnez	a5,17aca <_svfprintf_r+0x164a>
   16d72:	77ee                	ld	a5,248(sp)
   16d74:	41a787bb          	subw	a5,a5,s10
   16d78:	f43e                	sd	a5,40(sp)
   16d7a:	572e                	lw	a4,232(sp)
   16d7c:	04700793          	li	a5,71
   16d80:	f0ba                	sd	a4,96(sp)
   16d82:	772a                	ld	a4,168(sp)
   16d84:	48f70be3          	beq	a4,a5,17a1a <_svfprintf_r+0x159a>
   16d88:	772a                	ld	a4,168(sp)
   16d8a:	04600793          	li	a5,70
   16d8e:	60f705e3          	beq	a4,a5,17b98 <_svfprintf_r+0x1718>
   16d92:	7786                	ld	a5,96(sp)
   16d94:	772a                	ld	a4,168(sp)
   16d96:	04100593          	li	a1,65
   16d9a:	37fd                	addiw	a5,a5,-1
   16d9c:	d5be                	sw	a5,232(sp)
   16d9e:	0ffcf693          	andi	a3,s9,255
   16da2:	4601                	li	a2,0
   16da4:	00b71663          	bne	a4,a1,16db0 <_svfprintf_r+0x930>
   16da8:	26bd                	addiw	a3,a3,15
   16daa:	0ff6f693          	andi	a3,a3,255
   16dae:	4605                	li	a2,1
   16db0:	0ed10823          	sb	a3,240(sp)
   16db4:	02b00693          	li	a3,43
   16db8:	0007d763          	bgez	a5,16dc6 <_svfprintf_r+0x946>
   16dbc:	7706                	ld	a4,96(sp)
   16dbe:	4785                	li	a5,1
   16dc0:	02d00693          	li	a3,45
   16dc4:	9f99                	subw	a5,a5,a4
   16dc6:	0ed108a3          	sb	a3,241(sp)
   16dca:	46a5                	li	a3,9
   16dcc:	00f6c463          	blt	a3,a5,16dd4 <_svfprintf_r+0x954>
   16dd0:	0da0106f          	j	17eaa <_svfprintf_r+0x1a2a>
   16dd4:	0ff10513          	addi	a0,sp,255
   16dd8:	85aa                	mv	a1,a0
   16dda:	4829                	li	a6,10
   16ddc:	06300893          	li	a7,99
   16de0:	a019                	j	16de6 <_svfprintf_r+0x966>
   16de2:	85b2                	mv	a1,a2
   16de4:	87b6                	mv	a5,a3
   16de6:	0307e6bb          	remw	a3,a5,a6
   16dea:	fff58613          	addi	a2,a1,-1
   16dee:	0306869b          	addiw	a3,a3,48
   16df2:	fed58fa3          	sb	a3,-1(a1)
   16df6:	0307c6bb          	divw	a3,a5,a6
   16dfa:	fef8c4e3          	blt	a7,a5,16de2 <_svfprintf_r+0x962>
   16dfe:	0306879b          	addiw	a5,a3,48
   16e02:	0ff7f793          	andi	a5,a5,255
   16e06:	ffe58693          	addi	a3,a1,-2
   16e0a:	fef60fa3          	sb	a5,-1(a2)
   16e0e:	00a6e463          	bltu	a3,a0,16e16 <_svfprintf_r+0x996>
   16e12:	1e80106f          	j	17ffa <_svfprintf_r+0x1b7a>
   16e16:	0f210613          	addi	a2,sp,242
   16e1a:	a019                	j	16e20 <_svfprintf_r+0x9a0>
   16e1c:	0006c783          	lbu	a5,0(a3)
   16e20:	0605                	addi	a2,a2,1
   16e22:	0685                	addi	a3,a3,1
   16e24:	fef60fa3          	sb	a5,-1(a2)
   16e28:	fea69ae3          	bne	a3,a0,16e1c <_svfprintf_r+0x99c>
   16e2c:	10110793          	addi	a5,sp,257
   16e30:	8f8d                	sub	a5,a5,a1
   16e32:	0f210713          	addi	a4,sp,242
   16e36:	97ba                	add	a5,a5,a4
   16e38:	1994                	addi	a3,sp,240
   16e3a:	9f95                	subw	a5,a5,a3
   16e3c:	e93e                	sd	a5,144(sp)
   16e3e:	67ca                	ld	a5,144(sp)
   16e40:	7722                	ld	a4,40(sp)
   16e42:	4685                	li	a3,1
   16e44:	00f70c3b          	addw	s8,a4,a5
   16e48:	87e2                	mv	a5,s8
   16e4a:	00e6c463          	blt	a3,a4,16e52 <_svfprintf_r+0x9d2>
   16e4e:	14e0106f          	j	17f9c <_svfprintf_r+0x1b1c>
   16e52:	7766                	ld	a4,120(sp)
   16e54:	00e78c3b          	addw	s8,a5,a4
   16e58:	77ca                	ld	a5,176(sp)
   16e5a:	fffc4993          	not	s3,s8
   16e5e:	43f9d993          	srai	s3,s3,0x3f
   16e62:	bff7f413          	andi	s0,a5,-1025
   16e66:	2401                	sext.w	s0,s0
   16e68:	013c79b3          	and	s3,s8,s3
   16e6c:	10046413          	ori	s0,s0,256
   16e70:	2981                	sext.w	s3,s3
   16e72:	ec82                	sd	zero,88(sp)
   16e74:	f482                	sd	zero,104(sp)
   16e76:	f082                	sd	zero,96(sp)
   16e78:	67ae                	ld	a5,200(sp)
   16e7a:	480784e3          	beqz	a5,17b02 <_svfprintf_r+0x1682>
   16e7e:	02d00793          	li	a5,45
   16e82:	0cf10fa3          	sb	a5,223(sp)
   16e86:	4e81                	li	t4,0
   16e88:	2985                	addiw	s3,s3,1
   16e8a:	bc45                	j	1693a <_svfprintf_r+0x4ba>
   16e8c:	67a2                	ld	a5,8(sp)
   16e8e:	8d26                	mv	s10,s1
   16e90:	e31c                	sd	a5,0(a4)
   16e92:	b669                	j	16a1c <_svfprintf_r+0x59c>
   16e94:	86a2                	mv	a3,s0
   16e96:	47a5                	li	a5,9
   16e98:	0137ec63          	bltu	a5,s3,16eb0 <_svfprintf_r+0xa30>
   16e9c:	0309899b          	addiw	s3,s3,48
   16ea0:	193105a3          	sb	s3,395(sp)
   16ea4:	8436                	mv	s0,a3
   16ea6:	4c05                	li	s8,1
   16ea8:	18b10d13          	addi	s10,sp,395
   16eac:	ff2ff06f          	j	1669e <_svfprintf_r+0x21e>
   16eb0:	4006f793          	andi	a5,a3,1024
   16eb4:	18c10c13          	addi	s8,sp,396
   16eb8:	2781                	sext.w	a5,a5
   16eba:	f402                	sd	zero,40(sp)
   16ebc:	85e2                	mv	a1,s8
   16ebe:	4429                	li	s0,10
   16ec0:	4825                	li	a6,9
   16ec2:	0ff00893          	li	a7,255
   16ec6:	a039                	j	16ed4 <_svfprintf_r+0xa54>
   16ec8:	0289d633          	divu	a2,s3,s0
   16ecc:	03387963          	bgeu	a6,s3,16efe <_svfprintf_r+0xa7e>
   16ed0:	89b2                	mv	s3,a2
   16ed2:	85ea                	mv	a1,s10
   16ed4:	7722                	ld	a4,40(sp)
   16ed6:	fff58d13          	addi	s10,a1,-1
   16eda:	2705                	addiw	a4,a4,1
   16edc:	f43a                	sd	a4,40(sp)
   16ede:	0289f633          	remu	a2,s3,s0
   16ee2:	0306061b          	addiw	a2,a2,48
   16ee6:	fec58fa3          	sb	a2,-1(a1)
   16eea:	dff9                	beqz	a5,16ec8 <_svfprintf_r+0xa48>
   16eec:	7646                	ld	a2,112(sp)
   16eee:	00064603          	lbu	a2,0(a2)
   16ef2:	fcc71be3          	bne	a4,a2,16ec8 <_svfprintf_r+0xa48>
   16ef6:	fd1609e3          	beq	a2,a7,16ec8 <_svfprintf_r+0xa48>
   16efa:	23386fe3          	bltu	a6,s3,17938 <_svfprintf_r+0x14b8>
   16efe:	41ac0c3b          	subw	s8,s8,s10
   16f02:	8436                	mv	s0,a3
   16f04:	f9aff06f          	j	1669e <_svfprintf_r+0x21e>
   16f08:	06500693          	li	a3,101
   16f0c:	b596d7e3          	bge	a3,s9,16a5a <_svfprintf_r+0x5da>
   16f10:	6512                	ld	a0,256(sp)
   16f12:	65b2                	ld	a1,264(sp)
   16f14:	4601                	li	a2,0
   16f16:	4681                	li	a3,0
   16f18:	fc1a                	sd	t1,56(sp)
   16f1a:	ec3e                	sd	a5,24(sp)
   16f1c:	54f030ef          	jal	ra,1ac6a <__eqtf2>
   16f20:	67e2                	ld	a5,24(sp)
   16f22:	7362                	ld	t1,56(sp)
   16f24:	34051163          	bnez	a0,17266 <_svfprintf_r+0xde6>
   16f28:	11812703          	lw	a4,280(sp)
   16f2c:	00005697          	auipc	a3,0x5
   16f30:	38c68693          	addi	a3,a3,908 # 1c2b8 <zeroes.4541+0x98>
   16f34:	0785                	addi	a5,a5,1
   16f36:	2705                	addiw	a4,a4,1
   16f38:	00d33023          	sd	a3,0(t1)
   16f3c:	4685                	li	a3,1
   16f3e:	00d33423          	sd	a3,8(t1)
   16f42:	f23e                	sd	a5,288(sp)
   16f44:	0007069b          	sext.w	a3,a4
   16f48:	10e12c23          	sw	a4,280(sp)
   16f4c:	479d                	li	a5,7
   16f4e:	0341                	addi	t1,t1,16
   16f50:	7cd7c363          	blt	a5,a3,17716 <_svfprintf_r+0x1296>
   16f54:	57ae                	lw	a5,232(sp)
   16f56:	7722                	ld	a4,40(sp)
   16f58:	00e7c763          	blt	a5,a4,16f66 <_svfprintf_r+0xae6>
   16f5c:	00147793          	andi	a5,s0,1
   16f60:	e399                	bnez	a5,16f66 <_svfprintf_r+0xae6>
   16f62:	7792                	ld	a5,288(sp)
   16f64:	b459                	j	169ea <_svfprintf_r+0x56a>
   16f66:	678a                	ld	a5,128(sp)
   16f68:	76e6                	ld	a3,120(sp)
   16f6a:	11812703          	lw	a4,280(sp)
   16f6e:	00f33023          	sd	a5,0(t1)
   16f72:	7792                	ld	a5,288(sp)
   16f74:	2705                	addiw	a4,a4,1
   16f76:	00d33423          	sd	a3,8(t1)
   16f7a:	97b6                	add	a5,a5,a3
   16f7c:	10e12c23          	sw	a4,280(sp)
   16f80:	0007069b          	sext.w	a3,a4
   16f84:	f23e                	sd	a5,288(sp)
   16f86:	471d                	li	a4,7
   16f88:	0341                	addi	t1,t1,16
   16f8a:	4ed74463          	blt	a4,a3,17472 <_svfprintf_r+0xff2>
   16f8e:	7722                	ld	a4,40(sp)
   16f90:	fff70c1b          	addiw	s8,a4,-1
   16f94:	a5805be3          	blez	s8,169ea <_svfprintf_r+0x56a>
   16f98:	11812703          	lw	a4,280(sp)
   16f9c:	798dd863          	bge	s11,s8,1772c <_svfprintf_r+0x12ac>
   16fa0:	4c9d                	li	s9,7
   16fa2:	a021                	j	16faa <_svfprintf_r+0xb2a>
   16fa4:	3c41                	addiw	s8,s8,-16
   16fa6:	798dd363          	bge	s11,s8,1772c <_svfprintf_r+0x12ac>
   16faa:	2705                	addiw	a4,a4,1
   16fac:	07c1                	addi	a5,a5,16
   16fae:	01233023          	sd	s2,0(t1)
   16fb2:	01b33423          	sd	s11,8(t1)
   16fb6:	f23e                	sd	a5,288(sp)
   16fb8:	10e12c23          	sw	a4,280(sp)
   16fbc:	0341                	addi	t1,t1,16
   16fbe:	feecd3e3          	bge	s9,a4,16fa4 <_svfprintf_r+0xb24>
   16fc2:	0a10                	addi	a2,sp,272
   16fc4:	85da                	mv	a1,s6
   16fc6:	8552                	mv	a0,s4
   16fc8:	449020ef          	jal	ra,19c10 <__ssprint_r>
   16fcc:	e0051a63          	bnez	a0,165e0 <_svfprintf_r+0x160>
   16fd0:	7792                	ld	a5,288(sp)
   16fd2:	11812703          	lw	a4,280(sp)
   16fd6:	8356                	mv	t1,s5
   16fd8:	b7f1                	j	16fa4 <_svfprintf_r+0xb24>
   16fda:	413b883b          	subw	a6,s7,s3
   16fde:	9d005de3          	blez	a6,169b8 <_svfprintf_r+0x538>
   16fe2:	11812683          	lw	a3,280(sp)
   16fe6:	050dd663          	bge	s11,a6,17032 <_svfprintf_r+0xbb2>
   16fea:	489d                	li	a7,7
   16fec:	a021                	j	16ff4 <_svfprintf_r+0xb74>
   16fee:	3841                	addiw	a6,a6,-16
   16ff0:	050dd163          	bge	s11,a6,17032 <_svfprintf_r+0xbb2>
   16ff4:	2685                	addiw	a3,a3,1
   16ff6:	07c1                	addi	a5,a5,16
   16ff8:	01233023          	sd	s2,0(t1)
   16ffc:	01b33423          	sd	s11,8(t1)
   17000:	f23e                	sd	a5,288(sp)
   17002:	10d12c23          	sw	a3,280(sp)
   17006:	0341                	addi	t1,t1,16
   17008:	fed8d3e3          	bge	a7,a3,16fee <_svfprintf_r+0xb6e>
   1700c:	0a10                	addi	a2,sp,272
   1700e:	85da                	mv	a1,s6
   17010:	8552                	mv	a0,s4
   17012:	fc42                	sd	a6,56(sp)
   17014:	ec76                	sd	t4,24(sp)
   17016:	3fb020ef          	jal	ra,19c10 <__ssprint_r>
   1701a:	dc051363          	bnez	a0,165e0 <_svfprintf_r+0x160>
   1701e:	7862                	ld	a6,56(sp)
   17020:	7792                	ld	a5,288(sp)
   17022:	11812683          	lw	a3,280(sp)
   17026:	3841                	addiw	a6,a6,-16
   17028:	8356                	mv	t1,s5
   1702a:	489d                	li	a7,7
   1702c:	6ee2                	ld	t4,24(sp)
   1702e:	fd0dc3e3          	blt	s11,a6,16ff4 <_svfprintf_r+0xb74>
   17032:	0016861b          	addiw	a2,a3,1
   17036:	97c2                	add	a5,a5,a6
   17038:	01233023          	sd	s2,0(t1)
   1703c:	01033423          	sd	a6,8(t1)
   17040:	f23e                	sd	a5,288(sp)
   17042:	10c12c23          	sw	a2,280(sp)
   17046:	469d                	li	a3,7
   17048:	0341                	addi	t1,t1,16
   1704a:	96c6d7e3          	bge	a3,a2,169b8 <_svfprintf_r+0x538>
   1704e:	0a10                	addi	a2,sp,272
   17050:	85da                	mv	a1,s6
   17052:	8552                	mv	a0,s4
   17054:	ec76                	sd	t4,24(sp)
   17056:	3bb020ef          	jal	ra,19c10 <__ssprint_r>
   1705a:	d8051363          	bnez	a0,165e0 <_svfprintf_r+0x160>
   1705e:	6ee2                	ld	t4,24(sp)
   17060:	7792                	ld	a5,288(sp)
   17062:	8356                	mv	t1,s5
   17064:	418e8ebb          	subw	t4,t4,s8
   17068:	95d05ce3          	blez	t4,169c0 <_svfprintf_r+0x540>
   1706c:	11812683          	lw	a3,280(sp)
   17070:	05ddd463          	bge	s11,t4,170b8 <_svfprintf_r+0xc38>
   17074:	481d                	li	a6,7
   17076:	a021                	j	1707e <_svfprintf_r+0xbfe>
   17078:	3ec1                	addiw	t4,t4,-16
   1707a:	03dddf63          	bge	s11,t4,170b8 <_svfprintf_r+0xc38>
   1707e:	2685                	addiw	a3,a3,1
   17080:	07c1                	addi	a5,a5,16
   17082:	01233023          	sd	s2,0(t1)
   17086:	01b33423          	sd	s11,8(t1)
   1708a:	f23e                	sd	a5,288(sp)
   1708c:	10d12c23          	sw	a3,280(sp)
   17090:	0341                	addi	t1,t1,16
   17092:	fed853e3          	bge	a6,a3,17078 <_svfprintf_r+0xbf8>
   17096:	0a10                	addi	a2,sp,272
   17098:	85da                	mv	a1,s6
   1709a:	8552                	mv	a0,s4
   1709c:	ec76                	sd	t4,24(sp)
   1709e:	373020ef          	jal	ra,19c10 <__ssprint_r>
   170a2:	d2051f63          	bnez	a0,165e0 <_svfprintf_r+0x160>
   170a6:	6ee2                	ld	t4,24(sp)
   170a8:	7792                	ld	a5,288(sp)
   170aa:	11812683          	lw	a3,280(sp)
   170ae:	3ec1                	addiw	t4,t4,-16
   170b0:	8356                	mv	t1,s5
   170b2:	481d                	li	a6,7
   170b4:	fdddc5e3          	blt	s11,t4,1707e <_svfprintf_r+0xbfe>
   170b8:	0016861b          	addiw	a2,a3,1
   170bc:	97f6                	add	a5,a5,t4
   170be:	01233023          	sd	s2,0(t1)
   170c2:	01d33423          	sd	t4,8(t1)
   170c6:	f23e                	sd	a5,288(sp)
   170c8:	10c12c23          	sw	a2,280(sp)
   170cc:	469d                	li	a3,7
   170ce:	0341                	addi	t1,t1,16
   170d0:	8ec6d8e3          	bge	a3,a2,169c0 <_svfprintf_r+0x540>
   170d4:	0a10                	addi	a2,sp,272
   170d6:	85da                	mv	a1,s6
   170d8:	8552                	mv	a0,s4
   170da:	337020ef          	jal	ra,19c10 <__ssprint_r>
   170de:	d0051163          	bnez	a0,165e0 <_svfprintf_r+0x160>
   170e2:	7792                	ld	a5,288(sp)
   170e4:	8356                	mv	t1,s5
   170e6:	b8e9                	j	169c0 <_svfprintf_r+0x540>
   170e8:	86a2                	mv	a3,s0
   170ea:	fe0ff06f          	j	168ca <_svfprintf_r+0x44a>
   170ee:	11812683          	lw	a3,280(sp)
   170f2:	00005f97          	auipc	t6,0x5
   170f6:	71ef8f93          	addi	t6,t6,1822 # 1c810 <blanks.4525>
   170fa:	439d                	li	t2,7
   170fc:	010dc663          	blt	s11,a6,17108 <_svfprintf_r+0xc88>
   17100:	a889                	j	17152 <_svfprintf_r+0xcd2>
   17102:	3841                	addiw	a6,a6,-16
   17104:	050dd763          	bge	s11,a6,17152 <_svfprintf_r+0xcd2>
   17108:	2685                	addiw	a3,a3,1
   1710a:	07c1                	addi	a5,a5,16
   1710c:	01f33023          	sd	t6,0(t1)
   17110:	01b33423          	sd	s11,8(t1)
   17114:	f23e                	sd	a5,288(sp)
   17116:	10d12c23          	sw	a3,280(sp)
   1711a:	0341                	addi	t1,t1,16
   1711c:	fed3d3e3          	bge	t2,a3,17102 <_svfprintf_r+0xc82>
   17120:	0a10                	addi	a2,sp,272
   17122:	85da                	mv	a1,s6
   17124:	8552                	mv	a0,s4
   17126:	e8fe                	sd	t6,80(sp)
   17128:	e4c2                	sd	a6,72(sp)
   1712a:	e0f6                	sd	t4,64(sp)
   1712c:	fc16                	sd	t0,56(sp)
   1712e:	ec46                	sd	a7,24(sp)
   17130:	2e1020ef          	jal	ra,19c10 <__ssprint_r>
   17134:	ca051663          	bnez	a0,165e0 <_svfprintf_r+0x160>
   17138:	6826                	ld	a6,72(sp)
   1713a:	7792                	ld	a5,288(sp)
   1713c:	11812683          	lw	a3,280(sp)
   17140:	3841                	addiw	a6,a6,-16
   17142:	8356                	mv	t1,s5
   17144:	6fc6                	ld	t6,80(sp)
   17146:	439d                	li	t2,7
   17148:	6e86                	ld	t4,64(sp)
   1714a:	72e2                	ld	t0,56(sp)
   1714c:	68e2                	ld	a7,24(sp)
   1714e:	fb0dcde3          	blt	s11,a6,17108 <_svfprintf_r+0xc88>
   17152:	0016861b          	addiw	a2,a3,1
   17156:	97c2                	add	a5,a5,a6
   17158:	01f33023          	sd	t6,0(t1)
   1715c:	01033423          	sd	a6,8(t1)
   17160:	f23e                	sd	a5,288(sp)
   17162:	10c12c23          	sw	a2,280(sp)
   17166:	469d                	li	a3,7
   17168:	0341                	addi	t1,t1,16
   1716a:	fec6d763          	bge	a3,a2,16958 <_svfprintf_r+0x4d8>
   1716e:	0a10                	addi	a2,sp,272
   17170:	85da                	mv	a1,s6
   17172:	8552                	mv	a0,s4
   17174:	e0f6                	sd	t4,64(sp)
   17176:	fc16                	sd	t0,56(sp)
   17178:	ec46                	sd	a7,24(sp)
   1717a:	297020ef          	jal	ra,19c10 <__ssprint_r>
   1717e:	c6051163          	bnez	a0,165e0 <_svfprintf_r+0x160>
   17182:	7792                	ld	a5,288(sp)
   17184:	8356                	mv	t1,s5
   17186:	6e86                	ld	t4,64(sp)
   17188:	72e2                	ld	t0,56(sp)
   1718a:	68e2                	ld	a7,24(sp)
   1718c:	fccff06f          	j	16958 <_svfprintf_r+0x4d8>
   17190:	0a10                	addi	a2,sp,272
   17192:	85da                	mv	a1,s6
   17194:	8552                	mv	a0,s4
   17196:	fc76                	sd	t4,56(sp)
   17198:	ec16                	sd	t0,24(sp)
   1719a:	277020ef          	jal	ra,19c10 <__ssprint_r>
   1719e:	c4051163          	bnez	a0,165e0 <_svfprintf_r+0x160>
   171a2:	7792                	ld	a5,288(sp)
   171a4:	8356                	mv	t1,s5
   171a6:	7ee2                	ld	t4,56(sp)
   171a8:	62e2                	ld	t0,24(sp)
   171aa:	807ff06f          	j	169b0 <_svfprintf_r+0x530>
   171ae:	11812703          	lw	a4,280(sp)
   171b2:	00005f97          	auipc	t6,0x5
   171b6:	65ef8f93          	addi	t6,t6,1630 # 1c810 <blanks.4525>
   171ba:	4c1d                	li	s8,7
   171bc:	008dc663          	blt	s11,s0,171c8 <_svfprintf_r+0xd48>
   171c0:	a081                	j	17200 <_svfprintf_r+0xd80>
   171c2:	3441                	addiw	s0,s0,-16
   171c4:	028dde63          	bge	s11,s0,17200 <_svfprintf_r+0xd80>
   171c8:	2705                	addiw	a4,a4,1
   171ca:	07c1                	addi	a5,a5,16
   171cc:	01f33023          	sd	t6,0(t1)
   171d0:	01b33423          	sd	s11,8(t1)
   171d4:	f23e                	sd	a5,288(sp)
   171d6:	10e12c23          	sw	a4,280(sp)
   171da:	0341                	addi	t1,t1,16
   171dc:	feec53e3          	bge	s8,a4,171c2 <_svfprintf_r+0xd42>
   171e0:	0a10                	addi	a2,sp,272
   171e2:	85da                	mv	a1,s6
   171e4:	8552                	mv	a0,s4
   171e6:	ec7e                	sd	t6,24(sp)
   171e8:	229020ef          	jal	ra,19c10 <__ssprint_r>
   171ec:	be051a63          	bnez	a0,165e0 <_svfprintf_r+0x160>
   171f0:	3441                	addiw	s0,s0,-16
   171f2:	7792                	ld	a5,288(sp)
   171f4:	11812703          	lw	a4,280(sp)
   171f8:	8356                	mv	t1,s5
   171fa:	6fe2                	ld	t6,24(sp)
   171fc:	fc8dc6e3          	blt	s11,s0,171c8 <_svfprintf_r+0xd48>
   17200:	0017069b          	addiw	a3,a4,1
   17204:	97a2                	add	a5,a5,s0
   17206:	01f33023          	sd	t6,0(t1)
   1720a:	00833423          	sd	s0,8(t1)
   1720e:	f23e                	sd	a5,288(sp)
   17210:	10d12c23          	sw	a3,280(sp)
   17214:	471d                	li	a4,7
   17216:	fed75063          	bge	a4,a3,169f6 <_svfprintf_r+0x576>
   1721a:	0a10                	addi	a2,sp,272
   1721c:	85da                	mv	a1,s6
   1721e:	8552                	mv	a0,s4
   17220:	1f1020ef          	jal	ra,19c10 <__ssprint_r>
   17224:	ba051e63          	bnez	a0,165e0 <_svfprintf_r+0x160>
   17228:	7792                	ld	a5,288(sp)
   1722a:	fccff06f          	j	169f6 <_svfprintf_r+0x576>
   1722e:	4705                	li	a4,1
   17230:	7ce78b63          	beq	a5,a4,17a06 <_svfprintf_r+0x1586>
   17234:	4709                	li	a4,2
   17236:	86a2                	mv	a3,s0
   17238:	e8e79f63          	bne	a5,a4,168d6 <_svfprintf_r+0x456>
   1723c:	18c10c13          	addi	s8,sp,396
   17240:	8d62                	mv	s10,s8
   17242:	7742                	ld	a4,48(sp)
   17244:	00f9f793          	andi	a5,s3,15
   17248:	1d7d                	addi	s10,s10,-1
   1724a:	97ba                	add	a5,a5,a4
   1724c:	0007c783          	lbu	a5,0(a5)
   17250:	0049d993          	srli	s3,s3,0x4
   17254:	00fd0023          	sb	a5,0(s10)
   17258:	fe0995e3          	bnez	s3,17242 <_svfprintf_r+0xdc2>
   1725c:	41ac0c3b          	subw	s8,s8,s10
   17260:	8436                	mv	s0,a3
   17262:	c3cff06f          	j	1669e <_svfprintf_r+0x21e>
   17266:	55ae                	lw	a1,232(sp)
   17268:	40b05b63          	blez	a1,1767e <_svfprintf_r+0x11fe>
   1726c:	7722                	ld	a4,40(sp)
   1726e:	7686                	ld	a3,96(sp)
   17270:	00070c1b          	sext.w	s8,a4
   17274:	1ee6ca63          	blt	a3,a4,17468 <_svfprintf_r+0xfe8>
   17278:	03805263          	blez	s8,1729c <_svfprintf_r+0xe1c>
   1727c:	11812683          	lw	a3,280(sp)
   17280:	97e2                	add	a5,a5,s8
   17282:	01a33023          	sd	s10,0(t1)
   17286:	0016861b          	addiw	a2,a3,1
   1728a:	01833423          	sd	s8,8(t1)
   1728e:	f23e                	sd	a5,288(sp)
   17290:	10c12c23          	sw	a2,280(sp)
   17294:	469d                	li	a3,7
   17296:	0341                	addi	t1,t1,16
   17298:	68c6c563          	blt	a3,a2,17922 <_svfprintf_r+0x14a2>
   1729c:	fffc4693          	not	a3,s8
   172a0:	7706                	ld	a4,96(sp)
   172a2:	96fd                	srai	a3,a3,0x3f
   172a4:	00dc7c33          	and	s8,s8,a3
   172a8:	41870c3b          	subw	s8,a4,s8
   172ac:	23804d63          	bgtz	s8,174e6 <_svfprintf_r+0x1066>
   172b0:	7706                	ld	a4,96(sp)
   172b2:	40047693          	andi	a3,s0,1024
   172b6:	00ed0c33          	add	s8,s10,a4
   172ba:	26069763          	bnez	a3,17528 <_svfprintf_r+0x10a8>
   172be:	56ae                	lw	a3,232(sp)
   172c0:	7722                	ld	a4,40(sp)
   172c2:	00e6c663          	blt	a3,a4,172ce <_svfprintf_r+0xe4e>
   172c6:	00147613          	andi	a2,s0,1
   172ca:	6a060863          	beqz	a2,1797a <_svfprintf_r+0x14fa>
   172ce:	660a                	ld	a2,128(sp)
   172d0:	7766                	ld	a4,120(sp)
   172d2:	0341                	addi	t1,t1,16
   172d4:	fec33823          	sd	a2,-16(t1)
   172d8:	11812603          	lw	a2,280(sp)
   172dc:	97ba                	add	a5,a5,a4
   172de:	fee33c23          	sd	a4,-8(t1)
   172e2:	0016059b          	addiw	a1,a2,1
   172e6:	f23e                	sd	a5,288(sp)
   172e8:	10b12c23          	sw	a1,280(sp)
   172ec:	461d                	li	a2,7
   172ee:	04b646e3          	blt	a2,a1,17b3a <_svfprintf_r+0x16ba>
   172f2:	7722                	ld	a4,40(sp)
   172f4:	40d7063b          	subw	a2,a4,a3
   172f8:	976a                	add	a4,a4,s10
   172fa:	4187073b          	subw	a4,a4,s8
   172fe:	86b2                	mv	a3,a2
   17300:	00c75363          	bge	a4,a2,17306 <_svfprintf_r+0xe86>
   17304:	86ba                	mv	a3,a4
   17306:	00068c9b          	sext.w	s9,a3
   1730a:	03905263          	blez	s9,1732e <_svfprintf_r+0xeae>
   1730e:	11812683          	lw	a3,280(sp)
   17312:	97e6                	add	a5,a5,s9
   17314:	01833023          	sd	s8,0(t1)
   17318:	0016859b          	addiw	a1,a3,1
   1731c:	01933423          	sd	s9,8(t1)
   17320:	f23e                	sd	a5,288(sp)
   17322:	10b12c23          	sw	a1,280(sp)
   17326:	469d                	li	a3,7
   17328:	0341                	addi	t1,t1,16
   1732a:	04b6c7e3          	blt	a3,a1,17b78 <_svfprintf_r+0x16f8>
   1732e:	fffccc13          	not	s8,s9
   17332:	43fc5c13          	srai	s8,s8,0x3f
   17336:	018cfc33          	and	s8,s9,s8
   1733a:	41860c3b          	subw	s8,a2,s8
   1733e:	eb805663          	blez	s8,169ea <_svfprintf_r+0x56a>
   17342:	11812703          	lw	a4,280(sp)
   17346:	3f8dd363          	bge	s11,s8,1772c <_svfprintf_r+0x12ac>
   1734a:	4c9d                	li	s9,7
   1734c:	a021                	j	17354 <_svfprintf_r+0xed4>
   1734e:	3c41                	addiw	s8,s8,-16
   17350:	3d8dde63          	bge	s11,s8,1772c <_svfprintf_r+0x12ac>
   17354:	2705                	addiw	a4,a4,1
   17356:	07c1                	addi	a5,a5,16
   17358:	01233023          	sd	s2,0(t1)
   1735c:	01b33423          	sd	s11,8(t1)
   17360:	f23e                	sd	a5,288(sp)
   17362:	10e12c23          	sw	a4,280(sp)
   17366:	0341                	addi	t1,t1,16
   17368:	feecd3e3          	bge	s9,a4,1734e <_svfprintf_r+0xece>
   1736c:	0a10                	addi	a2,sp,272
   1736e:	85da                	mv	a1,s6
   17370:	8552                	mv	a0,s4
   17372:	09f020ef          	jal	ra,19c10 <__ssprint_r>
   17376:	a6051563          	bnez	a0,165e0 <_svfprintf_r+0x160>
   1737a:	7792                	ld	a5,288(sp)
   1737c:	11812703          	lw	a4,280(sp)
   17380:	8356                	mv	t1,s5
   17382:	b7f1                	j	1734e <_svfprintf_r+0xece>
   17384:	00147513          	andi	a0,s0,1
   17388:	ee051763          	bnez	a0,16a76 <_svfprintf_r+0x5f6>
   1738c:	00b33423          	sd	a1,8(t1)
   17390:	f23e                	sd	a5,288(sp)
   17392:	10d12c23          	sw	a3,280(sp)
   17396:	471d                	li	a4,7
   17398:	2cd74163          	blt	a4,a3,1765a <_svfprintf_r+0x11da>
   1739c:	002f0c9b          	addiw	s9,t5,2
   173a0:	02030313          	addi	t1,t1,32
   173a4:	f60ff06f          	j	16b04 <_svfprintf_r+0x684>
   173a8:	f5105e63          	blez	a7,16b04 <_svfprintf_r+0x684>
   173ac:	431dd7e3          	bge	s11,a7,17fda <_svfprintf_r+0x1b5a>
   173b0:	4c9d                	li	s9,7
   173b2:	a031                	j	173be <_svfprintf_r+0xf3e>
   173b4:	38c1                	addiw	a7,a7,-16
   173b6:	491dda63          	bge	s11,a7,1784a <_svfprintf_r+0x13ca>
   173ba:	00180e9b          	addiw	t4,a6,1
   173be:	07c1                	addi	a5,a5,16
   173c0:	012c3023          	sd	s2,0(s8)
   173c4:	01bc3423          	sd	s11,8(s8)
   173c8:	f23e                	sd	a5,288(sp)
   173ca:	000e881b          	sext.w	a6,t4
   173ce:	11d12c23          	sw	t4,280(sp)
   173d2:	0c41                	addi	s8,s8,16
   173d4:	ff0cd0e3          	bge	s9,a6,173b4 <_svfprintf_r+0xf34>
   173d8:	0a10                	addi	a2,sp,272
   173da:	85da                	mv	a1,s6
   173dc:	8552                	mv	a0,s4
   173de:	ec46                	sd	a7,24(sp)
   173e0:	031020ef          	jal	ra,19c10 <__ssprint_r>
   173e4:	9e051e63          	bnez	a0,165e0 <_svfprintf_r+0x160>
   173e8:	7792                	ld	a5,288(sp)
   173ea:	11812803          	lw	a6,280(sp)
   173ee:	8c56                	mv	s8,s5
   173f0:	68e2                	ld	a7,24(sp)
   173f2:	b7c9                	j	173b4 <_svfprintf_r+0xf34>
   173f4:	89ea                	mv	s3,s10
   173f6:	976ff06f          	j	1656c <_svfprintf_r+0xec>
   173fa:	0a10                	addi	a2,sp,272
   173fc:	85da                	mv	a1,s6
   173fe:	8552                	mv	a0,s4
   17400:	011020ef          	jal	ra,19c10 <__ssprint_r>
   17404:	9c051e63          	bnez	a0,165e0 <_svfprintf_r+0x160>
   17408:	7792                	ld	a5,288(sp)
   1740a:	11812683          	lw	a3,280(sp)
   1740e:	8c56                	mv	s8,s5
   17410:	e78ff06f          	j	16a88 <_svfprintf_r+0x608>
   17414:	0a10                	addi	a2,sp,272
   17416:	85da                	mv	a1,s6
   17418:	8552                	mv	a0,s4
   1741a:	7f6020ef          	jal	ra,19c10 <__ssprint_r>
   1741e:	9c051163          	bnez	a0,165e0 <_svfprintf_r+0x160>
   17422:	7792                	ld	a5,288(sp)
   17424:	11812803          	lw	a6,280(sp)
   17428:	8c56                	mv	s8,s5
   1742a:	e7eff06f          	j	16aa8 <_svfprintf_r+0x628>
   1742e:	03000793          	li	a5,48
   17432:	18f105a3          	sb	a5,395(sp)
   17436:	18b10d13          	addi	s10,sp,395
   1743a:	a64ff06f          	j	1669e <_svfprintf_r+0x21e>
   1743e:	86a2                	mv	a3,s0
   17440:	c6aff06f          	j	168aa <_svfprintf_r+0x42a>
   17444:	67c2                	ld	a5,16(sp)
   17446:	07bd                	addi	a5,a5,15
   17448:	9bc1                	andi	a5,a5,-16
   1744a:	6394                	ld	a3,0(a5)
   1744c:	6798                	ld	a4,8(a5)
   1744e:	07c1                	addi	a5,a5,16
   17450:	e83e                	sd	a5,16(sp)
   17452:	e236                	sd	a3,256(sp)
   17454:	e63a                	sd	a4,264(sp)
   17456:	b095                	j	16cba <_svfprintf_r+0x83a>
   17458:	86a2                	mv	a3,s0
   1745a:	b44ff06f          	j	1679e <_svfprintf_r+0x31e>
   1745e:	67c2                	ld	a5,16(sp)
   17460:	0007b983          	ld	s3,0(a5)
   17464:	9ecff06f          	j	16650 <_svfprintf_r+0x1d0>
   17468:	00068c1b          	sext.w	s8,a3
   1746c:	e18048e3          	bgtz	s8,1727c <_svfprintf_r+0xdfc>
   17470:	b535                	j	1729c <_svfprintf_r+0xe1c>
   17472:	0a10                	addi	a2,sp,272
   17474:	85da                	mv	a1,s6
   17476:	8552                	mv	a0,s4
   17478:	798020ef          	jal	ra,19c10 <__ssprint_r>
   1747c:	96051263          	bnez	a0,165e0 <_svfprintf_r+0x160>
   17480:	7792                	ld	a5,288(sp)
   17482:	8356                	mv	t1,s5
   17484:	b629                	j	16f8e <_svfprintf_r+0xb0e>
   17486:	20046413          	ori	s0,s0,512
   1748a:	0014cf03          	lbu	t5,1(s1)
   1748e:	2401                	sext.w	s0,s0
   17490:	0485                	addi	s1,s1,1
   17492:	8f2ff06f          	j	16584 <_svfprintf_r+0x104>
   17496:	02046413          	ori	s0,s0,32
   1749a:	0014cf03          	lbu	t5,1(s1)
   1749e:	2401                	sext.w	s0,s0
   174a0:	0485                	addi	s1,s1,1
   174a2:	8e2ff06f          	j	16584 <_svfprintf_r+0x104>
   174a6:	04000593          	li	a1,64
   174aa:	8552                	mv	a0,s4
   174ac:	871fd0ef          	jal	ra,14d1c <_malloc_r>
   174b0:	00ab3023          	sd	a0,0(s6)
   174b4:	00ab3c23          	sd	a0,24(s6)
   174b8:	340508e3          	beqz	a0,18008 <_svfprintf_r+0x1b88>
   174bc:	04000793          	li	a5,64
   174c0:	02fb2023          	sw	a5,32(s6)
   174c4:	824ff06f          	j	164e8 <_svfprintf_r+0x68>
   174c8:	000e871b          	sext.w	a4,t4
   174cc:	4799                	li	a5,6
   174ce:	4ae7e463          	bltu	a5,a4,17976 <_svfprintf_r+0x14f6>
   174d2:	000e8c1b          	sext.w	s8,t4
   174d6:	89e2                	mv	s3,s8
   174d8:	e836                	sd	a3,16(sp)
   174da:	00005d17          	auipc	s10,0x5
   174de:	dd6d0d13          	addi	s10,s10,-554 # 1c2b0 <zeroes.4541+0x90>
   174e2:	c4eff06f          	j	16930 <_svfprintf_r+0x4b0>
   174e6:	11812683          	lw	a3,280(sp)
   174ea:	3f8dde63          	bge	s11,s8,178e6 <_svfprintf_r+0x1466>
   174ee:	4c9d                	li	s9,7
   174f0:	a021                	j	174f8 <_svfprintf_r+0x1078>
   174f2:	3c41                	addiw	s8,s8,-16
   174f4:	3f8dd963          	bge	s11,s8,178e6 <_svfprintf_r+0x1466>
   174f8:	2685                	addiw	a3,a3,1
   174fa:	07c1                	addi	a5,a5,16
   174fc:	01233023          	sd	s2,0(t1)
   17500:	01b33423          	sd	s11,8(t1)
   17504:	f23e                	sd	a5,288(sp)
   17506:	10d12c23          	sw	a3,280(sp)
   1750a:	0341                	addi	t1,t1,16
   1750c:	fedcd3e3          	bge	s9,a3,174f2 <_svfprintf_r+0x1072>
   17510:	0a10                	addi	a2,sp,272
   17512:	85da                	mv	a1,s6
   17514:	8552                	mv	a0,s4
   17516:	6fa020ef          	jal	ra,19c10 <__ssprint_r>
   1751a:	8c051363          	bnez	a0,165e0 <_svfprintf_r+0x160>
   1751e:	7792                	ld	a5,288(sp)
   17520:	11812683          	lw	a3,280(sp)
   17524:	8356                	mv	t1,s5
   17526:	b7f1                	j	174f2 <_svfprintf_r+0x1072>
   17528:	7722                	ld	a4,40(sp)
   1752a:	4c9d                	li	s9,7
   1752c:	976a                	add	a4,a4,s10
   1752e:	fc3a                	sd	a4,56(sp)
   17530:	7726                	ld	a4,104(sp)
   17532:	cb51                	beqz	a4,175c6 <_svfprintf_r+0x1146>
   17534:	6766                	ld	a4,88(sp)
   17536:	eb59                	bnez	a4,175cc <_svfprintf_r+0x114c>
   17538:	7746                	ld	a4,112(sp)
   1753a:	177d                	addi	a4,a4,-1
   1753c:	f8ba                	sd	a4,112(sp)
   1753e:	7726                	ld	a4,104(sp)
   17540:	377d                	addiw	a4,a4,-1
   17542:	f4ba                	sd	a4,104(sp)
   17544:	66ea                	ld	a3,152(sp)
   17546:	672a                	ld	a4,136(sp)
   17548:	0341                	addi	t1,t1,16
   1754a:	fed33823          	sd	a3,-16(t1)
   1754e:	11812683          	lw	a3,280(sp)
   17552:	97ba                	add	a5,a5,a4
   17554:	fee33c23          	sd	a4,-8(t1)
   17558:	0016861b          	addiw	a2,a3,1
   1755c:	f23e                	sd	a5,288(sp)
   1755e:	10c12c23          	sw	a2,280(sp)
   17562:	0eccc163          	blt	s9,a2,17644 <_svfprintf_r+0x11c4>
   17566:	7746                	ld	a4,112(sp)
   17568:	00074603          	lbu	a2,0(a4)
   1756c:	7762                	ld	a4,56(sp)
   1756e:	0006069b          	sext.w	a3,a2
   17572:	418705bb          	subw	a1,a4,s8
   17576:	0006881b          	sext.w	a6,a3
   1757a:	00d5d463          	bge	a1,a3,17582 <_svfprintf_r+0x1102>
   1757e:	0005881b          	sext.w	a6,a1
   17582:	03005663          	blez	a6,175ae <_svfprintf_r+0x112e>
   17586:	11812683          	lw	a3,280(sp)
   1758a:	97c2                	add	a5,a5,a6
   1758c:	01833023          	sd	s8,0(t1)
   17590:	0016861b          	addiw	a2,a3,1
   17594:	01033423          	sd	a6,8(t1)
   17598:	f23e                	sd	a5,288(sp)
   1759a:	10c12c23          	sw	a2,280(sp)
   1759e:	18cccf63          	blt	s9,a2,1773c <_svfprintf_r+0x12bc>
   175a2:	7746                	ld	a4,112(sp)
   175a4:	0341                	addi	t1,t1,16
   175a6:	00074603          	lbu	a2,0(a4)
   175aa:	0006069b          	sext.w	a3,a2
   175ae:	fff84593          	not	a1,a6
   175b2:	95fd                	srai	a1,a1,0x3f
   175b4:	00b87833          	and	a6,a6,a1
   175b8:	410686bb          	subw	a3,a3,a6
   175bc:	00d04c63          	bgtz	a3,175d4 <_svfprintf_r+0x1154>
   175c0:	9c32                	add	s8,s8,a2
   175c2:	7726                	ld	a4,104(sp)
   175c4:	fb25                	bnez	a4,17534 <_svfprintf_r+0x10b4>
   175c6:	6766                	ld	a4,88(sp)
   175c8:	44070263          	beqz	a4,17a0c <_svfprintf_r+0x158c>
   175cc:	6766                	ld	a4,88(sp)
   175ce:	377d                	addiw	a4,a4,-1
   175d0:	ecba                	sd	a4,88(sp)
   175d2:	bf8d                	j	17544 <_svfprintf_r+0x10c4>
   175d4:	11812603          	lw	a2,280(sp)
   175d8:	00ddc663          	blt	s11,a3,175e4 <_svfprintf_r+0x1164>
   175dc:	a089                	j	1761e <_svfprintf_r+0x119e>
   175de:	36c1                	addiw	a3,a3,-16
   175e0:	02dddf63          	bge	s11,a3,1761e <_svfprintf_r+0x119e>
   175e4:	2605                	addiw	a2,a2,1
   175e6:	07c1                	addi	a5,a5,16
   175e8:	01233023          	sd	s2,0(t1)
   175ec:	01b33423          	sd	s11,8(t1)
   175f0:	f23e                	sd	a5,288(sp)
   175f2:	10c12c23          	sw	a2,280(sp)
   175f6:	0341                	addi	t1,t1,16
   175f8:	feccd3e3          	bge	s9,a2,175de <_svfprintf_r+0x115e>
   175fc:	0a10                	addi	a2,sp,272
   175fe:	85da                	mv	a1,s6
   17600:	8552                	mv	a0,s4
   17602:	ec36                	sd	a3,24(sp)
   17604:	60c020ef          	jal	ra,19c10 <__ssprint_r>
   17608:	c119                	beqz	a0,1760e <_svfprintf_r+0x118e>
   1760a:	fd7fe06f          	j	165e0 <_svfprintf_r+0x160>
   1760e:	66e2                	ld	a3,24(sp)
   17610:	7792                	ld	a5,288(sp)
   17612:	11812603          	lw	a2,280(sp)
   17616:	36c1                	addiw	a3,a3,-16
   17618:	8356                	mv	t1,s5
   1761a:	fcddc5e3          	blt	s11,a3,175e4 <_svfprintf_r+0x1164>
   1761e:	2605                	addiw	a2,a2,1
   17620:	97b6                	add	a5,a5,a3
   17622:	00d33423          	sd	a3,8(t1)
   17626:	01233023          	sd	s2,0(t1)
   1762a:	f23e                	sd	a5,288(sp)
   1762c:	0006069b          	sext.w	a3,a2
   17630:	10c12c23          	sw	a2,280(sp)
   17634:	4cdccf63          	blt	s9,a3,17b12 <_svfprintf_r+0x1692>
   17638:	7746                	ld	a4,112(sp)
   1763a:	0341                	addi	t1,t1,16
   1763c:	00074603          	lbu	a2,0(a4)
   17640:	9c32                	add	s8,s8,a2
   17642:	b741                	j	175c2 <_svfprintf_r+0x1142>
   17644:	0a10                	addi	a2,sp,272
   17646:	85da                	mv	a1,s6
   17648:	8552                	mv	a0,s4
   1764a:	5c6020ef          	jal	ra,19c10 <__ssprint_r>
   1764e:	c119                	beqz	a0,17654 <_svfprintf_r+0x11d4>
   17650:	f91fe06f          	j	165e0 <_svfprintf_r+0x160>
   17654:	7792                	ld	a5,288(sp)
   17656:	8356                	mv	t1,s5
   17658:	b739                	j	17566 <_svfprintf_r+0x10e6>
   1765a:	0a10                	addi	a2,sp,272
   1765c:	85da                	mv	a1,s6
   1765e:	8552                	mv	a0,s4
   17660:	5b0020ef          	jal	ra,19c10 <__ssprint_r>
   17664:	c119                	beqz	a0,1766a <_svfprintf_r+0x11ea>
   17666:	f7bfe06f          	j	165e0 <_svfprintf_r+0x160>
   1766a:	11812f03          	lw	t5,280(sp)
   1766e:	7792                	ld	a5,288(sp)
   17670:	1a010313          	addi	t1,sp,416
   17674:	001f0c9b          	addiw	s9,t5,1
   17678:	8c56                	mv	s8,s5
   1767a:	c8aff06f          	j	16b04 <_svfprintf_r+0x684>
   1767e:	11812683          	lw	a3,280(sp)
   17682:	00005617          	auipc	a2,0x5
   17686:	c3660613          	addi	a2,a2,-970 # 1c2b8 <zeroes.4541+0x98>
   1768a:	00c33023          	sd	a2,0(t1)
   1768e:	2685                	addiw	a3,a3,1
   17690:	4605                	li	a2,1
   17692:	0785                	addi	a5,a5,1
   17694:	00c33423          	sd	a2,8(t1)
   17698:	10d12c23          	sw	a3,280(sp)
   1769c:	0006861b          	sext.w	a2,a3
   176a0:	f23e                	sd	a5,288(sp)
   176a2:	469d                	li	a3,7
   176a4:	0341                	addi	t1,t1,16
   176a6:	04c6cc63          	blt	a3,a2,176fe <_svfprintf_r+0x127e>
   176aa:	12059963          	bnez	a1,177dc <_svfprintf_r+0x135c>
   176ae:	7722                	ld	a4,40(sp)
   176b0:	00147693          	andi	a3,s0,1
   176b4:	8ed9                	or	a3,a3,a4
   176b6:	b2068a63          	beqz	a3,169ea <_svfprintf_r+0x56a>
   176ba:	11812603          	lw	a2,280(sp)
   176be:	7766                	ld	a4,120(sp)
   176c0:	668a                	ld	a3,128(sp)
   176c2:	97ba                	add	a5,a5,a4
   176c4:	00d33023          	sd	a3,0(t1)
   176c8:	0016069b          	addiw	a3,a2,1
   176cc:	00e33423          	sd	a4,8(t1)
   176d0:	f23e                	sd	a5,288(sp)
   176d2:	10d12c23          	sw	a3,280(sp)
   176d6:	461d                	li	a2,7
   176d8:	30d64463          	blt	a2,a3,179e0 <_svfprintf_r+0x1560>
   176dc:	0341                	addi	t1,t1,16
   176de:	7722                	ld	a4,40(sp)
   176e0:	0016861b          	addiw	a2,a3,1
   176e4:	01a33023          	sd	s10,0(t1)
   176e8:	97ba                	add	a5,a5,a4
   176ea:	00e33423          	sd	a4,8(t1)
   176ee:	f23e                	sd	a5,288(sp)
   176f0:	10c12c23          	sw	a2,280(sp)
   176f4:	471d                	li	a4,7
   176f6:	aec75963          	bge	a4,a2,169e8 <_svfprintf_r+0x568>
   176fa:	c24ff06f          	j	16b1e <_svfprintf_r+0x69e>
   176fe:	0a10                	addi	a2,sp,272
   17700:	85da                	mv	a1,s6
   17702:	8552                	mv	a0,s4
   17704:	50c020ef          	jal	ra,19c10 <__ssprint_r>
   17708:	c119                	beqz	a0,1770e <_svfprintf_r+0x128e>
   1770a:	ed7fe06f          	j	165e0 <_svfprintf_r+0x160>
   1770e:	55ae                	lw	a1,232(sp)
   17710:	7792                	ld	a5,288(sp)
   17712:	8356                	mv	t1,s5
   17714:	bf59                	j	176aa <_svfprintf_r+0x122a>
   17716:	0a10                	addi	a2,sp,272
   17718:	85da                	mv	a1,s6
   1771a:	8552                	mv	a0,s4
   1771c:	4f4020ef          	jal	ra,19c10 <__ssprint_r>
   17720:	c119                	beqz	a0,17726 <_svfprintf_r+0x12a6>
   17722:	ebffe06f          	j	165e0 <_svfprintf_r+0x160>
   17726:	8356                	mv	t1,s5
   17728:	82dff06f          	j	16f54 <_svfprintf_r+0xad4>
   1772c:	0017069b          	addiw	a3,a4,1
   17730:	8736                	mv	a4,a3
   17732:	97e2                	add	a5,a5,s8
   17734:	01233023          	sd	s2,0(t1)
   17738:	aa0ff06f          	j	169d8 <_svfprintf_r+0x558>
   1773c:	0a10                	addi	a2,sp,272
   1773e:	85da                	mv	a1,s6
   17740:	8552                	mv	a0,s4
   17742:	ec42                	sd	a6,24(sp)
   17744:	4cc020ef          	jal	ra,19c10 <__ssprint_r>
   17748:	c119                	beqz	a0,1774e <_svfprintf_r+0x12ce>
   1774a:	e97fe06f          	j	165e0 <_svfprintf_r+0x160>
   1774e:	77c6                	ld	a5,112(sp)
   17750:	8356                	mv	t1,s5
   17752:	6862                	ld	a6,24(sp)
   17754:	0007c603          	lbu	a2,0(a5)
   17758:	7792                	ld	a5,288(sp)
   1775a:	0006069b          	sext.w	a3,a2
   1775e:	bd81                	j	175ae <_svfprintf_r+0x112e>
   17760:	6512                	ld	a0,256(sp)
   17762:	65b2                	ld	a1,264(sp)
   17764:	4601                	li	a2,0
   17766:	4681                	li	a3,0
   17768:	ec1a                	sd	t1,24(sp)
   1776a:	64a030ef          	jal	ra,1adb4 <__letf2>
   1776e:	6362                	ld	t1,24(sp)
   17770:	3c054063          	bltz	a0,17b30 <_svfprintf_r+0x16b0>
   17774:	0df14783          	lbu	a5,223(sp)
   17778:	04700693          	li	a3,71
   1777c:	00005d17          	auipc	s10,0x5
   17780:	ae4d0d13          	addi	s10,s10,-1308 # 1c260 <zeroes.4541+0x40>
   17784:	1996ca63          	blt	a3,s9,17918 <_svfprintf_r+0x1498>
   17788:	f7f47413          	andi	s0,s0,-129
   1778c:	f002                	sd	zero,32(sp)
   1778e:	ec82                	sd	zero,88(sp)
   17790:	f482                	sd	zero,104(sp)
   17792:	f082                	sd	zero,96(sp)
   17794:	2401                	sext.w	s0,s0
   17796:	498d                	li	s3,3
   17798:	4c0d                	li	s8,3
   1779a:	4e81                	li	t4,0
   1779c:	c399                	beqz	a5,177a2 <_svfprintf_r+0x1322>
   1779e:	f1dfe06f          	j	166ba <_svfprintf_r+0x23a>
   177a2:	998ff06f          	j	1693a <_svfprintf_r+0x4ba>
   177a6:	856a                	mv	a0,s10
   177a8:	ec1a                	sd	t1,24(sp)
   177aa:	e836                	sd	a3,16(sp)
   177ac:	b9ffe0ef          	jal	ra,1634a <strlen>
   177b0:	00050c1b          	sext.w	s8,a0
   177b4:	fffc4993          	not	s3,s8
   177b8:	0df14783          	lbu	a5,223(sp)
   177bc:	43f9d993          	srai	s3,s3,0x3f
   177c0:	013c79b3          	and	s3,s8,s3
   177c4:	f002                	sd	zero,32(sp)
   177c6:	ec82                	sd	zero,88(sp)
   177c8:	f482                	sd	zero,104(sp)
   177ca:	f082                	sd	zero,96(sp)
   177cc:	2981                	sext.w	s3,s3
   177ce:	4e81                	li	t4,0
   177d0:	6362                	ld	t1,24(sp)
   177d2:	c399                	beqz	a5,177d8 <_svfprintf_r+0x1358>
   177d4:	ee7fe06f          	j	166ba <_svfprintf_r+0x23a>
   177d8:	962ff06f          	j	1693a <_svfprintf_r+0x4ba>
   177dc:	11812603          	lw	a2,280(sp)
   177e0:	7766                	ld	a4,120(sp)
   177e2:	668a                	ld	a3,128(sp)
   177e4:	0341                	addi	t1,t1,16
   177e6:	97ba                	add	a5,a5,a4
   177e8:	fed33823          	sd	a3,-16(t1)
   177ec:	0016069b          	addiw	a3,a2,1
   177f0:	fee33c23          	sd	a4,-8(t1)
   177f4:	f23e                	sd	a5,288(sp)
   177f6:	10d12c23          	sw	a3,280(sp)
   177fa:	461d                	li	a2,7
   177fc:	1ed64263          	blt	a2,a3,179e0 <_svfprintf_r+0x1560>
   17800:	ec05dfe3          	bgez	a1,176de <_svfprintf_r+0x125e>
   17804:	5641                	li	a2,-16
   17806:	40b00c3b          	negw	s8,a1
   1780a:	60c5d963          	bge	a1,a2,17e1c <_svfprintf_r+0x199c>
   1780e:	4c9d                	li	s9,7
   17810:	a021                	j	17818 <_svfprintf_r+0x1398>
   17812:	3c41                	addiw	s8,s8,-16
   17814:	618dd463          	bge	s11,s8,17e1c <_svfprintf_r+0x199c>
   17818:	2685                	addiw	a3,a3,1
   1781a:	07c1                	addi	a5,a5,16
   1781c:	01233023          	sd	s2,0(t1)
   17820:	01b33423          	sd	s11,8(t1)
   17824:	f23e                	sd	a5,288(sp)
   17826:	10d12c23          	sw	a3,280(sp)
   1782a:	0341                	addi	t1,t1,16
   1782c:	fedcd3e3          	bge	s9,a3,17812 <_svfprintf_r+0x1392>
   17830:	0a10                	addi	a2,sp,272
   17832:	85da                	mv	a1,s6
   17834:	8552                	mv	a0,s4
   17836:	3da020ef          	jal	ra,19c10 <__ssprint_r>
   1783a:	c119                	beqz	a0,17840 <_svfprintf_r+0x13c0>
   1783c:	da5fe06f          	j	165e0 <_svfprintf_r+0x160>
   17840:	7792                	ld	a5,288(sp)
   17842:	11812683          	lw	a3,280(sp)
   17846:	8356                	mv	t1,s5
   17848:	b7e9                	j	17812 <_svfprintf_r+0x1392>
   1784a:	00180c9b          	addiw	s9,a6,1
   1784e:	010c0713          	addi	a4,s8,16
   17852:	97c6                	add	a5,a5,a7
   17854:	012c3023          	sd	s2,0(s8)
   17858:	011c3423          	sd	a7,8(s8)
   1785c:	f23e                	sd	a5,288(sp)
   1785e:	11912c23          	sw	s9,280(sp)
   17862:	469d                	li	a3,7
   17864:	df96cbe3          	blt	a3,s9,1765a <_svfprintf_r+0x11da>
   17868:	2c85                	addiw	s9,s9,1
   1786a:	01070313          	addi	t1,a4,16
   1786e:	8c3a                	mv	s8,a4
   17870:	a94ff06f          	j	16b04 <_svfprintf_r+0x684>
   17874:	20047793          	andi	a5,s0,512
   17878:	14078a63          	beqz	a5,179cc <_svfprintf_r+0x154c>
   1787c:	0ff9f993          	andi	s3,s3,255
   17880:	dd1fe06f          	j	16650 <_svfprintf_r+0x1d0>
   17884:	20047793          	andi	a5,s0,512
   17888:	12078c63          	beqz	a5,179c0 <_svfprintf_r+0x1540>
   1788c:	0ff9f993          	andi	s3,s3,255
   17890:	e83a                	sd	a4,16(sp)
   17892:	f91fe06f          	j	16822 <_svfprintf_r+0x3a2>
   17896:	20047793          	andi	a5,s0,512
   1789a:	10078b63          	beqz	a5,179b0 <_svfprintf_r+0x1530>
   1789e:	0ff9f993          	andi	s3,s3,255
   178a2:	e83a                	sd	a4,16(sp)
   178a4:	86a2                	mv	a3,s0
   178a6:	4785                	li	a5,1
   178a8:	dcffe06f          	j	16676 <_svfprintf_r+0x1f6>
   178ac:	20047793          	andi	a5,s0,512
   178b0:	cbe5                	beqz	a5,179a0 <_svfprintf_r+0x1520>
   178b2:	67c2                	ld	a5,16(sp)
   178b4:	86a2                	mv	a3,s0
   178b6:	e83a                	sd	a4,16(sp)
   178b8:	00078983          	lb	s3,0(a5)
   178bc:	87ce                	mv	a5,s3
   178be:	fadfe06f          	j	1686a <_svfprintf_r+0x3ea>
   178c2:	67b2                	ld	a5,264(sp)
   178c4:	1007c963          	bltz	a5,179d6 <_svfprintf_r+0x1556>
   178c8:	0df14783          	lbu	a5,223(sp)
   178cc:	04700693          	li	a3,71
   178d0:	00005d17          	auipc	s10,0x5
   178d4:	9a0d0d13          	addi	s10,s10,-1632 # 1c270 <zeroes.4541+0x50>
   178d8:	eb96d8e3          	bge	a3,s9,17788 <_svfprintf_r+0x1308>
   178dc:	00005d17          	auipc	s10,0x5
   178e0:	99cd0d13          	addi	s10,s10,-1636 # 1c278 <zeroes.4541+0x58>
   178e4:	b555                	j	17788 <_svfprintf_r+0x1308>
   178e6:	0016861b          	addiw	a2,a3,1
   178ea:	97e2                	add	a5,a5,s8
   178ec:	01233023          	sd	s2,0(t1)
   178f0:	01833423          	sd	s8,8(t1)
   178f4:	f23e                	sd	a5,288(sp)
   178f6:	10c12c23          	sw	a2,280(sp)
   178fa:	469d                	li	a3,7
   178fc:	0341                	addi	t1,t1,16
   178fe:	9ac6d9e3          	bge	a3,a2,172b0 <_svfprintf_r+0xe30>
   17902:	0a10                	addi	a2,sp,272
   17904:	85da                	mv	a1,s6
   17906:	8552                	mv	a0,s4
   17908:	308020ef          	jal	ra,19c10 <__ssprint_r>
   1790c:	c119                	beqz	a0,17912 <_svfprintf_r+0x1492>
   1790e:	cd3fe06f          	j	165e0 <_svfprintf_r+0x160>
   17912:	7792                	ld	a5,288(sp)
   17914:	8356                	mv	t1,s5
   17916:	ba69                	j	172b0 <_svfprintf_r+0xe30>
   17918:	00005d17          	auipc	s10,0x5
   1791c:	950d0d13          	addi	s10,s10,-1712 # 1c268 <zeroes.4541+0x48>
   17920:	b5a5                	j	17788 <_svfprintf_r+0x1308>
   17922:	0a10                	addi	a2,sp,272
   17924:	85da                	mv	a1,s6
   17926:	8552                	mv	a0,s4
   17928:	2e8020ef          	jal	ra,19c10 <__ssprint_r>
   1792c:	c119                	beqz	a0,17932 <_svfprintf_r+0x14b2>
   1792e:	cb3fe06f          	j	165e0 <_svfprintf_r+0x160>
   17932:	7792                	ld	a5,288(sp)
   17934:	8356                	mv	t1,s5
   17936:	b29d                	j	1729c <_svfprintf_r+0xe1c>
   17938:	e0be                	sd	a5,64(sp)
   1793a:	67aa                	ld	a5,136(sp)
   1793c:	65ea                	ld	a1,152(sp)
   1793e:	fc1a                	sd	t1,56(sp)
   17940:	40fd0d33          	sub	s10,s10,a5
   17944:	863e                	mv	a2,a5
   17946:	856a                	mv	a0,s10
   17948:	f076                	sd	t4,32(sp)
   1794a:	ec36                	sd	a3,24(sp)
   1794c:	a97fe0ef          	jal	ra,163e2 <strncpy>
   17950:	77c6                	ld	a5,112(sp)
   17952:	0289d633          	divu	a2,s3,s0
   17956:	f402                	sd	zero,40(sp)
   17958:	0017c583          	lbu	a1,1(a5)
   1795c:	66e2                	ld	a3,24(sp)
   1795e:	7e82                	ld	t4,32(sp)
   17960:	00b035b3          	snez	a1,a1
   17964:	97ae                	add	a5,a5,a1
   17966:	f8be                	sd	a5,112(sp)
   17968:	7362                	ld	t1,56(sp)
   1796a:	6786                	ld	a5,64(sp)
   1796c:	4825                	li	a6,9
   1796e:	0ff00893          	li	a7,255
   17972:	d5eff06f          	j	16ed0 <_svfprintf_r+0xa50>
   17976:	4e99                	li	t4,6
   17978:	bea9                	j	174d2 <_svfprintf_r+0x1052>
   1797a:	7722                	ld	a4,40(sp)
   1797c:	40d7063b          	subw	a2,a4,a3
   17980:	976a                	add	a4,a4,s10
   17982:	41870ebb          	subw	t4,a4,s8
   17986:	8732                	mv	a4,a2
   17988:	00ced363          	bge	t4,a2,1798e <_svfprintf_r+0x150e>
   1798c:	8776                	mv	a4,t4
   1798e:	00070c9b          	sext.w	s9,a4
   17992:	ba71                	j	1732e <_svfprintf_r+0xeae>
   17994:	67a2                	ld	a5,8(sp)
   17996:	8d26                	mv	s10,s1
   17998:	00f71023          	sh	a5,0(a4)
   1799c:	880ff06f          	j	16a1c <_svfprintf_r+0x59c>
   179a0:	67c2                	ld	a5,16(sp)
   179a2:	86a2                	mv	a3,s0
   179a4:	e83a                	sd	a4,16(sp)
   179a6:	0007a983          	lw	s3,0(a5)
   179aa:	87ce                	mv	a5,s3
   179ac:	ebffe06f          	j	1686a <_svfprintf_r+0x3ea>
   179b0:	1982                	slli	s3,s3,0x20
   179b2:	0209d993          	srli	s3,s3,0x20
   179b6:	e83a                	sd	a4,16(sp)
   179b8:	86a2                	mv	a3,s0
   179ba:	4785                	li	a5,1
   179bc:	cbbfe06f          	j	16676 <_svfprintf_r+0x1f6>
   179c0:	1982                	slli	s3,s3,0x20
   179c2:	0209d993          	srli	s3,s3,0x20
   179c6:	e83a                	sd	a4,16(sp)
   179c8:	e5bfe06f          	j	16822 <_svfprintf_r+0x3a2>
   179cc:	1982                	slli	s3,s3,0x20
   179ce:	0209d993          	srli	s3,s3,0x20
   179d2:	c7ffe06f          	j	16650 <_svfprintf_r+0x1d0>
   179d6:	02d00793          	li	a5,45
   179da:	0cf10fa3          	sb	a5,223(sp)
   179de:	b5fd                	j	178cc <_svfprintf_r+0x144c>
   179e0:	0a10                	addi	a2,sp,272
   179e2:	85da                	mv	a1,s6
   179e4:	8552                	mv	a0,s4
   179e6:	22a020ef          	jal	ra,19c10 <__ssprint_r>
   179ea:	c119                	beqz	a0,179f0 <_svfprintf_r+0x1570>
   179ec:	bf5fe06f          	j	165e0 <_svfprintf_r+0x160>
   179f0:	55ae                	lw	a1,232(sp)
   179f2:	7792                	ld	a5,288(sp)
   179f4:	11812683          	lw	a3,280(sp)
   179f8:	8356                	mv	t1,s5
   179fa:	ce05d2e3          	bgez	a1,176de <_svfprintf_r+0x125e>
   179fe:	b519                	j	17804 <_svfprintf_r+0x1384>
   17a00:	4e99                	li	t4,6
   17a02:	b00ff06f          	j	16d02 <_svfprintf_r+0x882>
   17a06:	86a2                	mv	a3,s0
   17a08:	c94ff06f          	j	16e9c <_svfprintf_r+0xa1c>
   17a0c:	7722                	ld	a4,40(sp)
   17a0e:	00ed06b3          	add	a3,s10,a4
   17a12:	8b86f6e3          	bgeu	a3,s8,172be <_svfprintf_r+0xe3e>
   17a16:	8c36                	mv	s8,a3
   17a18:	b05d                	j	172be <_svfprintf_r+0xe3e>
   17a1a:	7706                	ld	a4,96(sp)
   17a1c:	57f5                	li	a5,-3
   17a1e:	00f74463          	blt	a4,a5,17a26 <_svfprintf_r+0x15a6>
   17a22:	00eed863          	bge	t4,a4,17a32 <_svfprintf_r+0x15b2>
   17a26:	3cf9                	addiw	s9,s9,-2
   17a28:	fdfcf793          	andi	a5,s9,-33
   17a2c:	f53e                	sd	a5,168(sp)
   17a2e:	b64ff06f          	j	16d92 <_svfprintf_r+0x912>
   17a32:	77a2                	ld	a5,40(sp)
   17a34:	7706                	ld	a4,96(sp)
   17a36:	18f74b63          	blt	a4,a5,17bcc <_svfprintf_r+0x174c>
   17a3a:	77ca                	ld	a5,176(sp)
   17a3c:	8c3a                	mv	s8,a4
   17a3e:	8b85                	andi	a5,a5,1
   17a40:	c781                	beqz	a5,17a48 <_svfprintf_r+0x15c8>
   17a42:	77e6                	ld	a5,120(sp)
   17a44:	00e78c3b          	addw	s8,a5,a4
   17a48:	77ca                	ld	a5,176(sp)
   17a4a:	4007f793          	andi	a5,a5,1024
   17a4e:	c781                	beqz	a5,17a56 <_svfprintf_r+0x15d6>
   17a50:	7786                	ld	a5,96(sp)
   17a52:	4cf04763          	bgtz	a5,17f20 <_svfprintf_r+0x1aa0>
   17a56:	fffc4993          	not	s3,s8
   17a5a:	43f9d993          	srai	s3,s3,0x3f
   17a5e:	013c79b3          	and	s3,s8,s3
   17a62:	2981                	sext.w	s3,s3
   17a64:	06700c93          	li	s9,103
   17a68:	ec82                	sd	zero,88(sp)
   17a6a:	f482                	sd	zero,104(sp)
   17a6c:	c0cff06f          	j	16e78 <_svfprintf_r+0x9f8>
   17a70:	11bc                	addi	a5,sp,232
   17a72:	8776                	mv	a4,t4
   17a74:	468d                	li	a3,3
   17a76:	85fe                	mv	a1,t6
   17a78:	0f810893          	addi	a7,sp,248
   17a7c:	0ec10813          	addi	a6,sp,236
   17a80:	8662                	mv	a2,s8
   17a82:	8552                	mv	a0,s4
   17a84:	fc1a                	sd	t1,56(sp)
   17a86:	f476                	sd	t4,40(sp)
   17a88:	ec7e                	sd	t6,24(sp)
   17a8a:	9dafc0ef          	jal	ra,13c64 <_ldtoa_r>
   17a8e:	00054683          	lbu	a3,0(a0)
   17a92:	03000793          	li	a5,48
   17a96:	8d2a                	mv	s10,a0
   17a98:	6fe2                	ld	t6,24(sp)
   17a9a:	7ea2                	ld	t4,40(sp)
   17a9c:	7362                	ld	t1,56(sp)
   17a9e:	0af69b63          	bne	a3,a5,17b54 <_svfprintf_r+0x16d4>
   17aa2:	857e                	mv	a0,t6
   17aa4:	4601                	li	a2,0
   17aa6:	4681                	li	a3,0
   17aa8:	85e2                	mv	a1,s8
   17aaa:	fc1a                	sd	t1,56(sp)
   17aac:	f476                	sd	t4,40(sp)
   17aae:	ec7e                	sd	t6,24(sp)
   17ab0:	1ba030ef          	jal	ra,1ac6a <__eqtf2>
   17ab4:	6fe2                	ld	t6,24(sp)
   17ab6:	7ea2                	ld	t4,40(sp)
   17ab8:	7362                	ld	t1,56(sp)
   17aba:	cd49                	beqz	a0,17b54 <_svfprintf_r+0x16d4>
   17abc:	4685                	li	a3,1
   17abe:	41d687bb          	subw	a5,a3,t4
   17ac2:	d5be                	sw	a5,232(sp)
   17ac4:	01d789b3          	add	s3,a5,t4
   17ac8:	99ea                	add	s3,s3,s10
   17aca:	4601                	li	a2,0
   17acc:	4681                	li	a3,0
   17ace:	857e                	mv	a0,t6
   17ad0:	85e2                	mv	a1,s8
   17ad2:	f41a                	sd	t1,40(sp)
   17ad4:	ec76                	sd	t4,24(sp)
   17ad6:	194030ef          	jal	ra,1ac6a <__eqtf2>
   17ada:	87ce                	mv	a5,s3
   17adc:	6ee2                	ld	t4,24(sp)
   17ade:	7322                	ld	t1,40(sp)
   17ae0:	a8050a63          	beqz	a0,16d74 <_svfprintf_r+0x8f4>
   17ae4:	77ee                	ld	a5,248(sp)
   17ae6:	03000613          	li	a2,48
   17aea:	a937f563          	bgeu	a5,s3,16d74 <_svfprintf_r+0x8f4>
   17aee:	00178693          	addi	a3,a5,1
   17af2:	fdb6                	sd	a3,248(sp)
   17af4:	00c78023          	sb	a2,0(a5)
   17af8:	77ee                	ld	a5,248(sp)
   17afa:	ff37eae3          	bltu	a5,s3,17aee <_svfprintf_r+0x166e>
   17afe:	a76ff06f          	j	16d74 <_svfprintf_r+0x8f4>
   17b02:	0df14783          	lbu	a5,223(sp)
   17b06:	4e81                	li	t4,0
   17b08:	c399                	beqz	a5,17b0e <_svfprintf_r+0x168e>
   17b0a:	bb1fe06f          	j	166ba <_svfprintf_r+0x23a>
   17b0e:	e2dfe06f          	j	1693a <_svfprintf_r+0x4ba>
   17b12:	0a10                	addi	a2,sp,272
   17b14:	85da                	mv	a1,s6
   17b16:	8552                	mv	a0,s4
   17b18:	0f8020ef          	jal	ra,19c10 <__ssprint_r>
   17b1c:	c119                	beqz	a0,17b22 <_svfprintf_r+0x16a2>
   17b1e:	ac3fe06f          	j	165e0 <_svfprintf_r+0x160>
   17b22:	77c6                	ld	a5,112(sp)
   17b24:	8356                	mv	t1,s5
   17b26:	0007c603          	lbu	a2,0(a5)
   17b2a:	7792                	ld	a5,288(sp)
   17b2c:	9c32                	add	s8,s8,a2
   17b2e:	bc51                	j	175c2 <_svfprintf_r+0x1142>
   17b30:	02d00793          	li	a5,45
   17b34:	0cf10fa3          	sb	a5,223(sp)
   17b38:	b181                	j	17778 <_svfprintf_r+0x12f8>
   17b3a:	0a10                	addi	a2,sp,272
   17b3c:	85da                	mv	a1,s6
   17b3e:	8552                	mv	a0,s4
   17b40:	0d0020ef          	jal	ra,19c10 <__ssprint_r>
   17b44:	c119                	beqz	a0,17b4a <_svfprintf_r+0x16ca>
   17b46:	a9bfe06f          	j	165e0 <_svfprintf_r+0x160>
   17b4a:	56ae                	lw	a3,232(sp)
   17b4c:	7792                	ld	a5,288(sp)
   17b4e:	8356                	mv	t1,s5
   17b50:	fa2ff06f          	j	172f2 <_svfprintf_r+0xe72>
   17b54:	57ae                	lw	a5,232(sp)
   17b56:	01d789b3          	add	s3,a5,t4
   17b5a:	b7bd                	j	17ac8 <_svfprintf_r+0x1648>
   17b5c:	0df14783          	lbu	a5,223(sp)
   17b60:	e836                	sd	a3,16(sp)
   17b62:	ec82                	sd	zero,88(sp)
   17b64:	f482                	sd	zero,104(sp)
   17b66:	f082                	sd	zero,96(sp)
   17b68:	89f6                	mv	s3,t4
   17b6a:	8c76                	mv	s8,t4
   17b6c:	4e81                	li	t4,0
   17b6e:	c399                	beqz	a5,17b74 <_svfprintf_r+0x16f4>
   17b70:	b4bfe06f          	j	166ba <_svfprintf_r+0x23a>
   17b74:	dc7fe06f          	j	1693a <_svfprintf_r+0x4ba>
   17b78:	0a10                	addi	a2,sp,272
   17b7a:	85da                	mv	a1,s6
   17b7c:	8552                	mv	a0,s4
   17b7e:	092020ef          	jal	ra,19c10 <__ssprint_r>
   17b82:	c119                	beqz	a0,17b88 <_svfprintf_r+0x1708>
   17b84:	a5dfe06f          	j	165e0 <_svfprintf_r+0x160>
   17b88:	562e                	lw	a2,232(sp)
   17b8a:	7722                	ld	a4,40(sp)
   17b8c:	7792                	ld	a5,288(sp)
   17b8e:	8356                	mv	t1,s5
   17b90:	40c7063b          	subw	a2,a4,a2
   17b94:	f9aff06f          	j	1732e <_svfprintf_r+0xeae>
   17b98:	77ca                	ld	a5,176(sp)
   17b9a:	7706                	ld	a4,96(sp)
   17b9c:	8b85                	andi	a5,a5,1
   17b9e:	00fee7b3          	or	a5,t4,a5
   17ba2:	2781                	sext.w	a5,a5
   17ba4:	40e05463          	blez	a4,17fac <_svfprintf_r+0x1b2c>
   17ba8:	3e079263          	bnez	a5,17f8c <_svfprintf_r+0x1b0c>
   17bac:	7c06                	ld	s8,96(sp)
   17bae:	06600c93          	li	s9,102
   17bb2:	77ca                	ld	a5,176(sp)
   17bb4:	4007f793          	andi	a5,a5,1024
   17bb8:	36079663          	bnez	a5,17f24 <_svfprintf_r+0x1aa4>
   17bbc:	fffc4993          	not	s3,s8
   17bc0:	43f9d993          	srai	s3,s3,0x3f
   17bc4:	013c79b3          	and	s3,s8,s3
   17bc8:	2981                	sext.w	s3,s3
   17bca:	bd79                	j	17a68 <_svfprintf_r+0x15e8>
   17bcc:	7722                	ld	a4,40(sp)
   17bce:	77e6                	ld	a5,120(sp)
   17bd0:	06700c93          	li	s9,103
   17bd4:	00e78c3b          	addw	s8,a5,a4
   17bd8:	7706                	ld	a4,96(sp)
   17bda:	fce04ce3          	bgtz	a4,17bb2 <_svfprintf_r+0x1732>
   17bde:	40ec07bb          	subw	a5,s8,a4
   17be2:	2785                	addiw	a5,a5,1
   17be4:	00078c1b          	sext.w	s8,a5
   17be8:	fffc4993          	not	s3,s8
   17bec:	43f9d993          	srai	s3,s3,0x3f
   17bf0:	0137f7b3          	and	a5,a5,s3
   17bf4:	0007899b          	sext.w	s3,a5
   17bf8:	bd85                	j	17a68 <_svfprintf_r+0x15e8>
   17bfa:	03000793          	li	a5,48
   17bfe:	0ef10023          	sb	a5,224(sp)
   17c02:	05800713          	li	a4,88
   17c06:	00246793          	ori	a5,s0,2
   17c0a:	2781                	sext.w	a5,a5
   17c0c:	0ee100a3          	sb	a4,225(sp)
   17c10:	06300693          	li	a3,99
   17c14:	f93e                	sd	a5,176(sp)
   17c16:	f002                	sd	zero,32(sp)
   17c18:	12810d13          	addi	s10,sp,296
   17c1c:	1fd6c263          	blt	a3,t4,17e00 <_svfprintf_r+0x1980>
   17c20:	6c32                	ld	s8,264(sp)
   17c22:	fdfcf793          	andi	a5,s9,-33
   17c26:	10246413          	ori	s0,s0,258
   17c2a:	f53e                	sd	a5,168(sp)
   17c2c:	e582                	sd	zero,200(sp)
   17c2e:	2401                	sext.w	s0,s0
   17c30:	6f92                	ld	t6,256(sp)
   17c32:	160c4863          	bltz	s8,17da2 <_svfprintf_r+0x1922>
   17c36:	06100793          	li	a5,97
   17c3a:	28fc8d63          	beq	s9,a5,17ed4 <_svfprintf_r+0x1a54>
   17c3e:	04100793          	li	a5,65
   17c42:	8cfc9d63          	bne	s9,a5,16d1c <_svfprintf_r+0x89c>
   17c46:	857e                	mv	a0,t6
   17c48:	85e2                	mv	a1,s8
   17c4a:	e09a                	sd	t1,64(sp)
   17c4c:	fc76                	sd	t4,56(sp)
   17c4e:	1e6040ef          	jal	ra,1be34 <__trunctfdf2>
   17c52:	11a8                	addi	a0,sp,232
   17c54:	b7efe0ef          	jal	ra,15fd2 <frexp>
   17c58:	118040ef          	jal	ra,1bd70 <__extenddftf2>
   17c5c:	00004797          	auipc	a5,0x4
   17c60:	5f478793          	addi	a5,a5,1524 # 1c250 <zeroes.4541+0x30>
   17c64:	6794                	ld	a3,8(a5)
   17c66:	4601                	li	a2,0
   17c68:	1fa030ef          	jal	ra,1ae62 <__multf3>
   17c6c:	4601                	li	a2,0
   17c6e:	4681                	li	a3,0
   17c70:	f42a                	sd	a0,40(sp)
   17c72:	ec2e                	sd	a1,24(sp)
   17c74:	7f7020ef          	jal	ra,1ac6a <__eqtf2>
   17c78:	62e2                	ld	t0,24(sp)
   17c7a:	7822                	ld	a6,40(sp)
   17c7c:	7ee2                	ld	t4,56(sp)
   17c7e:	6306                	ld	t1,64(sp)
   17c80:	e119                	bnez	a0,17c86 <_svfprintf_r+0x1806>
   17c82:	4785                	li	a5,1
   17c84:	d5be                	sw	a5,232(sp)
   17c86:	00004797          	auipc	a5,0x4
   17c8a:	61278793          	addi	a5,a5,1554 # 1c298 <zeroes.4541+0x78>
   17c8e:	f4be                	sd	a5,104(sp)
   17c90:	000e879b          	sext.w	a5,t4
   17c94:	02079c13          	slli	s8,a5,0x20
   17c98:	00fd07bb          	addw	a5,s10,a5
   17c9c:	df3e                	sw	a5,188(sp)
   17c9e:	00004797          	auipc	a5,0x4
   17ca2:	59278793          	addi	a5,a5,1426 # 1c230 <zeroes.4541+0x10>
   17ca6:	679c                	ld	a5,8(a5)
   17ca8:	020c5c13          	srli	s8,s8,0x20
   17cac:	0c05                	addi	s8,s8,1
   17cae:	9c6a                	add	s8,s8,s10
   17cb0:	ec6a                	sd	s10,24(sp)
   17cb2:	e1be                	sd	a5,192(sp)
   17cb4:	a00d                	j	17cd6 <_svfprintf_r+0x1856>
   17cb6:	4601                	li	a2,0
   17cb8:	4681                	li	a3,0
   17cba:	f0ae                	sd	a1,96(sp)
   17cbc:	ecaa                	sd	a0,88(sp)
   17cbe:	7ad020ef          	jal	ra,1ac6a <__eqtf2>
   17cc2:	6e86                	ld	t4,64(sp)
   17cc4:	6326                	ld	t1,72(sp)
   17cc6:	6fe6                	ld	t6,88(sp)
   17cc8:	7886                	ld	a7,96(sp)
   17cca:	77a2                	ld	a5,40(sp)
   17ccc:	72e2                	ld	t0,56(sp)
   17cce:	6846                	ld	a6,80(sp)
   17cd0:	1c050363          	beqz	a0,17e96 <_svfprintf_r+0x1a16>
   17cd4:	ec3e                	sd	a5,24(sp)
   17cd6:	668e                	ld	a3,192(sp)
   17cd8:	4601                	li	a2,0
   17cda:	8542                	mv	a0,a6
   17cdc:	8596                	mv	a1,t0
   17cde:	e49a                	sd	t1,72(sp)
   17ce0:	e0f6                	sd	t4,64(sp)
   17ce2:	180030ef          	jal	ra,1ae62 <__multf3>
   17ce6:	f42e                	sd	a1,40(sp)
   17ce8:	fc2a                	sd	a0,56(sp)
   17cea:	799030ef          	jal	ra,1bc82 <__fixtfsi>
   17cee:	0005099b          	sext.w	s3,a0
   17cf2:	854e                	mv	a0,s3
   17cf4:	01e040ef          	jal	ra,1bd12 <__floatsitf>
   17cf8:	77a2                	ld	a5,40(sp)
   17cfa:	7862                	ld	a6,56(sp)
   17cfc:	86ae                	mv	a3,a1
   17cfe:	862a                	mv	a2,a0
   17d00:	85be                	mv	a1,a5
   17d02:	8542                	mv	a0,a6
   17d04:	764030ef          	jal	ra,1b468 <__subtf3>
   17d08:	77a6                	ld	a5,104(sp)
   17d0a:	577a                	lw	a4,188(sp)
   17d0c:	e8aa                	sd	a0,80(sp)
   17d0e:	97ce                	add	a5,a5,s3
   17d10:	0007c683          	lbu	a3,0(a5)
   17d14:	67e2                	ld	a5,24(sp)
   17d16:	fc2e                	sd	a1,56(sp)
   17d18:	8faa                	mv	t6,a0
   17d1a:	00d78023          	sb	a3,0(a5)
   17d1e:	0785                	addi	a5,a5,1
   17d20:	9f1d                	subw	a4,a4,a5
   17d22:	f13a                	sd	a4,160(sp)
   17d24:	f43e                	sd	a5,40(sp)
   17d26:	88ae                	mv	a7,a1
   17d28:	6e86                	ld	t4,64(sp)
   17d2a:	6326                	ld	t1,72(sp)
   17d2c:	f8fc15e3          	bne	s8,a5,17cb6 <_svfprintf_r+0x1836>
   17d30:	57fd                	li	a5,-1
   17d32:	f13e                	sd	a5,160(sp)
   17d34:	00004797          	auipc	a5,0x4
   17d38:	50c78793          	addi	a5,a5,1292 # 1c240 <zeroes.4541+0x20>
   17d3c:	679c                	ld	a5,8(a5)
   17d3e:	4601                	li	a2,0
   17d40:	857e                	mv	a0,t6
   17d42:	86be                	mv	a3,a5
   17d44:	85c6                	mv	a1,a7
   17d46:	e09a                	sd	t1,64(sp)
   17d48:	fc76                	sd	t4,56(sp)
   17d4a:	f43e                	sd	a5,40(sp)
   17d4c:	e8fe                	sd	t6,80(sp)
   17d4e:	e4c6                	sd	a7,72(sp)
   17d50:	7b7020ef          	jal	ra,1ad06 <__getf2>
   17d54:	7ee2                	ld	t4,56(sp)
   17d56:	6306                	ld	t1,64(sp)
   17d58:	04a04d63          	bgtz	a0,17db2 <_svfprintf_r+0x1932>
   17d5c:	6fc6                	ld	t6,80(sp)
   17d5e:	68a6                	ld	a7,72(sp)
   17d60:	76a2                	ld	a3,40(sp)
   17d62:	4601                	li	a2,0
   17d64:	857e                	mv	a0,t6
   17d66:	85c6                	mv	a1,a7
   17d68:	703020ef          	jal	ra,1ac6a <__eqtf2>
   17d6c:	7ee2                	ld	t4,56(sp)
   17d6e:	6306                	ld	t1,64(sp)
   17d70:	e509                	bnez	a0,17d7a <_svfprintf_r+0x18fa>
   17d72:	0019f993          	andi	s3,s3,1
   17d76:	02099e63          	bnez	s3,17db2 <_svfprintf_r+0x1932>
   17d7a:	770a                	ld	a4,160(sp)
   17d7c:	03000693          	li	a3,48
   17d80:	00170793          	addi	a5,a4,1
   17d84:	97e2                	add	a5,a5,s8
   17d86:	00074763          	bltz	a4,17d94 <_svfprintf_r+0x1914>
   17d8a:	0c05                	addi	s8,s8,1
   17d8c:	fedc0fa3          	sb	a3,-1(s8)
   17d90:	ff879de3          	bne	a5,s8,17d8a <_svfprintf_r+0x190a>
   17d94:	41ac07bb          	subw	a5,s8,s10
   17d98:	f43e                	sd	a5,40(sp)
   17d9a:	fe1fe06f          	j	16d7a <_svfprintf_r+0x8fa>
   17d9e:	f002                	sd	zero,32(sp)
   17da0:	843e                	mv	s0,a5
   17da2:	57fd                	li	a5,-1
   17da4:	17fe                	slli	a5,a5,0x3f
   17da6:	00fc4c33          	xor	s8,s8,a5
   17daa:	02d00793          	li	a5,45
   17dae:	e5be                	sd	a5,200(sp)
   17db0:	b559                	j	17c36 <_svfprintf_r+0x17b6>
   17db2:	67e2                	ld	a5,24(sp)
   17db4:	fdbe                	sd	a5,248(sp)
   17db6:	77a6                	ld	a5,104(sp)
   17db8:	fffc4683          	lbu	a3,-1(s8)
   17dbc:	00f7c603          	lbu	a2,15(a5)
   17dc0:	87e2                	mv	a5,s8
   17dc2:	00d61e63          	bne	a2,a3,17dde <_svfprintf_r+0x195e>
   17dc6:	03000593          	li	a1,48
   17dca:	feb78fa3          	sb	a1,-1(a5)
   17dce:	77ee                	ld	a5,248(sp)
   17dd0:	fff78693          	addi	a3,a5,-1
   17dd4:	fdb6                	sd	a3,248(sp)
   17dd6:	fff7c683          	lbu	a3,-1(a5)
   17dda:	fed608e3          	beq	a2,a3,17dca <_svfprintf_r+0x194a>
   17dde:	0016861b          	addiw	a2,a3,1
   17de2:	03900593          	li	a1,57
   17de6:	0ff67613          	andi	a2,a2,255
   17dea:	00b68563          	beq	a3,a1,17df4 <_svfprintf_r+0x1974>
   17dee:	fec78fa3          	sb	a2,-1(a5)
   17df2:	b74d                	j	17d94 <_svfprintf_r+0x1914>
   17df4:	7726                	ld	a4,104(sp)
   17df6:	00a74603          	lbu	a2,10(a4)
   17dfa:	fec78fa3          	sb	a2,-1(a5)
   17dfe:	bf59                	j	17d94 <_svfprintf_r+0x1914>
   17e00:	001e859b          	addiw	a1,t4,1
   17e04:	8552                	mv	a0,s4
   17e06:	f01a                	sd	t1,32(sp)
   17e08:	ec76                	sd	t4,24(sp)
   17e0a:	f13fc0ef          	jal	ra,14d1c <_malloc_r>
   17e0e:	8d2a                	mv	s10,a0
   17e10:	6ee2                	ld	t4,24(sp)
   17e12:	7302                	ld	t1,32(sp)
   17e14:	20050163          	beqz	a0,18016 <_svfprintf_r+0x1b96>
   17e18:	f02a                	sd	a0,32(sp)
   17e1a:	b519                	j	17c20 <_svfprintf_r+0x17a0>
   17e1c:	2685                	addiw	a3,a3,1
   17e1e:	97e2                	add	a5,a5,s8
   17e20:	01233023          	sd	s2,0(t1)
   17e24:	01833423          	sd	s8,8(t1)
   17e28:	f23e                	sd	a5,288(sp)
   17e2a:	10d12c23          	sw	a3,280(sp)
   17e2e:	461d                	li	a2,7
   17e30:	8ad656e3          	bge	a2,a3,176dc <_svfprintf_r+0x125c>
   17e34:	0a10                	addi	a2,sp,272
   17e36:	85da                	mv	a1,s6
   17e38:	8552                	mv	a0,s4
   17e3a:	5d7010ef          	jal	ra,19c10 <__ssprint_r>
   17e3e:	c119                	beqz	a0,17e44 <_svfprintf_r+0x19c4>
   17e40:	fa0fe06f          	j	165e0 <_svfprintf_r+0x160>
   17e44:	7792                	ld	a5,288(sp)
   17e46:	11812683          	lw	a3,280(sp)
   17e4a:	8356                	mv	t1,s5
   17e4c:	b849                	j	176de <_svfprintf_r+0x125e>
   17e4e:	001e899b          	addiw	s3,t4,1
   17e52:	874e                	mv	a4,s3
   17e54:	85fe                	mv	a1,t6
   17e56:	0f810893          	addi	a7,sp,248
   17e5a:	0ec10813          	addi	a6,sp,236
   17e5e:	11bc                	addi	a5,sp,232
   17e60:	4689                	li	a3,2
   17e62:	8662                	mv	a2,s8
   17e64:	8552                	mv	a0,s4
   17e66:	f476                	sd	t4,40(sp)
   17e68:	ec7e                	sd	t6,24(sp)
   17e6a:	dfbfb0ef          	jal	ra,13c64 <_ldtoa_r>
   17e6e:	8d2a                	mv	s10,a0
   17e70:	6fe2                	ld	t6,24(sp)
   17e72:	7ea2                	ld	t4,40(sp)
   17e74:	7362                	ld	t1,56(sp)
   17e76:	99ea                	add	s3,s3,s10
   17e78:	b989                	j	17aca <_svfprintf_r+0x164a>
   17e7a:	03000793          	li	a5,48
   17e7e:	0ef10023          	sb	a5,224(sp)
   17e82:	07800713          	li	a4,120
   17e86:	b341                	j	17c06 <_svfprintf_r+0x1786>
   17e88:	000e8463          	beqz	t4,17e90 <_svfprintf_r+0x1a10>
   17e8c:	e77fe06f          	j	16d02 <_svfprintf_r+0x882>
   17e90:	4e85                	li	t4,1
   17e92:	e71fe06f          	j	16d02 <_svfprintf_r+0x882>
   17e96:	8c3e                	mv	s8,a5
   17e98:	bd71                	j	17d34 <_svfprintf_r+0x18b4>
   17e9a:	c31c                	sw	a5,0(a4)
   17e9c:	8d26                	mv	s10,s1
   17e9e:	b7ffe06f          	j	16a1c <_svfprintf_r+0x59c>
   17ea2:	57fd                	li	a5,-1
   17ea4:	e43e                	sd	a5,8(sp)
   17ea6:	f54fe06f          	j	165fa <_svfprintf_r+0x17a>
   17eaa:	0f210693          	addi	a3,sp,242
   17eae:	e619                	bnez	a2,17ebc <_svfprintf_r+0x1a3c>
   17eb0:	03000693          	li	a3,48
   17eb4:	0ed10923          	sb	a3,242(sp)
   17eb8:	0f310693          	addi	a3,sp,243
   17ebc:	0c18                	addi	a4,sp,528
   17ebe:	0307879b          	addiw	a5,a5,48
   17ec2:	40e68633          	sub	a2,a3,a4
   17ec6:	00f68023          	sb	a5,0(a3)
   17eca:	1216079b          	addiw	a5,a2,289
   17ece:	e93e                	sd	a5,144(sp)
   17ed0:	f6ffe06f          	j	16e3e <_svfprintf_r+0x9be>
   17ed4:	857e                	mv	a0,t6
   17ed6:	85e2                	mv	a1,s8
   17ed8:	e09a                	sd	t1,64(sp)
   17eda:	fc76                	sd	t4,56(sp)
   17edc:	759030ef          	jal	ra,1be34 <__trunctfdf2>
   17ee0:	11a8                	addi	a0,sp,232
   17ee2:	8f0fe0ef          	jal	ra,15fd2 <frexp>
   17ee6:	68b030ef          	jal	ra,1bd70 <__extenddftf2>
   17eea:	00004797          	auipc	a5,0x4
   17eee:	36678793          	addi	a5,a5,870 # 1c250 <zeroes.4541+0x30>
   17ef2:	6794                	ld	a3,8(a5)
   17ef4:	4601                	li	a2,0
   17ef6:	76d020ef          	jal	ra,1ae62 <__multf3>
   17efa:	4601                	li	a2,0
   17efc:	4681                	li	a3,0
   17efe:	f42a                	sd	a0,40(sp)
   17f00:	ec2e                	sd	a1,24(sp)
   17f02:	569020ef          	jal	ra,1ac6a <__eqtf2>
   17f06:	62e2                	ld	t0,24(sp)
   17f08:	7822                	ld	a6,40(sp)
   17f0a:	7ee2                	ld	t4,56(sp)
   17f0c:	6306                	ld	t1,64(sp)
   17f0e:	e119                	bnez	a0,17f14 <_svfprintf_r+0x1a94>
   17f10:	4785                	li	a5,1
   17f12:	d5be                	sw	a5,232(sp)
   17f14:	00004797          	auipc	a5,0x4
   17f18:	36c78793          	addi	a5,a5,876 # 1c280 <zeroes.4541+0x60>
   17f1c:	f4be                	sd	a5,104(sp)
   17f1e:	bb8d                	j	17c90 <_svfprintf_r+0x1810>
   17f20:	06700c93          	li	s9,103
   17f24:	77c6                	ld	a5,112(sp)
   17f26:	ec82                	sd	zero,88(sp)
   17f28:	f482                	sd	zero,104(sp)
   17f2a:	0007c783          	lbu	a5,0(a5)
   17f2e:	0ff00593          	li	a1,255
   17f32:	02b78963          	beq	a5,a1,17f64 <_svfprintf_r+0x1ae4>
   17f36:	7706                	ld	a4,96(sp)
   17f38:	0007869b          	sext.w	a3,a5
   17f3c:	02e6d463          	bge	a3,a4,17f64 <_svfprintf_r+0x1ae4>
   17f40:	7546                	ld	a0,112(sp)
   17f42:	9f15                	subw	a4,a4,a3
   17f44:	f0ba                	sd	a4,96(sp)
   17f46:	00154603          	lbu	a2,1(a0)
   17f4a:	ca09                	beqz	a2,17f5c <_svfprintf_r+0x1adc>
   17f4c:	77a6                	ld	a5,104(sp)
   17f4e:	2785                	addiw	a5,a5,1
   17f50:	f4be                	sd	a5,104(sp)
   17f52:	00150793          	addi	a5,a0,1
   17f56:	f8be                	sd	a5,112(sp)
   17f58:	87b2                	mv	a5,a2
   17f5a:	bfe1                	j	17f32 <_svfprintf_r+0x1ab2>
   17f5c:	6766                	ld	a4,88(sp)
   17f5e:	2705                	addiw	a4,a4,1
   17f60:	ecba                	sd	a4,88(sp)
   17f62:	bfc1                	j	17f32 <_svfprintf_r+0x1ab2>
   17f64:	6766                	ld	a4,88(sp)
   17f66:	77a6                	ld	a5,104(sp)
   17f68:	9fb9                	addw	a5,a5,a4
   17f6a:	672a                	ld	a4,136(sp)
   17f6c:	02e787bb          	mulw	a5,a5,a4
   17f70:	018787bb          	addw	a5,a5,s8
   17f74:	00078c1b          	sext.w	s8,a5
   17f78:	fffc4993          	not	s3,s8
   17f7c:	43f9d993          	srai	s3,s3,0x3f
   17f80:	0137f7b3          	and	a5,a5,s3
   17f84:	0007899b          	sext.w	s3,a5
   17f88:	ef1fe06f          	j	16e78 <_svfprintf_r+0x9f8>
   17f8c:	77e6                	ld	a5,120(sp)
   17f8e:	06600c93          	li	s9,102
   17f92:	00e78c3b          	addw	s8,a5,a4
   17f96:	01dc0c3b          	addw	s8,s8,t4
   17f9a:	b921                	j	17bb2 <_svfprintf_r+0x1732>
   17f9c:	774a                	ld	a4,176(sp)
   17f9e:	00177693          	andi	a3,a4,1
   17fa2:	e299                	bnez	a3,17fa8 <_svfprintf_r+0x1b28>
   17fa4:	eb5fe06f          	j	16e58 <_svfprintf_r+0x9d8>
   17fa8:	eabfe06f          	j	16e52 <_svfprintf_r+0x9d2>
   17fac:	e791                	bnez	a5,17fb8 <_svfprintf_r+0x1b38>
   17fae:	4985                	li	s3,1
   17fb0:	06600c93          	li	s9,102
   17fb4:	4c05                	li	s8,1
   17fb6:	bc4d                	j	17a68 <_svfprintf_r+0x15e8>
   17fb8:	77e6                	ld	a5,120(sp)
   17fba:	06600c93          	li	s9,102
   17fbe:	2785                	addiw	a5,a5,1
   17fc0:	01d78ebb          	addw	t4,a5,t4
   17fc4:	000e8c1b          	sext.w	s8,t4
   17fc8:	fffc4993          	not	s3,s8
   17fcc:	43f9d993          	srai	s3,s3,0x3f
   17fd0:	013efeb3          	and	t4,t4,s3
   17fd4:	000e899b          	sext.w	s3,t4
   17fd8:	bc41                	j	17a68 <_svfprintf_r+0x15e8>
   17fda:	871a                	mv	a4,t1
   17fdc:	877ff06f          	j	17852 <_svfprintf_r+0x13d2>
   17fe0:	6742                	ld	a4,16(sp)
   17fe2:	00072e83          	lw	t4,0(a4)
   17fe6:	0721                	addi	a4,a4,8
   17fe8:	000ed363          	bgez	t4,17fee <_svfprintf_r+0x1b6e>
   17fec:	5efd                	li	t4,-1
   17fee:	0014cf03          	lbu	t5,1(s1)
   17ff2:	e83a                	sd	a4,16(sp)
   17ff4:	84be                	mv	s1,a5
   17ff6:	d8efe06f          	j	16584 <_svfprintf_r+0x104>
   17ffa:	4789                	li	a5,2
   17ffc:	e93e                	sd	a5,144(sp)
   17ffe:	e41fe06f          	j	16e3e <_svfprintf_r+0x9be>
   18002:	89f6                	mv	s3,t4
   18004:	99ea                	add	s3,s3,s10
   18006:	b4d1                	j	17aca <_svfprintf_r+0x164a>
   18008:	47b1                	li	a5,12
   1800a:	00fa2023          	sw	a5,0(s4)
   1800e:	57fd                	li	a5,-1
   18010:	e43e                	sd	a5,8(sp)
   18012:	de8fe06f          	j	165fa <_svfprintf_r+0x17a>
   18016:	010b5783          	lhu	a5,16(s6)
   1801a:	0407e713          	ori	a4,a5,64
   1801e:	87ba                	mv	a5,a4
   18020:	00eb1823          	sh	a4,16(s6)
   18024:	dccfe06f          	j	165f0 <_svfprintf_r+0x170>

0000000000018028 <__sprint_r.part.0>:
   18028:	0ac5a783          	lw	a5,172(a1)
   1802c:	715d                	addi	sp,sp,-80
   1802e:	ec56                	sd	s5,24(sp)
   18030:	e486                	sd	ra,72(sp)
   18032:	e0a2                	sd	s0,64(sp)
   18034:	fc26                	sd	s1,56(sp)
   18036:	f84a                	sd	s2,48(sp)
   18038:	f44e                	sd	s3,40(sp)
   1803a:	f052                	sd	s4,32(sp)
   1803c:	e85a                	sd	s6,16(sp)
   1803e:	e45e                	sd	s7,8(sp)
   18040:	03279713          	slli	a4,a5,0x32
   18044:	8ab2                	mv	s5,a2
   18046:	08075063          	bgez	a4,180c6 <__sprint_r.part.0+0x9e>
   1804a:	6a18                	ld	a4,16(a2)
   1804c:	892e                	mv	s2,a1
   1804e:	89aa                	mv	s3,a0
   18050:	00063b03          	ld	s6,0(a2)
   18054:	5a7d                	li	s4,-1
   18056:	c735                	beqz	a4,180c2 <__sprint_r.part.0+0x9a>
   18058:	008b3783          	ld	a5,8(s6)
   1805c:	000b3403          	ld	s0,0(s6)
   18060:	8389                	srli	a5,a5,0x2
   18062:	00078b9b          	sext.w	s7,a5
   18066:	05705763          	blez	s7,180b4 <__sprint_r.part.0+0x8c>
   1806a:	fff7849b          	addiw	s1,a5,-1
   1806e:	1482                	slli	s1,s1,0x20
   18070:	80f9                	srli	s1,s1,0x1e
   18072:	00440793          	addi	a5,s0,4
   18076:	94be                	add	s1,s1,a5
   18078:	a019                	j	1807e <__sprint_r.part.0+0x56>
   1807a:	02848b63          	beq	s1,s0,180b0 <__sprint_r.part.0+0x88>
   1807e:	400c                	lw	a1,0(s0)
   18080:	864a                	mv	a2,s2
   18082:	854e                	mv	a0,s3
   18084:	01a010ef          	jal	ra,1909e <_fputwc_r>
   18088:	2501                	sext.w	a0,a0
   1808a:	0411                	addi	s0,s0,4
   1808c:	ff4517e3          	bne	a0,s4,1807a <__sprint_r.part.0+0x52>
   18090:	557d                	li	a0,-1
   18092:	60a6                	ld	ra,72(sp)
   18094:	6406                	ld	s0,64(sp)
   18096:	000ab823          	sd	zero,16(s5)
   1809a:	000aa423          	sw	zero,8(s5)
   1809e:	74e2                	ld	s1,56(sp)
   180a0:	7942                	ld	s2,48(sp)
   180a2:	79a2                	ld	s3,40(sp)
   180a4:	7a02                	ld	s4,32(sp)
   180a6:	6ae2                	ld	s5,24(sp)
   180a8:	6b42                	ld	s6,16(sp)
   180aa:	6ba2                	ld	s7,8(sp)
   180ac:	6161                	addi	sp,sp,80
   180ae:	8082                	ret
   180b0:	010ab703          	ld	a4,16(s5)
   180b4:	0b8a                	slli	s7,s7,0x2
   180b6:	41770733          	sub	a4,a4,s7
   180ba:	00eab823          	sd	a4,16(s5)
   180be:	0b41                	addi	s6,s6,16
   180c0:	ff41                	bnez	a4,18058 <__sprint_r.part.0+0x30>
   180c2:	4501                	li	a0,0
   180c4:	b7f9                	j	18092 <__sprint_r.part.0+0x6a>
   180c6:	08a010ef          	jal	ra,19150 <__sfvwrite_r>
   180ca:	b7e1                	j	18092 <__sprint_r.part.0+0x6a>

00000000000180cc <__sprint_r>:
   180cc:	6a18                	ld	a4,16(a2)
   180ce:	c311                	beqz	a4,180d2 <__sprint_r+0x6>
   180d0:	bfa1                	j	18028 <__sprint_r.part.0>
   180d2:	00062423          	sw	zero,8(a2)
   180d6:	4501                	li	a0,0
   180d8:	8082                	ret

00000000000180da <_vfiprintf_r>:
   180da:	7145                	addi	sp,sp,-464
   180dc:	fb4a                	sd	s2,432(sp)
   180de:	f74e                	sd	s3,424(sp)
   180e0:	f6ee                	sd	s11,360(sp)
   180e2:	e786                	sd	ra,456(sp)
   180e4:	e3a2                	sd	s0,448(sp)
   180e6:	ff26                	sd	s1,440(sp)
   180e8:	f352                	sd	s4,416(sp)
   180ea:	ef56                	sd	s5,408(sp)
   180ec:	eb5a                	sd	s6,400(sp)
   180ee:	e75e                	sd	s7,392(sp)
   180f0:	e362                	sd	s8,384(sp)
   180f2:	fee6                	sd	s9,376(sp)
   180f4:	faea                	sd	s10,368(sp)
   180f6:	e436                	sd	a3,8(sp)
   180f8:	89aa                	mv	s3,a0
   180fa:	892e                	mv	s2,a1
   180fc:	8db2                	mv	s11,a2
   180fe:	c501                	beqz	a0,18106 <_vfiprintf_r+0x2c>
   18100:	493c                	lw	a5,80(a0)
   18102:	68078d63          	beqz	a5,1879c <_vfiprintf_r+0x6c2>
   18106:	01091703          	lh	a4,16(s2)
   1810a:	03071793          	slli	a5,a4,0x30
   1810e:	93c1                	srli	a5,a5,0x30
   18110:	03279693          	slli	a3,a5,0x32
   18114:	0006cf63          	bltz	a3,18132 <_vfiprintf_r+0x58>
   18118:	0ac92683          	lw	a3,172(s2)
   1811c:	6789                	lui	a5,0x2
   1811e:	8fd9                	or	a5,a5,a4
   18120:	7779                	lui	a4,0xffffe
   18122:	177d                	addi	a4,a4,-1
   18124:	8f75                	and	a4,a4,a3
   18126:	00f91823          	sh	a5,16(s2)
   1812a:	17c2                	slli	a5,a5,0x30
   1812c:	0ae92623          	sw	a4,172(s2)
   18130:	93c1                	srli	a5,a5,0x30
   18132:	0087f713          	andi	a4,a5,8
   18136:	c36d                	beqz	a4,18218 <_vfiprintf_r+0x13e>
   18138:	01893703          	ld	a4,24(s2)
   1813c:	cf71                	beqz	a4,18218 <_vfiprintf_r+0x13e>
   1813e:	8be9                	andi	a5,a5,26
   18140:	4729                	li	a4,10
   18142:	0ee78763          	beq	a5,a4,18230 <_vfiprintf_r+0x156>
   18146:	77e1                	lui	a5,0xffff8
   18148:	1180                	addi	s0,sp,224
   1814a:	8307c793          	xori	a5,a5,-2000
   1814e:	f0a2                	sd	s0,96(sp)
   18150:	f882                	sd	zero,112(sp)
   18152:	d482                	sw	zero,104(sp)
   18154:	8722                	mv	a4,s0
   18156:	e802                	sd	zero,16(sp)
   18158:	f802                	sd	zero,48(sp)
   1815a:	e082                	sd	zero,64(sp)
   1815c:	fc02                	sd	zero,56(sp)
   1815e:	e002                	sd	zero,0(sp)
   18160:	00004a97          	auipc	s5,0x4
   18164:	6d0a8a93          	addi	s5,s5,1744 # 1c830 <zeroes.4526+0x10>
   18168:	e4be                	sd	a5,72(sp)
   1816a:	000dc783          	lbu	a5,0(s11)
   1816e:	c3f5                	beqz	a5,18252 <_vfiprintf_r+0x178>
   18170:	02500693          	li	a3,37
   18174:	18d780e3          	beq	a5,a3,18af4 <_vfiprintf_r+0xa1a>
   18178:	84ee                	mv	s1,s11
   1817a:	a021                	j	18182 <_vfiprintf_r+0xa8>
   1817c:	0cd78663          	beq	a5,a3,18248 <_vfiprintf_r+0x16e>
   18180:	84d2                	mv	s1,s4
   18182:	0014c783          	lbu	a5,1(s1)
   18186:	00148a13          	addi	s4,s1,1
   1818a:	fbed                	bnez	a5,1817c <_vfiprintf_r+0xa2>
   1818c:	41ba0b3b          	subw	s6,s4,s11
   18190:	0c0b0163          	beqz	s6,18252 <_vfiprintf_r+0x178>
   18194:	57a6                	lw	a5,104(sp)
   18196:	76c6                	ld	a3,112(sp)
   18198:	01b73023          	sd	s11,0(a4) # ffffffffffffe000 <__BSS_END__+0xfffffffffffdf060>
   1819c:	0017861b          	addiw	a2,a5,1
   181a0:	96da                	add	a3,a3,s6
   181a2:	01673423          	sd	s6,8(a4)
   181a6:	f8b6                	sd	a3,112(sp)
   181a8:	d4b2                	sw	a2,104(sp)
   181aa:	479d                	li	a5,7
   181ac:	0741                	addi	a4,a4,16
   181ae:	00c7db63          	bge	a5,a2,181c4 <_vfiprintf_r+0xea>
   181b2:	120680e3          	beqz	a3,18ad2 <_vfiprintf_r+0x9f8>
   181b6:	1090                	addi	a2,sp,96
   181b8:	85ca                	mv	a1,s2
   181ba:	854e                	mv	a0,s3
   181bc:	e6dff0ef          	jal	ra,18028 <__sprint_r.part.0>
   181c0:	e145                	bnez	a0,18260 <_vfiprintf_r+0x186>
   181c2:	8722                	mv	a4,s0
   181c4:	6682                	ld	a3,0(sp)
   181c6:	0014c783          	lbu	a5,1(s1)
   181ca:	016686bb          	addw	a3,a3,s6
   181ce:	e036                	sd	a3,0(sp)
   181d0:	c3c9                	beqz	a5,18252 <_vfiprintf_r+0x178>
   181d2:	001a0d93          	addi	s11,s4,1
   181d6:	001a4603          	lbu	a2,1(s4)
   181da:	04010ba3          	sb	zero,87(sp)
   181de:	5cfd                	li	s9,-1
   181e0:	4481                	li	s1,0
   181e2:	4d01                	li	s10,0
   181e4:	4a25                	li	s4,9
   181e6:	02a00b13          	li	s6,42
   181ea:	0d85                	addi	s11,s11,1
   181ec:	2601                	sext.w	a2,a2
   181ee:	05a00513          	li	a0,90
   181f2:	fe06079b          	addiw	a5,a2,-32
   181f6:	0007859b          	sext.w	a1,a5
   181fa:	14b56563          	bltu	a0,a1,18344 <_vfiprintf_r+0x26a>
   181fe:	1782                	slli	a5,a5,0x20
   18200:	83f9                	srli	a5,a5,0x1e
   18202:	97d6                	add	a5,a5,s5
   18204:	439c                	lw	a5,0(a5)
   18206:	97d6                	add	a5,a5,s5
   18208:	8782                	jr	a5
   1820a:	010d6893          	ori	a7,s10,16
   1820e:	00088d1b          	sext.w	s10,a7
   18212:	000dc603          	lbu	a2,0(s11)
   18216:	bfd1                	j	181ea <_vfiprintf_r+0x110>
   18218:	85ca                	mv	a1,s2
   1821a:	854e                	mv	a0,s3
   1821c:	dcbf90ef          	jal	ra,11fe6 <__swsetup_r>
   18220:	300512e3          	bnez	a0,18d24 <_vfiprintf_r+0xc4a>
   18224:	01095783          	lhu	a5,16(s2)
   18228:	4729                	li	a4,10
   1822a:	8be9                	andi	a5,a5,26
   1822c:	f0e79de3          	bne	a5,a4,18146 <_vfiprintf_r+0x6c>
   18230:	01291783          	lh	a5,18(s2)
   18234:	f007c9e3          	bltz	a5,18146 <_vfiprintf_r+0x6c>
   18238:	66a2                	ld	a3,8(sp)
   1823a:	866e                	mv	a2,s11
   1823c:	85ca                	mv	a1,s2
   1823e:	854e                	mv	a0,s3
   18240:	31f000ef          	jal	ra,18d5e <__sbprintf>
   18244:	e02a                	sd	a0,0(sp)
   18246:	a01d                	j	1826c <_vfiprintf_r+0x192>
   18248:	41ba0b3b          	subw	s6,s4,s11
   1824c:	f80b03e3          	beqz	s6,181d2 <_vfiprintf_r+0xf8>
   18250:	b791                	j	18194 <_vfiprintf_r+0xba>
   18252:	77c6                	ld	a5,112(sp)
   18254:	c791                	beqz	a5,18260 <_vfiprintf_r+0x186>
   18256:	1090                	addi	a2,sp,96
   18258:	85ca                	mv	a1,s2
   1825a:	854e                	mv	a0,s3
   1825c:	dcdff0ef          	jal	ra,18028 <__sprint_r.part.0>
   18260:	01095783          	lhu	a5,16(s2)
   18264:	0407f793          	andi	a5,a5,64
   18268:	2a079ee3          	bnez	a5,18d24 <_vfiprintf_r+0xc4a>
   1826c:	60be                	ld	ra,456(sp)
   1826e:	641e                	ld	s0,448(sp)
   18270:	6502                	ld	a0,0(sp)
   18272:	74fa                	ld	s1,440(sp)
   18274:	795a                	ld	s2,432(sp)
   18276:	79ba                	ld	s3,424(sp)
   18278:	7a1a                	ld	s4,416(sp)
   1827a:	6afa                	ld	s5,408(sp)
   1827c:	6b5a                	ld	s6,400(sp)
   1827e:	6bba                	ld	s7,392(sp)
   18280:	6c1a                	ld	s8,384(sp)
   18282:	7cf6                	ld	s9,376(sp)
   18284:	7d56                	ld	s10,368(sp)
   18286:	7db6                	ld	s11,360(sp)
   18288:	6179                	addi	sp,sp,464
   1828a:	8082                	ret
   1828c:	66a2                	ld	a3,8(sp)
   1828e:	00004797          	auipc	a5,0x4
   18292:	00a78793          	addi	a5,a5,10 # 1c298 <zeroes.4541+0x78>
   18296:	e83e                	sd	a5,16(sp)
   18298:	020d7793          	andi	a5,s10,32
   1829c:	00868593          	addi	a1,a3,8
   182a0:	4c078f63          	beqz	a5,1877e <_vfiprintf_r+0x6a4>
   182a4:	0006ba03          	ld	s4,0(a3)
   182a8:	001d7793          	andi	a5,s10,1
   182ac:	cf89                	beqz	a5,182c6 <_vfiprintf_r+0x1ec>
   182ae:	000a0c63          	beqz	s4,182c6 <_vfiprintf_r+0x1ec>
   182b2:	002d6893          	ori	a7,s10,2
   182b6:	03000793          	li	a5,48
   182ba:	04f10c23          	sb	a5,88(sp)
   182be:	04c10ca3          	sb	a2,89(sp)
   182c2:	00088d1b          	sext.w	s10,a7
   182c6:	bffd7893          	andi	a7,s10,-1025
   182ca:	00088e1b          	sext.w	t3,a7
   182ce:	e42e                	sd	a1,8(sp)
   182d0:	4789                	li	a5,2
   182d2:	04010ba3          	sb	zero,87(sp)
   182d6:	567d                	li	a2,-1
   182d8:	44cc8263          	beq	s9,a2,1871c <_vfiprintf_r+0x642>
   182dc:	f7fe7893          	andi	a7,t3,-129
   182e0:	00088d1b          	sext.w	s10,a7
   182e4:	680a1563          	bnez	s4,1896e <_vfiprintf_r+0x894>
   182e8:	4c0c9063          	bnez	s9,187a8 <_vfiprintf_r+0x6ce>
   182ec:	7e079963          	bnez	a5,18ade <_vfiprintf_r+0xa04>
   182f0:	001e7b13          	andi	s6,t3,1
   182f4:	0dc10c13          	addi	s8,sp,220
   182f8:	000b16e3          	bnez	s6,18b04 <_vfiprintf_r+0xa2a>
   182fc:	87e6                	mv	a5,s9
   182fe:	016cd363          	bge	s9,s6,18304 <_vfiprintf_r+0x22a>
   18302:	87da                	mv	a5,s6
   18304:	05714603          	lbu	a2,87(sp)
   18308:	00078a1b          	sext.w	s4,a5
   1830c:	c631                	beqz	a2,18358 <_vfiprintf_r+0x27e>
   1830e:	00178a1b          	addiw	s4,a5,1
   18312:	a099                	j	18358 <_vfiprintf_r+0x27e>
   18314:	4481                	li	s1,0
   18316:	0d85                	addi	s11,s11,1
   18318:	fffdc583          	lbu	a1,-1(s11)
   1831c:	0024979b          	slliw	a5,s1,0x2
   18320:	9cbd                	addw	s1,s1,a5
   18322:	fd06061b          	addiw	a2,a2,-48
   18326:	0014949b          	slliw	s1,s1,0x1
   1832a:	fd05879b          	addiw	a5,a1,-48
   1832e:	9cb1                	addw	s1,s1,a2
   18330:	0005861b          	sext.w	a2,a1
   18334:	fefa71e3          	bgeu	s4,a5,18316 <_vfiprintf_r+0x23c>
   18338:	fe06079b          	addiw	a5,a2,-32
   1833c:	0007859b          	sext.w	a1,a5
   18340:	eab57fe3          	bgeu	a0,a1,181fe <_vfiprintf_r+0x124>
   18344:	d619                	beqz	a2,18252 <_vfiprintf_r+0x178>
   18346:	06c10c23          	sb	a2,120(sp)
   1834a:	04010ba3          	sb	zero,87(sp)
   1834e:	4a05                	li	s4,1
   18350:	4b05                	li	s6,1
   18352:	07810c13          	addi	s8,sp,120
   18356:	4c81                	li	s9,0
   18358:	002d7e93          	andi	t4,s10,2
   1835c:	2e81                	sext.w	t4,t4
   1835e:	000e8363          	beqz	t4,18364 <_vfiprintf_r+0x28a>
   18362:	2a09                	addiw	s4,s4,2
   18364:	5626                	lw	a2,104(sp)
   18366:	084d7293          	andi	t0,s10,132
   1836a:	77c6                	ld	a5,112(sp)
   1836c:	0016051b          	addiw	a0,a2,1
   18370:	85aa                	mv	a1,a0
   18372:	00029663          	bnez	t0,1837e <_vfiprintf_r+0x2a4>
   18376:	41448bbb          	subw	s7,s1,s4
   1837a:	5f704c63          	bgtz	s7,18972 <_vfiprintf_r+0x898>
   1837e:	05714e03          	lbu	t3,87(sp)
   18382:	01070593          	addi	a1,a4,16
   18386:	020e0163          	beqz	t3,183a8 <_vfiprintf_r+0x2ce>
   1838a:	05710613          	addi	a2,sp,87
   1838e:	e310                	sd	a2,0(a4)
   18390:	0785                	addi	a5,a5,1
   18392:	4605                	li	a2,1
   18394:	e710                	sd	a2,8(a4)
   18396:	f8be                	sd	a5,112(sp)
   18398:	d4aa                	sw	a0,104(sp)
   1839a:	471d                	li	a4,7
   1839c:	58a74363          	blt	a4,a0,18922 <_vfiprintf_r+0x848>
   183a0:	862a                	mv	a2,a0
   183a2:	872e                	mv	a4,a1
   183a4:	2505                	addiw	a0,a0,1
   183a6:	05c1                	addi	a1,a1,16
   183a8:	020e8d63          	beqz	t4,183e2 <_vfiprintf_r+0x308>
   183ac:	08b0                	addi	a2,sp,88
   183ae:	e310                	sd	a2,0(a4)
   183b0:	0789                	addi	a5,a5,2
   183b2:	4609                	li	a2,2
   183b4:	e710                	sd	a2,8(a4)
   183b6:	f8be                	sd	a5,112(sp)
   183b8:	d4aa                	sw	a0,104(sp)
   183ba:	471d                	li	a4,7
   183bc:	5aa75463          	bge	a4,a0,18964 <_vfiprintf_r+0x88a>
   183c0:	72078563          	beqz	a5,18aea <_vfiprintf_r+0xa10>
   183c4:	1090                	addi	a2,sp,96
   183c6:	85ca                	mv	a1,s2
   183c8:	854e                	mv	a0,s3
   183ca:	ec16                	sd	t0,24(sp)
   183cc:	c5dff0ef          	jal	ra,18028 <__sprint_r.part.0>
   183d0:	e80518e3          	bnez	a0,18260 <_vfiprintf_r+0x186>
   183d4:	5626                	lw	a2,104(sp)
   183d6:	77c6                	ld	a5,112(sp)
   183d8:	62e2                	ld	t0,24(sp)
   183da:	198c                	addi	a1,sp,240
   183dc:	0016051b          	addiw	a0,a2,1
   183e0:	8722                	mv	a4,s0
   183e2:	08000e13          	li	t3,128
   183e6:	3fc28c63          	beq	t0,t3,187de <_vfiprintf_r+0x704>
   183ea:	416c8cbb          	subw	s9,s9,s6
   183ee:	49904c63          	bgtz	s9,18886 <_vfiprintf_r+0x7ac>
   183f2:	97da                	add	a5,a5,s6
   183f4:	01873023          	sd	s8,0(a4)
   183f8:	01673423          	sd	s6,8(a4)
   183fc:	f8be                	sd	a5,112(sp)
   183fe:	d4aa                	sw	a0,104(sp)
   18400:	471d                	li	a4,7
   18402:	00a75d63          	bge	a4,a0,1841c <_vfiprintf_r+0x342>
   18406:	5e078f63          	beqz	a5,18a04 <_vfiprintf_r+0x92a>
   1840a:	1090                	addi	a2,sp,96
   1840c:	85ca                	mv	a1,s2
   1840e:	854e                	mv	a0,s3
   18410:	c19ff0ef          	jal	ra,18028 <__sprint_r.part.0>
   18414:	e40516e3          	bnez	a0,18260 <_vfiprintf_r+0x186>
   18418:	77c6                	ld	a5,112(sp)
   1841a:	85a2                	mv	a1,s0
   1841c:	004d7893          	andi	a7,s10,4
   18420:	00088663          	beqz	a7,1842c <_vfiprintf_r+0x352>
   18424:	41448b3b          	subw	s6,s1,s4
   18428:	5f604863          	bgtz	s6,18a18 <_vfiprintf_r+0x93e>
   1842c:	8726                	mv	a4,s1
   1842e:	0144d363          	bge	s1,s4,18434 <_vfiprintf_r+0x35a>
   18432:	8752                	mv	a4,s4
   18434:	6682                	ld	a3,0(sp)
   18436:	9f35                	addw	a4,a4,a3
   18438:	e03a                	sd	a4,0(sp)
   1843a:	4c079863          	bnez	a5,1890a <_vfiprintf_r+0x830>
   1843e:	d482                	sw	zero,104(sp)
   18440:	8722                	mv	a4,s0
   18442:	b325                	j	1816a <_vfiprintf_r+0x90>
   18444:	66a2                	ld	a3,8(sp)
   18446:	04010ba3          	sb	zero,87(sp)
   1844a:	4a05                	li	s4,1
   1844c:	429c                	lw	a5,0(a3)
   1844e:	06a1                	addi	a3,a3,8
   18450:	e436                	sd	a3,8(sp)
   18452:	06f10c23          	sb	a5,120(sp)
   18456:	4b05                	li	s6,1
   18458:	07810c13          	addi	s8,sp,120
   1845c:	bded                	j	18356 <_vfiprintf_r+0x27c>
   1845e:	66a2                	ld	a3,8(sp)
   18460:	020d7793          	andi	a5,s10,32
   18464:	00868613          	addi	a2,a3,8
   18468:	6e079063          	bnez	a5,18b48 <_vfiprintf_r+0xa6e>
   1846c:	010d7793          	andi	a5,s10,16
   18470:	6c079c63          	bnez	a5,18b48 <_vfiprintf_r+0xa6e>
   18474:	66a2                	ld	a3,8(sp)
   18476:	040d7793          	andi	a5,s10,64
   1847a:	0006aa03          	lw	s4,0(a3)
   1847e:	7e078963          	beqz	a5,18c70 <_vfiprintf_r+0xb96>
   18482:	1a42                	slli	s4,s4,0x30
   18484:	030a5a13          	srli	s4,s4,0x30
   18488:	e432                	sd	a2,8(sp)
   1848a:	8e6a                	mv	t3,s10
   1848c:	4785                	li	a5,1
   1848e:	b591                	j	182d2 <_vfiprintf_r+0x1f8>
   18490:	080d6893          	ori	a7,s10,128
   18494:	00088d1b          	sext.w	s10,a7
   18498:	000dc603          	lbu	a2,0(s11)
   1849c:	b3b9                	j	181ea <_vfiprintf_r+0x110>
   1849e:	000dc603          	lbu	a2,0(s11)
   184a2:	001d8793          	addi	a5,s11,1
   184a6:	096606e3          	beq	a2,s6,18d32 <_vfiprintf_r+0xc58>
   184aa:	fd06059b          	addiw	a1,a2,-48
   184ae:	8dbe                	mv	s11,a5
   184b0:	4c81                	li	s9,0
   184b2:	d4ba60e3          	bltu	s4,a1,181f2 <_vfiprintf_r+0x118>
   184b6:	0d85                	addi	s11,s11,1
   184b8:	002c979b          	slliw	a5,s9,0x2
   184bc:	fffdc603          	lbu	a2,-1(s11)
   184c0:	019786bb          	addw	a3,a5,s9
   184c4:	0016969b          	slliw	a3,a3,0x1
   184c8:	00b68cbb          	addw	s9,a3,a1
   184cc:	fd06059b          	addiw	a1,a2,-48
   184d0:	feba73e3          	bgeu	s4,a1,184b6 <_vfiprintf_r+0x3dc>
   184d4:	bb39                	j	181f2 <_vfiprintf_r+0x118>
   184d6:	000dc603          	lbu	a2,0(s11)
   184da:	004d6893          	ori	a7,s10,4
   184de:	00088d1b          	sext.w	s10,a7
   184e2:	b321                	j	181ea <_vfiprintf_r+0x110>
   184e4:	02b00793          	li	a5,43
   184e8:	04f10ba3          	sb	a5,87(sp)
   184ec:	000dc603          	lbu	a2,0(s11)
   184f0:	b9ed                	j	181ea <_vfiprintf_r+0x110>
   184f2:	67a2                	ld	a5,8(sp)
   184f4:	000dc603          	lbu	a2,0(s11)
   184f8:	4384                	lw	s1,0(a5)
   184fa:	07a1                	addi	a5,a5,8
   184fc:	e43e                	sd	a5,8(sp)
   184fe:	ce04d6e3          	bgez	s1,181ea <_vfiprintf_r+0x110>
   18502:	409004bb          	negw	s1,s1
   18506:	bfd1                	j	184da <_vfiprintf_r+0x400>
   18508:	854e                	mv	a0,s3
   1850a:	ec3a                	sd	a4,24(sp)
   1850c:	e5cfc0ef          	jal	ra,14b68 <_localeconv_r>
   18510:	651c                	ld	a5,8(a0)
   18512:	853e                	mv	a0,a5
   18514:	fc3e                	sd	a5,56(sp)
   18516:	e35fd0ef          	jal	ra,1634a <strlen>
   1851a:	e0aa                	sd	a0,64(sp)
   1851c:	8baa                	mv	s7,a0
   1851e:	854e                	mv	a0,s3
   18520:	e48fc0ef          	jal	ra,14b68 <_localeconv_r>
   18524:	6914                	ld	a3,16(a0)
   18526:	6762                	ld	a4,24(sp)
   18528:	000dc603          	lbu	a2,0(s11)
   1852c:	f836                	sd	a3,48(sp)
   1852e:	ca0b8ee3          	beqz	s7,181ea <_vfiprintf_r+0x110>
   18532:	ca068ce3          	beqz	a3,181ea <_vfiprintf_r+0x110>
   18536:	0006c783          	lbu	a5,0(a3)
   1853a:	ca0788e3          	beqz	a5,181ea <_vfiprintf_r+0x110>
   1853e:	400d6893          	ori	a7,s10,1024
   18542:	00088d1b          	sext.w	s10,a7
   18546:	b155                	j	181ea <_vfiprintf_r+0x110>
   18548:	001d6893          	ori	a7,s10,1
   1854c:	00088d1b          	sext.w	s10,a7
   18550:	000dc603          	lbu	a2,0(s11)
   18554:	b959                	j	181ea <_vfiprintf_r+0x110>
   18556:	05714783          	lbu	a5,87(sp)
   1855a:	000dc603          	lbu	a2,0(s11)
   1855e:	c80796e3          	bnez	a5,181ea <_vfiprintf_r+0x110>
   18562:	02000793          	li	a5,32
   18566:	04f10ba3          	sb	a5,87(sp)
   1856a:	b141                	j	181ea <_vfiprintf_r+0x110>
   1856c:	010d6793          	ori	a5,s10,16
   18570:	0007889b          	sext.w	a7,a5
   18574:	67a2                	ld	a5,8(sp)
   18576:	07a1                	addi	a5,a5,8
   18578:	66a2                	ld	a3,8(sp)
   1857a:	0006ba03          	ld	s4,0(a3)
   1857e:	e43e                	sd	a5,8(sp)
   18580:	bff8f893          	andi	a7,a7,-1025
   18584:	00088e1b          	sext.w	t3,a7
   18588:	4781                	li	a5,0
   1858a:	b3a1                	j	182d2 <_vfiprintf_r+0x1f8>
   1858c:	67a2                	ld	a5,8(sp)
   1858e:	010d6e13          	ori	t3,s10,16
   18592:	2e01                	sext.w	t3,t3
   18594:	00878613          	addi	a2,a5,8
   18598:	67a2                	ld	a5,8(sp)
   1859a:	639c                	ld	a5,0(a5)
   1859c:	e432                	sd	a2,8(sp)
   1859e:	8a3e                	mv	s4,a5
   185a0:	1607c463          	bltz	a5,18708 <_vfiprintf_r+0x62e>
   185a4:	57fd                	li	a5,-1
   185a6:	00fc8963          	beq	s9,a5,185b8 <_vfiprintf_r+0x4de>
   185aa:	f7fe7893          	andi	a7,t3,-129
   185ae:	00088d1b          	sext.w	s10,a7
   185b2:	520a0463          	beqz	s4,18ada <_vfiprintf_r+0xa00>
   185b6:	8e6a                	mv	t3,s10
   185b8:	47a5                	li	a5,9
   185ba:	5d47e363          	bltu	a5,s4,18b80 <_vfiprintf_r+0xaa6>
   185be:	030a0a1b          	addiw	s4,s4,48
   185c2:	0d410da3          	sb	s4,219(sp)
   185c6:	8d72                	mv	s10,t3
   185c8:	4b05                	li	s6,1
   185ca:	0db10c13          	addi	s8,sp,219
   185ce:	b33d                	j	182fc <_vfiprintf_r+0x222>
   185d0:	67a2                	ld	a5,8(sp)
   185d2:	010d6e13          	ori	t3,s10,16
   185d6:	2e01                	sext.w	t3,t3
   185d8:	00878613          	addi	a2,a5,8
   185dc:	67a2                	ld	a5,8(sp)
   185de:	0007ba03          	ld	s4,0(a5)
   185e2:	4785                	li	a5,1
   185e4:	e432                	sd	a2,8(sp)
   185e6:	b1f5                	j	182d2 <_vfiprintf_r+0x1f8>
   185e8:	67a2                	ld	a5,8(sp)
   185ea:	04010ba3          	sb	zero,87(sp)
   185ee:	0007bc03          	ld	s8,0(a5)
   185f2:	00878b93          	addi	s7,a5,8
   185f6:	620c0463          	beqz	s8,18c1e <_vfiprintf_r+0xb44>
   185fa:	57fd                	li	a5,-1
   185fc:	54fc8f63          	beq	s9,a5,18b5a <_vfiprintf_r+0xa80>
   18600:	8666                	mv	a2,s9
   18602:	4581                	li	a1,0
   18604:	8562                	mv	a0,s8
   18606:	e43a                	sd	a4,8(sp)
   18608:	dbffc0ef          	jal	ra,153c6 <memchr>
   1860c:	6722                	ld	a4,8(sp)
   1860e:	6e050363          	beqz	a0,18cf4 <_vfiprintf_r+0xc1a>
   18612:	41850b3b          	subw	s6,a0,s8
   18616:	e45e                	sd	s7,8(sp)
   18618:	4c81                	li	s9,0
   1861a:	b1cd                	j	182fc <_vfiprintf_r+0x222>
   1861c:	020d6893          	ori	a7,s10,32
   18620:	00088d1b          	sext.w	s10,a7
   18624:	000dc603          	lbu	a2,0(s11)
   18628:	b6c9                	j	181ea <_vfiprintf_r+0x110>
   1862a:	67a2                	ld	a5,8(sp)
   1862c:	66a6                	ld	a3,72(sp)
   1862e:	002d6893          	ori	a7,s10,2
   18632:	0007ba03          	ld	s4,0(a5)
   18636:	07a1                	addi	a5,a5,8
   18638:	e43e                	sd	a5,8(sp)
   1863a:	00004797          	auipc	a5,0x4
   1863e:	c4678793          	addi	a5,a5,-954 # 1c280 <zeroes.4541+0x60>
   18642:	e83e                	sd	a5,16(sp)
   18644:	00088e1b          	sext.w	t3,a7
   18648:	04d11c23          	sh	a3,88(sp)
   1864c:	4789                	li	a5,2
   1864e:	b151                	j	182d2 <_vfiprintf_r+0x1f8>
   18650:	67a2                	ld	a5,8(sp)
   18652:	020d7613          	andi	a2,s10,32
   18656:	07a1                	addi	a5,a5,8
   18658:	4e061663          	bnez	a2,18b44 <_vfiprintf_r+0xa6a>
   1865c:	010d7613          	andi	a2,s10,16
   18660:	4e061263          	bnez	a2,18b44 <_vfiprintf_r+0xa6a>
   18664:	66a2                	ld	a3,8(sp)
   18666:	040d7613          	andi	a2,s10,64
   1866a:	0006aa03          	lw	s4,0(a3)
   1866e:	5e060963          	beqz	a2,18c60 <_vfiprintf_r+0xb86>
   18672:	1a42                	slli	s4,s4,0x30
   18674:	030a5a13          	srli	s4,s4,0x30
   18678:	88ea                	mv	a7,s10
   1867a:	e43e                	sd	a5,8(sp)
   1867c:	b711                	j	18580 <_vfiprintf_r+0x4a6>
   1867e:	6622                	ld	a2,8(sp)
   18680:	020d7793          	andi	a5,s10,32
   18684:	6214                	ld	a3,0(a2)
   18686:	0621                	addi	a2,a2,8
   18688:	e432                	sd	a2,8(sp)
   1868a:	10079c63          	bnez	a5,187a2 <_vfiprintf_r+0x6c8>
   1868e:	010d7793          	andi	a5,s10,16
   18692:	10079863          	bnez	a5,187a2 <_vfiprintf_r+0x6c8>
   18696:	040d7793          	andi	a5,s10,64
   1869a:	60079c63          	bnez	a5,18cb2 <_vfiprintf_r+0xbd8>
   1869e:	200d7893          	andi	a7,s10,512
   186a2:	6782                	ld	a5,0(sp)
   186a4:	68088463          	beqz	a7,18d2c <_vfiprintf_r+0xc52>
   186a8:	00f68023          	sb	a5,0(a3)
   186ac:	bc7d                	j	1816a <_vfiprintf_r+0x90>
   186ae:	000dc603          	lbu	a2,0(s11)
   186b2:	06c00793          	li	a5,108
   186b6:	54f60b63          	beq	a2,a5,18c0c <_vfiprintf_r+0xb32>
   186ba:	010d6893          	ori	a7,s10,16
   186be:	00088d1b          	sext.w	s10,a7
   186c2:	b625                	j	181ea <_vfiprintf_r+0x110>
   186c4:	000dc603          	lbu	a2,0(s11)
   186c8:	06800793          	li	a5,104
   186cc:	52f60763          	beq	a2,a5,18bfa <_vfiprintf_r+0xb20>
   186d0:	040d6893          	ori	a7,s10,64
   186d4:	00088d1b          	sext.w	s10,a7
   186d8:	be09                	j	181ea <_vfiprintf_r+0x110>
   186da:	66a2                	ld	a3,8(sp)
   186dc:	020d7793          	andi	a5,s10,32
   186e0:	00868613          	addi	a2,a3,8
   186e4:	46079963          	bnez	a5,18b56 <_vfiprintf_r+0xa7c>
   186e8:	010d7793          	andi	a5,s10,16
   186ec:	46079563          	bnez	a5,18b56 <_vfiprintf_r+0xa7c>
   186f0:	040d7793          	andi	a5,s10,64
   186f4:	54078c63          	beqz	a5,18c4c <_vfiprintf_r+0xb72>
   186f8:	67a2                	ld	a5,8(sp)
   186fa:	e432                	sd	a2,8(sp)
   186fc:	8e6a                	mv	t3,s10
   186fe:	00079a03          	lh	s4,0(a5)
   18702:	87d2                	mv	a5,s4
   18704:	ea07d0e3          	bgez	a5,185a4 <_vfiprintf_r+0x4ca>
   18708:	02d00793          	li	a5,45
   1870c:	04f10ba3          	sb	a5,87(sp)
   18710:	567d                	li	a2,-1
   18712:	41400a33          	neg	s4,s4
   18716:	4785                	li	a5,1
   18718:	bccc92e3          	bne	s9,a2,182dc <_vfiprintf_r+0x202>
   1871c:	4605                	li	a2,1
   1871e:	e8c78de3          	beq	a5,a2,185b8 <_vfiprintf_r+0x4de>
   18722:	4609                	li	a2,2
   18724:	08c78963          	beq	a5,a2,187b6 <_vfiprintf_r+0x6dc>
   18728:	09f0                	addi	a2,sp,220
   1872a:	a011                	j	1872e <_vfiprintf_r+0x654>
   1872c:	8662                	mv	a2,s8
   1872e:	007a7793          	andi	a5,s4,7
   18732:	03078793          	addi	a5,a5,48
   18736:	fef60fa3          	sb	a5,-1(a2)
   1873a:	003a5a13          	srli	s4,s4,0x3
   1873e:	fff60c13          	addi	s8,a2,-1
   18742:	fe0a15e3          	bnez	s4,1872c <_vfiprintf_r+0x652>
   18746:	001e7593          	andi	a1,t3,1
   1874a:	c5c9                	beqz	a1,187d4 <_vfiprintf_r+0x6fa>
   1874c:	03000593          	li	a1,48
   18750:	08b78263          	beq	a5,a1,187d4 <_vfiprintf_r+0x6fa>
   18754:	1679                	addi	a2,a2,-2
   18756:	09fc                	addi	a5,sp,220
   18758:	febc0fa3          	sb	a1,-1(s8)
   1875c:	40c78b3b          	subw	s6,a5,a2
   18760:	8d72                	mv	s10,t3
   18762:	8c32                	mv	s8,a2
   18764:	be61                	j	182fc <_vfiprintf_r+0x222>
   18766:	66a2                	ld	a3,8(sp)
   18768:	00004797          	auipc	a5,0x4
   1876c:	b1878793          	addi	a5,a5,-1256 # 1c280 <zeroes.4541+0x60>
   18770:	e83e                	sd	a5,16(sp)
   18772:	020d7793          	andi	a5,s10,32
   18776:	00868593          	addi	a1,a3,8
   1877a:	b20795e3          	bnez	a5,182a4 <_vfiprintf_r+0x1ca>
   1877e:	010d7793          	andi	a5,s10,16
   18782:	3c079563          	bnez	a5,18b4c <_vfiprintf_r+0xa72>
   18786:	66a2                	ld	a3,8(sp)
   18788:	040d7793          	andi	a5,s10,64
   1878c:	0006aa03          	lw	s4,0(a3)
   18790:	4a078763          	beqz	a5,18c3e <_vfiprintf_r+0xb64>
   18794:	1a42                	slli	s4,s4,0x30
   18796:	030a5a13          	srli	s4,s4,0x30
   1879a:	b639                	j	182a8 <_vfiprintf_r+0x1ce>
   1879c:	eaff90ef          	jal	ra,1264a <__sinit>
   187a0:	b29d                	j	18106 <_vfiprintf_r+0x2c>
   187a2:	6782                	ld	a5,0(sp)
   187a4:	e29c                	sd	a5,0(a3)
   187a6:	b2d1                	j	1816a <_vfiprintf_r+0x90>
   187a8:	4605                	li	a2,1
   187aa:	54c78363          	beq	a5,a2,18cf0 <_vfiprintf_r+0xc16>
   187ae:	4609                	li	a2,2
   187b0:	8e6a                	mv	t3,s10
   187b2:	f6c79be3          	bne	a5,a2,18728 <_vfiprintf_r+0x64e>
   187b6:	0dc10c13          	addi	s8,sp,220
   187ba:	66c2                	ld	a3,16(sp)
   187bc:	00fa7793          	andi	a5,s4,15
   187c0:	1c7d                	addi	s8,s8,-1
   187c2:	97b6                	add	a5,a5,a3
   187c4:	0007c783          	lbu	a5,0(a5)
   187c8:	004a5a13          	srli	s4,s4,0x4
   187cc:	00fc0023          	sb	a5,0(s8)
   187d0:	fe0a15e3          	bnez	s4,187ba <_vfiprintf_r+0x6e0>
   187d4:	09fc                	addi	a5,sp,220
   187d6:	41878b3b          	subw	s6,a5,s8
   187da:	8d72                	mv	s10,t3
   187dc:	b605                	j	182fc <_vfiprintf_r+0x222>
   187de:	41448e3b          	subw	t3,s1,s4
   187e2:	c1c054e3          	blez	t3,183ea <_vfiprintf_r+0x310>
   187e6:	4ec1                	li	t4,16
   187e8:	53ced763          	bge	t4,t3,18d16 <_vfiprintf_r+0xc3c>
   187ec:	00004b97          	auipc	s7,0x4
   187f0:	1c4b8b93          	addi	s7,s7,452 # 1c9b0 <zeroes.4517>
   187f4:	4f41                	li	t5,16
   187f6:	4f9d                	li	t6,7
   187f8:	a801                	j	18808 <_vfiprintf_r+0x72e>
   187fa:	0026029b          	addiw	t0,a2,2
   187fe:	0741                	addi	a4,a4,16
   18800:	862a                	mv	a2,a0
   18802:	3e41                	addiw	t3,t3,-16
   18804:	05cf5263          	bge	t5,t3,18848 <_vfiprintf_r+0x76e>
   18808:	0016051b          	addiw	a0,a2,1
   1880c:	07c1                	addi	a5,a5,16
   1880e:	01773023          	sd	s7,0(a4)
   18812:	01e73423          	sd	t5,8(a4)
   18816:	f8be                	sd	a5,112(sp)
   18818:	d4aa                	sw	a0,104(sp)
   1881a:	feafd0e3          	bge	t6,a0,187fa <_vfiprintf_r+0x720>
   1881e:	0e078e63          	beqz	a5,1891a <_vfiprintf_r+0x840>
   18822:	1090                	addi	a2,sp,96
   18824:	85ca                	mv	a1,s2
   18826:	854e                	mv	a0,s3
   18828:	ec72                	sd	t3,24(sp)
   1882a:	ffeff0ef          	jal	ra,18028 <__sprint_r.part.0>
   1882e:	a20519e3          	bnez	a0,18260 <_vfiprintf_r+0x186>
   18832:	6e62                	ld	t3,24(sp)
   18834:	5626                	lw	a2,104(sp)
   18836:	4f41                	li	t5,16
   18838:	3e41                	addiw	t3,t3,-16
   1883a:	77c6                	ld	a5,112(sp)
   1883c:	8722                	mv	a4,s0
   1883e:	0016029b          	addiw	t0,a2,1
   18842:	4f9d                	li	t6,7
   18844:	fdcf42e3          	blt	t5,t3,18808 <_vfiprintf_r+0x72e>
   18848:	01070f13          	addi	t5,a4,16
   1884c:	97f2                	add	a5,a5,t3
   1884e:	01773023          	sd	s7,0(a4)
   18852:	01c73423          	sd	t3,8(a4)
   18856:	f8be                	sd	a5,112(sp)
   18858:	d496                	sw	t0,104(sp)
   1885a:	471d                	li	a4,7
   1885c:	2c575d63          	bge	a4,t0,18b36 <_vfiprintf_r+0xa5c>
   18860:	42078863          	beqz	a5,18c90 <_vfiprintf_r+0xbb6>
   18864:	1090                	addi	a2,sp,96
   18866:	85ca                	mv	a1,s2
   18868:	854e                	mv	a0,s3
   1886a:	fbeff0ef          	jal	ra,18028 <__sprint_r.part.0>
   1886e:	9e0519e3          	bnez	a0,18260 <_vfiprintf_r+0x186>
   18872:	5626                	lw	a2,104(sp)
   18874:	416c8cbb          	subw	s9,s9,s6
   18878:	77c6                	ld	a5,112(sp)
   1887a:	198c                	addi	a1,sp,240
   1887c:	0016051b          	addiw	a0,a2,1
   18880:	8722                	mv	a4,s0
   18882:	b79058e3          	blez	s9,183f2 <_vfiprintf_r+0x318>
   18886:	4e41                	li	t3,16
   18888:	3f9e5e63          	bge	t3,s9,18c84 <_vfiprintf_r+0xbaa>
   1888c:	00004b97          	auipc	s7,0x4
   18890:	124b8b93          	addi	s7,s7,292 # 1c9b0 <zeroes.4517>
   18894:	4f1d                	li	t5,7
   18896:	a801                	j	188a6 <_vfiprintf_r+0x7cc>
   18898:	0026051b          	addiw	a0,a2,2
   1889c:	0741                	addi	a4,a4,16
   1889e:	867e                	mv	a2,t6
   188a0:	3cc1                	addiw	s9,s9,-16
   188a2:	039e5f63          	bge	t3,s9,188e0 <_vfiprintf_r+0x806>
   188a6:	00160f9b          	addiw	t6,a2,1
   188aa:	07c1                	addi	a5,a5,16
   188ac:	01773023          	sd	s7,0(a4)
   188b0:	01c73423          	sd	t3,8(a4)
   188b4:	f8be                	sd	a5,112(sp)
   188b6:	d4fe                	sw	t6,104(sp)
   188b8:	ffff50e3          	bge	t5,t6,18898 <_vfiprintf_r+0x7be>
   188bc:	c3b9                	beqz	a5,18902 <_vfiprintf_r+0x828>
   188be:	1090                	addi	a2,sp,96
   188c0:	85ca                	mv	a1,s2
   188c2:	854e                	mv	a0,s3
   188c4:	f64ff0ef          	jal	ra,18028 <__sprint_r.part.0>
   188c8:	98051ce3          	bnez	a0,18260 <_vfiprintf_r+0x186>
   188cc:	5626                	lw	a2,104(sp)
   188ce:	4e41                	li	t3,16
   188d0:	3cc1                	addiw	s9,s9,-16
   188d2:	77c6                	ld	a5,112(sp)
   188d4:	8722                	mv	a4,s0
   188d6:	0016051b          	addiw	a0,a2,1
   188da:	4f1d                	li	t5,7
   188dc:	fd9e45e3          	blt	t3,s9,188a6 <_vfiprintf_r+0x7cc>
   188e0:	01070613          	addi	a2,a4,16
   188e4:	97e6                	add	a5,a5,s9
   188e6:	01773023          	sd	s7,0(a4)
   188ea:	01973423          	sd	s9,8(a4)
   188ee:	f8be                	sd	a5,112(sp)
   188f0:	d4aa                	sw	a0,104(sp)
   188f2:	471d                	li	a4,7
   188f4:	1ca74163          	blt	a4,a0,18ab6 <_vfiprintf_r+0x9dc>
   188f8:	2505                	addiw	a0,a0,1
   188fa:	01060593          	addi	a1,a2,16
   188fe:	8732                	mv	a4,a2
   18900:	bccd                	j	183f2 <_vfiprintf_r+0x318>
   18902:	4505                	li	a0,1
   18904:	4601                	li	a2,0
   18906:	8722                	mv	a4,s0
   18908:	bf61                	j	188a0 <_vfiprintf_r+0x7c6>
   1890a:	1090                	addi	a2,sp,96
   1890c:	85ca                	mv	a1,s2
   1890e:	854e                	mv	a0,s3
   18910:	f18ff0ef          	jal	ra,18028 <__sprint_r.part.0>
   18914:	b20505e3          	beqz	a0,1843e <_vfiprintf_r+0x364>
   18918:	b2a1                	j	18260 <_vfiprintf_r+0x186>
   1891a:	4285                	li	t0,1
   1891c:	4601                	li	a2,0
   1891e:	8722                	mv	a4,s0
   18920:	b5cd                	j	18802 <_vfiprintf_r+0x728>
   18922:	cb8d                	beqz	a5,18954 <_vfiprintf_r+0x87a>
   18924:	1090                	addi	a2,sp,96
   18926:	85ca                	mv	a1,s2
   18928:	854e                	mv	a0,s3
   1892a:	f016                	sd	t0,32(sp)
   1892c:	ec76                	sd	t4,24(sp)
   1892e:	efaff0ef          	jal	ra,18028 <__sprint_r.part.0>
   18932:	920517e3          	bnez	a0,18260 <_vfiprintf_r+0x186>
   18936:	5626                	lw	a2,104(sp)
   18938:	77c6                	ld	a5,112(sp)
   1893a:	198c                	addi	a1,sp,240
   1893c:	0016051b          	addiw	a0,a2,1
   18940:	8722                	mv	a4,s0
   18942:	7282                	ld	t0,32(sp)
   18944:	6ee2                	ld	t4,24(sp)
   18946:	b48d                	j	183a8 <_vfiprintf_r+0x2ce>
   18948:	1c079663          	bnez	a5,18b14 <_vfiprintf_r+0xa3a>
   1894c:	05714703          	lbu	a4,87(sp)
   18950:	34071863          	bnez	a4,18ca0 <_vfiprintf_r+0xbc6>
   18954:	1a0e8363          	beqz	t4,18afa <_vfiprintf_r+0xa20>
   18958:	08bc                	addi	a5,sp,88
   1895a:	f1be                	sd	a5,224(sp)
   1895c:	4789                	li	a5,2
   1895e:	f5be                	sd	a5,232(sp)
   18960:	4505                	li	a0,1
   18962:	198c                	addi	a1,sp,240
   18964:	862a                	mv	a2,a0
   18966:	872e                	mv	a4,a1
   18968:	2505                	addiw	a0,a0,1
   1896a:	05c1                	addi	a1,a1,16
   1896c:	bc9d                	j	183e2 <_vfiprintf_r+0x308>
   1896e:	8e6a                	mv	t3,s10
   18970:	b375                	j	1871c <_vfiprintf_r+0x642>
   18972:	4f41                	li	t5,16
   18974:	397f5563          	bge	t5,s7,18cfe <_vfiprintf_r+0xc24>
   18978:	00004f17          	auipc	t5,0x4
   1897c:	028f0f13          	addi	t5,t5,40 # 1c9a0 <blanks.4516>
   18980:	4fc1                	li	t6,16
   18982:	439d                	li	t2,7
   18984:	a811                	j	18998 <_vfiprintf_r+0x8be>
   18986:	0026059b          	addiw	a1,a2,2
   1898a:	0741                	addi	a4,a4,16
   1898c:	862a                	mv	a2,a0
   1898e:	3bc1                	addiw	s7,s7,-16
   18990:	057fd763          	bge	t6,s7,189de <_vfiprintf_r+0x904>
   18994:	0016059b          	addiw	a1,a2,1
   18998:	07c1                	addi	a5,a5,16
   1899a:	01e73023          	sd	t5,0(a4)
   1899e:	01f73423          	sd	t6,8(a4)
   189a2:	f8be                	sd	a5,112(sp)
   189a4:	0005851b          	sext.w	a0,a1
   189a8:	d4ae                	sw	a1,104(sp)
   189aa:	fca3dee3          	bge	t2,a0,18986 <_vfiprintf_r+0x8ac>
   189ae:	c7b9                	beqz	a5,189fc <_vfiprintf_r+0x922>
   189b0:	1090                	addi	a2,sp,96
   189b2:	85ca                	mv	a1,s2
   189b4:	854e                	mv	a0,s3
   189b6:	f47a                	sd	t5,40(sp)
   189b8:	f016                	sd	t0,32(sp)
   189ba:	ec76                	sd	t4,24(sp)
   189bc:	e6cff0ef          	jal	ra,18028 <__sprint_r.part.0>
   189c0:	8a0510e3          	bnez	a0,18260 <_vfiprintf_r+0x186>
   189c4:	5626                	lw	a2,104(sp)
   189c6:	4fc1                	li	t6,16
   189c8:	3bc1                	addiw	s7,s7,-16
   189ca:	77c6                	ld	a5,112(sp)
   189cc:	8722                	mv	a4,s0
   189ce:	0016059b          	addiw	a1,a2,1
   189d2:	7f22                	ld	t5,40(sp)
   189d4:	439d                	li	t2,7
   189d6:	7282                	ld	t0,32(sp)
   189d8:	6ee2                	ld	t4,24(sp)
   189da:	fb7fcde3          	blt	t6,s7,18994 <_vfiprintf_r+0x8ba>
   189de:	97de                	add	a5,a5,s7
   189e0:	01e73023          	sd	t5,0(a4)
   189e4:	01773423          	sd	s7,8(a4)
   189e8:	f8be                	sd	a5,112(sp)
   189ea:	d4ae                	sw	a1,104(sp)
   189ec:	461d                	li	a2,7
   189ee:	f4b64de3          	blt	a2,a1,18948 <_vfiprintf_r+0x86e>
   189f2:	0741                	addi	a4,a4,16
   189f4:	0015851b          	addiw	a0,a1,1
   189f8:	862e                	mv	a2,a1
   189fa:	b251                	j	1837e <_vfiprintf_r+0x2a4>
   189fc:	4601                	li	a2,0
   189fe:	4585                	li	a1,1
   18a00:	8722                	mv	a4,s0
   18a02:	b771                	j	1898e <_vfiprintf_r+0x8b4>
   18a04:	d482                	sw	zero,104(sp)
   18a06:	004d7893          	andi	a7,s10,4
   18a0a:	08088e63          	beqz	a7,18aa6 <_vfiprintf_r+0x9cc>
   18a0e:	41448b3b          	subw	s6,s1,s4
   18a12:	09605a63          	blez	s6,18aa6 <_vfiprintf_r+0x9cc>
   18a16:	85a2                	mv	a1,s0
   18a18:	4741                	li	a4,16
   18a1a:	56a6                	lw	a3,104(sp)
   18a1c:	2f675663          	bge	a4,s6,18d08 <_vfiprintf_r+0xc2e>
   18a20:	00004f17          	auipc	t5,0x4
   18a24:	f80f0f13          	addi	t5,t5,-128 # 1c9a0 <blanks.4516>
   18a28:	4cc1                	li	s9,16
   18a2a:	4c1d                	li	s8,7
   18a2c:	a801                	j	18a3c <_vfiprintf_r+0x962>
   18a2e:	0026871b          	addiw	a4,a3,2
   18a32:	05c1                	addi	a1,a1,16
   18a34:	86b2                	mv	a3,a2
   18a36:	3b41                	addiw	s6,s6,-16
   18a38:	036cdf63          	bge	s9,s6,18a76 <_vfiprintf_r+0x99c>
   18a3c:	0016861b          	addiw	a2,a3,1
   18a40:	07c1                	addi	a5,a5,16
   18a42:	01e5b023          	sd	t5,0(a1)
   18a46:	0195b423          	sd	s9,8(a1)
   18a4a:	f8be                	sd	a5,112(sp)
   18a4c:	d4b2                	sw	a2,104(sp)
   18a4e:	fecc50e3          	bge	s8,a2,18a2e <_vfiprintf_r+0x954>
   18a52:	c7b1                	beqz	a5,18a9e <_vfiprintf_r+0x9c4>
   18a54:	1090                	addi	a2,sp,96
   18a56:	85ca                	mv	a1,s2
   18a58:	854e                	mv	a0,s3
   18a5a:	ec7a                	sd	t5,24(sp)
   18a5c:	dccff0ef          	jal	ra,18028 <__sprint_r.part.0>
   18a60:	800510e3          	bnez	a0,18260 <_vfiprintf_r+0x186>
   18a64:	56a6                	lw	a3,104(sp)
   18a66:	3b41                	addiw	s6,s6,-16
   18a68:	77c6                	ld	a5,112(sp)
   18a6a:	85a2                	mv	a1,s0
   18a6c:	0016871b          	addiw	a4,a3,1
   18a70:	6f62                	ld	t5,24(sp)
   18a72:	fd6cc5e3          	blt	s9,s6,18a3c <_vfiprintf_r+0x962>
   18a76:	97da                	add	a5,a5,s6
   18a78:	01e5b023          	sd	t5,0(a1)
   18a7c:	0165b423          	sd	s6,8(a1)
   18a80:	f8be                	sd	a5,112(sp)
   18a82:	d4ba                	sw	a4,104(sp)
   18a84:	469d                	li	a3,7
   18a86:	9ae6d3e3          	bge	a3,a4,1842c <_vfiprintf_r+0x352>
   18a8a:	cf91                	beqz	a5,18aa6 <_vfiprintf_r+0x9cc>
   18a8c:	1090                	addi	a2,sp,96
   18a8e:	85ca                	mv	a1,s2
   18a90:	854e                	mv	a0,s3
   18a92:	d96ff0ef          	jal	ra,18028 <__sprint_r.part.0>
   18a96:	fc051563          	bnez	a0,18260 <_vfiprintf_r+0x186>
   18a9a:	77c6                	ld	a5,112(sp)
   18a9c:	ba41                	j	1842c <_vfiprintf_r+0x352>
   18a9e:	4705                	li	a4,1
   18aa0:	4681                	li	a3,0
   18aa2:	85a2                	mv	a1,s0
   18aa4:	bf49                	j	18a36 <_vfiprintf_r+0x95c>
   18aa6:	87a6                	mv	a5,s1
   18aa8:	0144d363          	bge	s1,s4,18aae <_vfiprintf_r+0x9d4>
   18aac:	87d2                	mv	a5,s4
   18aae:	6702                	ld	a4,0(sp)
   18ab0:	9fb9                	addw	a5,a5,a4
   18ab2:	e03e                	sd	a5,0(sp)
   18ab4:	b269                	j	1843e <_vfiprintf_r+0x364>
   18ab6:	cfcd                	beqz	a5,18b70 <_vfiprintf_r+0xa96>
   18ab8:	1090                	addi	a2,sp,96
   18aba:	85ca                	mv	a1,s2
   18abc:	854e                	mv	a0,s3
   18abe:	d6aff0ef          	jal	ra,18028 <__sprint_r.part.0>
   18ac2:	f8051f63          	bnez	a0,18260 <_vfiprintf_r+0x186>
   18ac6:	5526                	lw	a0,104(sp)
   18ac8:	77c6                	ld	a5,112(sp)
   18aca:	198c                	addi	a1,sp,240
   18acc:	2505                	addiw	a0,a0,1
   18ace:	8722                	mv	a4,s0
   18ad0:	b20d                	j	183f2 <_vfiprintf_r+0x318>
   18ad2:	d482                	sw	zero,104(sp)
   18ad4:	8722                	mv	a4,s0
   18ad6:	eeeff06f          	j	181c4 <_vfiprintf_r+0xea>
   18ada:	200c9b63          	bnez	s9,18cf0 <_vfiprintf_r+0xc16>
   18ade:	4c81                	li	s9,0
   18ae0:	4b01                	li	s6,0
   18ae2:	0dc10c13          	addi	s8,sp,220
   18ae6:	817ff06f          	j	182fc <_vfiprintf_r+0x222>
   18aea:	198c                	addi	a1,sp,240
   18aec:	4505                	li	a0,1
   18aee:	4601                	li	a2,0
   18af0:	8722                	mv	a4,s0
   18af2:	b8c5                	j	183e2 <_vfiprintf_r+0x308>
   18af4:	8a6e                	mv	s4,s11
   18af6:	edcff06f          	j	181d2 <_vfiprintf_r+0xf8>
   18afa:	4601                	li	a2,0
   18afc:	198c                	addi	a1,sp,240
   18afe:	4505                	li	a0,1
   18b00:	8722                	mv	a4,s0
   18b02:	b0c5                	j	183e2 <_vfiprintf_r+0x308>
   18b04:	03000793          	li	a5,48
   18b08:	0cf10da3          	sb	a5,219(sp)
   18b0c:	0db10c13          	addi	s8,sp,219
   18b10:	fecff06f          	j	182fc <_vfiprintf_r+0x222>
   18b14:	1090                	addi	a2,sp,96
   18b16:	85ca                	mv	a1,s2
   18b18:	854e                	mv	a0,s3
   18b1a:	f016                	sd	t0,32(sp)
   18b1c:	ec76                	sd	t4,24(sp)
   18b1e:	d0aff0ef          	jal	ra,18028 <__sprint_r.part.0>
   18b22:	f2051f63          	bnez	a0,18260 <_vfiprintf_r+0x186>
   18b26:	5626                	lw	a2,104(sp)
   18b28:	77c6                	ld	a5,112(sp)
   18b2a:	8722                	mv	a4,s0
   18b2c:	0016051b          	addiw	a0,a2,1
   18b30:	7282                	ld	t0,32(sp)
   18b32:	6ee2                	ld	t4,24(sp)
   18b34:	b0a9                	j	1837e <_vfiprintf_r+0x2a4>
   18b36:	0012851b          	addiw	a0,t0,1
   18b3a:	010f0593          	addi	a1,t5,16
   18b3e:	8616                	mv	a2,t0
   18b40:	877a                	mv	a4,t5
   18b42:	b065                	j	183ea <_vfiprintf_r+0x310>
   18b44:	88ea                	mv	a7,s10
   18b46:	bc0d                	j	18578 <_vfiprintf_r+0x49e>
   18b48:	8e6a                	mv	t3,s10
   18b4a:	bc49                	j	185dc <_vfiprintf_r+0x502>
   18b4c:	67a2                	ld	a5,8(sp)
   18b4e:	0007ba03          	ld	s4,0(a5)
   18b52:	f56ff06f          	j	182a8 <_vfiprintf_r+0x1ce>
   18b56:	8e6a                	mv	t3,s10
   18b58:	b481                	j	18598 <_vfiprintf_r+0x4be>
   18b5a:	8562                	mv	a0,s8
   18b5c:	ec3a                	sd	a4,24(sp)
   18b5e:	fecfd0ef          	jal	ra,1634a <strlen>
   18b62:	00050b1b          	sext.w	s6,a0
   18b66:	e45e                	sd	s7,8(sp)
   18b68:	4c81                	li	s9,0
   18b6a:	6762                	ld	a4,24(sp)
   18b6c:	f90ff06f          	j	182fc <_vfiprintf_r+0x222>
   18b70:	4705                	li	a4,1
   18b72:	87da                	mv	a5,s6
   18b74:	f1e2                	sd	s8,224(sp)
   18b76:	f5da                	sd	s6,232(sp)
   18b78:	f8da                	sd	s6,112(sp)
   18b7a:	d4ba                	sw	a4,104(sp)
   18b7c:	198c                	addi	a1,sp,240
   18b7e:	b879                	j	1841c <_vfiprintf_r+0x342>
   18b80:	400e7893          	andi	a7,t3,1024
   18b84:	2881                	sext.w	a7,a7
   18b86:	4581                	li	a1,0
   18b88:	09f0                	addi	a2,sp,220
   18b8a:	4b29                	li	s6,10
   18b8c:	4d25                	li	s10,9
   18b8e:	0ff00b93          	li	s7,255
   18b92:	a039                	j	18ba0 <_vfiprintf_r+0xac6>
   18b94:	036a57b3          	divu	a5,s4,s6
   18b98:	c34d7ee3          	bgeu	s10,s4,187d4 <_vfiprintf_r+0x6fa>
   18b9c:	8a3e                	mv	s4,a5
   18b9e:	8662                	mv	a2,s8
   18ba0:	fff60c13          	addi	s8,a2,-1
   18ba4:	2585                	addiw	a1,a1,1
   18ba6:	036a77b3          	remu	a5,s4,s6
   18baa:	0307879b          	addiw	a5,a5,48
   18bae:	fef60fa3          	sb	a5,-1(a2)
   18bb2:	fe0881e3          	beqz	a7,18b94 <_vfiprintf_r+0xaba>
   18bb6:	77c2                	ld	a5,48(sp)
   18bb8:	0007c783          	lbu	a5,0(a5)
   18bbc:	fcb79ce3          	bne	a5,a1,18b94 <_vfiprintf_r+0xaba>
   18bc0:	fd778ae3          	beq	a5,s7,18b94 <_vfiprintf_r+0xaba>
   18bc4:	c14d78e3          	bgeu	s10,s4,187d4 <_vfiprintf_r+0x6fa>
   18bc8:	6786                	ld	a5,64(sp)
   18bca:	75e2                	ld	a1,56(sp)
   18bcc:	f446                	sd	a7,40(sp)
   18bce:	40fc0c33          	sub	s8,s8,a5
   18bd2:	863e                	mv	a2,a5
   18bd4:	8562                	mv	a0,s8
   18bd6:	f03a                	sd	a4,32(sp)
   18bd8:	ec72                	sd	t3,24(sp)
   18bda:	809fd0ef          	jal	ra,163e2 <strncpy>
   18bde:	7742                	ld	a4,48(sp)
   18be0:	036a57b3          	divu	a5,s4,s6
   18be4:	4581                	li	a1,0
   18be6:	00174603          	lbu	a2,1(a4)
   18bea:	6e62                	ld	t3,24(sp)
   18bec:	78a2                	ld	a7,40(sp)
   18bee:	00c03633          	snez	a2,a2
   18bf2:	9732                	add	a4,a4,a2
   18bf4:	f83a                	sd	a4,48(sp)
   18bf6:	7702                	ld	a4,32(sp)
   18bf8:	b755                	j	18b9c <_vfiprintf_r+0xac2>
   18bfa:	200d6893          	ori	a7,s10,512
   18bfe:	001dc603          	lbu	a2,1(s11)
   18c02:	00088d1b          	sext.w	s10,a7
   18c06:	0d85                	addi	s11,s11,1
   18c08:	de2ff06f          	j	181ea <_vfiprintf_r+0x110>
   18c0c:	020d6893          	ori	a7,s10,32
   18c10:	001dc603          	lbu	a2,1(s11)
   18c14:	00088d1b          	sext.w	s10,a7
   18c18:	0d85                	addi	s11,s11,1
   18c1a:	dd0ff06f          	j	181ea <_vfiprintf_r+0x110>
   18c1e:	000c861b          	sext.w	a2,s9
   18c22:	4799                	li	a5,6
   18c24:	86e6                	mv	a3,s9
   18c26:	06c7eb63          	bltu	a5,a2,18c9c <_vfiprintf_r+0xbc2>
   18c2a:	00068b1b          	sext.w	s6,a3
   18c2e:	8a5a                	mv	s4,s6
   18c30:	e45e                	sd	s7,8(sp)
   18c32:	00003c17          	auipc	s8,0x3
   18c36:	67ec0c13          	addi	s8,s8,1662 # 1c2b0 <zeroes.4541+0x90>
   18c3a:	f1cff06f          	j	18356 <_vfiprintf_r+0x27c>
   18c3e:	200d7793          	andi	a5,s10,512
   18c42:	c3d5                	beqz	a5,18ce6 <_vfiprintf_r+0xc0c>
   18c44:	0ffa7a13          	andi	s4,s4,255
   18c48:	e60ff06f          	j	182a8 <_vfiprintf_r+0x1ce>
   18c4c:	200d7793          	andi	a5,s10,512
   18c50:	c7c1                	beqz	a5,18cd8 <_vfiprintf_r+0xbfe>
   18c52:	67a2                	ld	a5,8(sp)
   18c54:	8e6a                	mv	t3,s10
   18c56:	e432                	sd	a2,8(sp)
   18c58:	00078a03          	lb	s4,0(a5)
   18c5c:	87d2                	mv	a5,s4
   18c5e:	b289                	j	185a0 <_vfiprintf_r+0x4c6>
   18c60:	200d7613          	andi	a2,s10,512
   18c64:	c625                	beqz	a2,18ccc <_vfiprintf_r+0xbf2>
   18c66:	0ffa7a13          	andi	s4,s4,255
   18c6a:	88ea                	mv	a7,s10
   18c6c:	e43e                	sd	a5,8(sp)
   18c6e:	ba09                	j	18580 <_vfiprintf_r+0x4a6>
   18c70:	200d7793          	andi	a5,s10,512
   18c74:	c7a1                	beqz	a5,18cbc <_vfiprintf_r+0xbe2>
   18c76:	0ffa7a13          	andi	s4,s4,255
   18c7a:	e432                	sd	a2,8(sp)
   18c7c:	8e6a                	mv	t3,s10
   18c7e:	4785                	li	a5,1
   18c80:	e52ff06f          	j	182d2 <_vfiprintf_r+0x1f8>
   18c84:	862e                	mv	a2,a1
   18c86:	00004b97          	auipc	s7,0x4
   18c8a:	d2ab8b93          	addi	s7,s7,-726 # 1c9b0 <zeroes.4517>
   18c8e:	b999                	j	188e4 <_vfiprintf_r+0x80a>
   18c90:	198c                	addi	a1,sp,240
   18c92:	4505                	li	a0,1
   18c94:	4601                	li	a2,0
   18c96:	8722                	mv	a4,s0
   18c98:	f52ff06f          	j	183ea <_vfiprintf_r+0x310>
   18c9c:	4699                	li	a3,6
   18c9e:	b771                	j	18c2a <_vfiprintf_r+0xb50>
   18ca0:	05710793          	addi	a5,sp,87
   18ca4:	f1be                	sd	a5,224(sp)
   18ca6:	4785                	li	a5,1
   18ca8:	f5be                	sd	a5,232(sp)
   18caa:	4505                	li	a0,1
   18cac:	198c                	addi	a1,sp,240
   18cae:	ef2ff06f          	j	183a0 <_vfiprintf_r+0x2c6>
   18cb2:	6782                	ld	a5,0(sp)
   18cb4:	00f69023          	sh	a5,0(a3)
   18cb8:	cb2ff06f          	j	1816a <_vfiprintf_r+0x90>
   18cbc:	1a02                	slli	s4,s4,0x20
   18cbe:	020a5a13          	srli	s4,s4,0x20
   18cc2:	e432                	sd	a2,8(sp)
   18cc4:	8e6a                	mv	t3,s10
   18cc6:	4785                	li	a5,1
   18cc8:	e0aff06f          	j	182d2 <_vfiprintf_r+0x1f8>
   18ccc:	1a02                	slli	s4,s4,0x20
   18cce:	020a5a13          	srli	s4,s4,0x20
   18cd2:	88ea                	mv	a7,s10
   18cd4:	e43e                	sd	a5,8(sp)
   18cd6:	b06d                	j	18580 <_vfiprintf_r+0x4a6>
   18cd8:	67a2                	ld	a5,8(sp)
   18cda:	8e6a                	mv	t3,s10
   18cdc:	e432                	sd	a2,8(sp)
   18cde:	0007aa03          	lw	s4,0(a5)
   18ce2:	87d2                	mv	a5,s4
   18ce4:	b875                	j	185a0 <_vfiprintf_r+0x4c6>
   18ce6:	1a02                	slli	s4,s4,0x20
   18ce8:	020a5a13          	srli	s4,s4,0x20
   18cec:	dbcff06f          	j	182a8 <_vfiprintf_r+0x1ce>
   18cf0:	8e6a                	mv	t3,s10
   18cf2:	b0f1                	j	185be <_vfiprintf_r+0x4e4>
   18cf4:	8b66                	mv	s6,s9
   18cf6:	e45e                	sd	s7,8(sp)
   18cf8:	4c81                	li	s9,0
   18cfa:	e02ff06f          	j	182fc <_vfiprintf_r+0x222>
   18cfe:	00004f17          	auipc	t5,0x4
   18d02:	ca2f0f13          	addi	t5,t5,-862 # 1c9a0 <blanks.4516>
   18d06:	b9e1                	j	189de <_vfiprintf_r+0x904>
   18d08:	0016871b          	addiw	a4,a3,1
   18d0c:	00004f17          	auipc	t5,0x4
   18d10:	c94f0f13          	addi	t5,t5,-876 # 1c9a0 <blanks.4516>
   18d14:	b38d                	j	18a76 <_vfiprintf_r+0x99c>
   18d16:	8f2e                	mv	t5,a1
   18d18:	82aa                	mv	t0,a0
   18d1a:	00004b97          	auipc	s7,0x4
   18d1e:	c96b8b93          	addi	s7,s7,-874 # 1c9b0 <zeroes.4517>
   18d22:	b62d                	j	1884c <_vfiprintf_r+0x772>
   18d24:	57fd                	li	a5,-1
   18d26:	e03e                	sd	a5,0(sp)
   18d28:	d44ff06f          	j	1826c <_vfiprintf_r+0x192>
   18d2c:	c29c                	sw	a5,0(a3)
   18d2e:	c3cff06f          	j	1816a <_vfiprintf_r+0x90>
   18d32:	6622                	ld	a2,8(sp)
   18d34:	4214                	lw	a3,0(a2)
   18d36:	00860b93          	addi	s7,a2,8
   18d3a:	0006d363          	bgez	a3,18d40 <_vfiprintf_r+0xc66>
   18d3e:	56fd                	li	a3,-1
   18d40:	001dc603          	lbu	a2,1(s11)
   18d44:	8cb6                	mv	s9,a3
   18d46:	e45e                	sd	s7,8(sp)
   18d48:	8dbe                	mv	s11,a5
   18d4a:	ca0ff06f          	j	181ea <_vfiprintf_r+0x110>

0000000000018d4e <vfiprintf>:
   18d4e:	75818793          	addi	a5,gp,1880 # 1eef8 <_impure_ptr>
   18d52:	86b2                	mv	a3,a2
   18d54:	862e                	mv	a2,a1
   18d56:	85aa                	mv	a1,a0
   18d58:	6388                	ld	a0,0(a5)
   18d5a:	b80ff06f          	j	180da <_vfiprintf_r>

0000000000018d5e <__sbprintf>:
   18d5e:	0105d783          	lhu	a5,16(a1)
   18d62:	0ac5ae03          	lw	t3,172(a1)
   18d66:	0125d303          	lhu	t1,18(a1)
   18d6a:	0305b883          	ld	a7,48(a1)
   18d6e:	0405b803          	ld	a6,64(a1)
   18d72:	b3010113          	addi	sp,sp,-1232
   18d76:	9bf5                	andi	a5,a5,-3
   18d78:	40000713          	li	a4,1024
   18d7c:	4c813023          	sd	s0,1216(sp)
   18d80:	00f11823          	sh	a5,16(sp)
   18d84:	842e                	mv	s0,a1
   18d86:	191c                	addi	a5,sp,176
   18d88:	858a                	mv	a1,sp
   18d8a:	4a913c23          	sd	s1,1208(sp)
   18d8e:	4b213823          	sd	s2,1200(sp)
   18d92:	4c113423          	sd	ra,1224(sp)
   18d96:	892a                	mv	s2,a0
   18d98:	d772                	sw	t3,172(sp)
   18d9a:	00611923          	sh	t1,18(sp)
   18d9e:	f846                	sd	a7,48(sp)
   18da0:	e0c2                	sd	a6,64(sp)
   18da2:	e03e                	sd	a5,0(sp)
   18da4:	ec3e                	sd	a5,24(sp)
   18da6:	c63a                	sw	a4,12(sp)
   18da8:	d03a                	sw	a4,32(sp)
   18daa:	d402                	sw	zero,40(sp)
   18dac:	b2eff0ef          	jal	ra,180da <_vfiprintf_r>
   18db0:	84aa                	mv	s1,a0
   18db2:	02055963          	bgez	a0,18de4 <__sbprintf+0x86>
   18db6:	01015783          	lhu	a5,16(sp)
   18dba:	0407f793          	andi	a5,a5,64
   18dbe:	c799                	beqz	a5,18dcc <__sbprintf+0x6e>
   18dc0:	01045783          	lhu	a5,16(s0)
   18dc4:	0407e793          	ori	a5,a5,64
   18dc8:	00f41823          	sh	a5,16(s0)
   18dcc:	4c813083          	ld	ra,1224(sp)
   18dd0:	4c013403          	ld	s0,1216(sp)
   18dd4:	8526                	mv	a0,s1
   18dd6:	4b013903          	ld	s2,1200(sp)
   18dda:	4b813483          	ld	s1,1208(sp)
   18dde:	4d010113          	addi	sp,sp,1232
   18de2:	8082                	ret
   18de4:	858a                	mv	a1,sp
   18de6:	854a                	mv	a0,s2
   18de8:	dc2f90ef          	jal	ra,123aa <_fflush_r>
   18dec:	d569                	beqz	a0,18db6 <__sbprintf+0x58>
   18dee:	54fd                	li	s1,-1
   18df0:	b7d9                	j	18db6 <__sbprintf+0x58>

0000000000018df2 <_wctomb_r>:
   18df2:	d6018793          	addi	a5,gp,-672 # 1e500 <__global_locale>
   18df6:	0e07b303          	ld	t1,224(a5)
   18dfa:	8302                	jr	t1

0000000000018dfc <__ascii_wctomb>:
   18dfc:	0006079b          	sext.w	a5,a2
   18e00:	cd91                	beqz	a1,18e1c <__ascii_wctomb+0x20>
   18e02:	0ff00713          	li	a4,255
   18e06:	00f76663          	bltu	a4,a5,18e12 <__ascii_wctomb+0x16>
   18e0a:	00c58023          	sb	a2,0(a1)
   18e0e:	4505                	li	a0,1
   18e10:	8082                	ret
   18e12:	08a00793          	li	a5,138
   18e16:	c11c                	sw	a5,0(a0)
   18e18:	557d                	li	a0,-1
   18e1a:	8082                	ret
   18e1c:	4501                	li	a0,0
   18e1e:	8082                	ret

0000000000018e20 <_write_r>:
   18e20:	87ae                	mv	a5,a1
   18e22:	1141                	addi	sp,sp,-16
   18e24:	e022                	sd	s0,0(sp)
   18e26:	85b2                	mv	a1,a2
   18e28:	842a                	mv	s0,a0
   18e2a:	8636                	mv	a2,a3
   18e2c:	853e                	mv	a0,a5
   18e2e:	e406                	sd	ra,8(sp)
   18e30:	00006797          	auipc	a5,0x6
   18e34:	1607a423          	sw	zero,360(a5) # 1ef98 <errno>
   18e38:	59f010ef          	jal	ra,1abd6 <_write>
   18e3c:	57fd                	li	a5,-1
   18e3e:	00f50663          	beq	a0,a5,18e4a <_write_r+0x2a>
   18e42:	60a2                	ld	ra,8(sp)
   18e44:	6402                	ld	s0,0(sp)
   18e46:	0141                	addi	sp,sp,16
   18e48:	8082                	ret
   18e4a:	00006797          	auipc	a5,0x6
   18e4e:	14e78793          	addi	a5,a5,334 # 1ef98 <errno>
   18e52:	439c                	lw	a5,0(a5)
   18e54:	d7fd                	beqz	a5,18e42 <_write_r+0x22>
   18e56:	c01c                	sw	a5,0(s0)
   18e58:	60a2                	ld	ra,8(sp)
   18e5a:	6402                	ld	s0,0(sp)
   18e5c:	0141                	addi	sp,sp,16
   18e5e:	8082                	ret

0000000000018e60 <_calloc_r>:
   18e60:	02c585b3          	mul	a1,a1,a2
   18e64:	1141                	addi	sp,sp,-16
   18e66:	e022                	sd	s0,0(sp)
   18e68:	e406                	sd	ra,8(sp)
   18e6a:	eb3fb0ef          	jal	ra,14d1c <_malloc_r>
   18e6e:	842a                	mv	s0,a0
   18e70:	c505                	beqz	a0,18e98 <_calloc_r+0x38>
   18e72:	ff853603          	ld	a2,-8(a0)
   18e76:	04800713          	li	a4,72
   18e7a:	9a71                	andi	a2,a2,-4
   18e7c:	1661                	addi	a2,a2,-8
   18e7e:	04c76963          	bltu	a4,a2,18ed0 <_calloc_r+0x70>
   18e82:	02700693          	li	a3,39
   18e86:	87aa                	mv	a5,a0
   18e88:	00c6ed63          	bltu	a3,a2,18ea2 <_calloc_r+0x42>
   18e8c:	0007b023          	sd	zero,0(a5)
   18e90:	0007b423          	sd	zero,8(a5)
   18e94:	0007b823          	sd	zero,16(a5)
   18e98:	8522                	mv	a0,s0
   18e9a:	60a2                	ld	ra,8(sp)
   18e9c:	6402                	ld	s0,0(sp)
   18e9e:	0141                	addi	sp,sp,16
   18ea0:	8082                	ret
   18ea2:	00053023          	sd	zero,0(a0)
   18ea6:	00053423          	sd	zero,8(a0)
   18eaa:	03700793          	li	a5,55
   18eae:	02c7f963          	bgeu	a5,a2,18ee0 <_calloc_r+0x80>
   18eb2:	00053823          	sd	zero,16(a0)
   18eb6:	00053c23          	sd	zero,24(a0)
   18eba:	02050793          	addi	a5,a0,32
   18ebe:	fce617e3          	bne	a2,a4,18e8c <_calloc_r+0x2c>
   18ec2:	02053023          	sd	zero,32(a0)
   18ec6:	03050793          	addi	a5,a0,48
   18eca:	02053423          	sd	zero,40(a0)
   18ece:	bf7d                	j	18e8c <_calloc_r+0x2c>
   18ed0:	4581                	li	a1,0
   18ed2:	b72f70ef          	jal	ra,10244 <memset>
   18ed6:	8522                	mv	a0,s0
   18ed8:	60a2                	ld	ra,8(sp)
   18eda:	6402                	ld	s0,0(sp)
   18edc:	0141                	addi	sp,sp,16
   18ede:	8082                	ret
   18ee0:	01050793          	addi	a5,a0,16
   18ee4:	b765                	j	18e8c <_calloc_r+0x2c>

0000000000018ee6 <_close_r>:
   18ee6:	1141                	addi	sp,sp,-16
   18ee8:	e022                	sd	s0,0(sp)
   18eea:	842a                	mv	s0,a0
   18eec:	852e                	mv	a0,a1
   18eee:	00006797          	auipc	a5,0x6
   18ef2:	0a07a523          	sw	zero,170(a5) # 1ef98 <errno>
   18ef6:	e406                	sd	ra,8(sp)
   18ef8:	341010ef          	jal	ra,1aa38 <_close>
   18efc:	57fd                	li	a5,-1
   18efe:	00f50663          	beq	a0,a5,18f0a <_close_r+0x24>
   18f02:	60a2                	ld	ra,8(sp)
   18f04:	6402                	ld	s0,0(sp)
   18f06:	0141                	addi	sp,sp,16
   18f08:	8082                	ret
   18f0a:	00006797          	auipc	a5,0x6
   18f0e:	08e78793          	addi	a5,a5,142 # 1ef98 <errno>
   18f12:	439c                	lw	a5,0(a5)
   18f14:	d7fd                	beqz	a5,18f02 <_close_r+0x1c>
   18f16:	c01c                	sw	a5,0(s0)
   18f18:	60a2                	ld	ra,8(sp)
   18f1a:	6402                	ld	s0,0(sp)
   18f1c:	0141                	addi	sp,sp,16
   18f1e:	8082                	ret

0000000000018f20 <_fclose_r>:
   18f20:	1101                	addi	sp,sp,-32
   18f22:	ec06                	sd	ra,24(sp)
   18f24:	e822                	sd	s0,16(sp)
   18f26:	e426                	sd	s1,8(sp)
   18f28:	e04a                	sd	s2,0(sp)
   18f2a:	c989                	beqz	a1,18f3c <_fclose_r+0x1c>
   18f2c:	84aa                	mv	s1,a0
   18f2e:	842e                	mv	s0,a1
   18f30:	c119                	beqz	a0,18f36 <_fclose_r+0x16>
   18f32:	493c                	lw	a5,80(a0)
   18f34:	cfa5                	beqz	a5,18fac <_fclose_r+0x8c>
   18f36:	01041783          	lh	a5,16(s0)
   18f3a:	eb89                	bnez	a5,18f4c <_fclose_r+0x2c>
   18f3c:	60e2                	ld	ra,24(sp)
   18f3e:	6442                	ld	s0,16(sp)
   18f40:	4901                	li	s2,0
   18f42:	854a                	mv	a0,s2
   18f44:	64a2                	ld	s1,8(sp)
   18f46:	6902                	ld	s2,0(sp)
   18f48:	6105                	addi	sp,sp,32
   18f4a:	8082                	ret
   18f4c:	85a2                	mv	a1,s0
   18f4e:	8526                	mv	a0,s1
   18f50:	ac4f90ef          	jal	ra,12214 <__sflush_r>
   18f54:	683c                	ld	a5,80(s0)
   18f56:	892a                	mv	s2,a0
   18f58:	c791                	beqz	a5,18f64 <_fclose_r+0x44>
   18f5a:	780c                	ld	a1,48(s0)
   18f5c:	8526                	mv	a0,s1
   18f5e:	9782                	jalr	a5
   18f60:	04054c63          	bltz	a0,18fb8 <_fclose_r+0x98>
   18f64:	01045783          	lhu	a5,16(s0)
   18f68:	0807f793          	andi	a5,a5,128
   18f6c:	efa1                	bnez	a5,18fc4 <_fclose_r+0xa4>
   18f6e:	6c2c                	ld	a1,88(s0)
   18f70:	c991                	beqz	a1,18f84 <_fclose_r+0x64>
   18f72:	07440793          	addi	a5,s0,116
   18f76:	00f58563          	beq	a1,a5,18f80 <_fclose_r+0x60>
   18f7a:	8526                	mv	a0,s1
   18f7c:	fd6f90ef          	jal	ra,12752 <_free_r>
   18f80:	04043c23          	sd	zero,88(s0)
   18f84:	7c2c                	ld	a1,120(s0)
   18f86:	c591                	beqz	a1,18f92 <_fclose_r+0x72>
   18f88:	8526                	mv	a0,s1
   18f8a:	fc8f90ef          	jal	ra,12752 <_free_r>
   18f8e:	06043c23          	sd	zero,120(s0)
   18f92:	ec0f90ef          	jal	ra,12652 <__sfp_lock_acquire>
   18f96:	00041823          	sh	zero,16(s0)
   18f9a:	ebaf90ef          	jal	ra,12654 <__sfp_lock_release>
   18f9e:	60e2                	ld	ra,24(sp)
   18fa0:	6442                	ld	s0,16(sp)
   18fa2:	854a                	mv	a0,s2
   18fa4:	64a2                	ld	s1,8(sp)
   18fa6:	6902                	ld	s2,0(sp)
   18fa8:	6105                	addi	sp,sp,32
   18faa:	8082                	ret
   18fac:	e9ef90ef          	jal	ra,1264a <__sinit>
   18fb0:	01041783          	lh	a5,16(s0)
   18fb4:	d7c1                	beqz	a5,18f3c <_fclose_r+0x1c>
   18fb6:	bf59                	j	18f4c <_fclose_r+0x2c>
   18fb8:	01045783          	lhu	a5,16(s0)
   18fbc:	597d                	li	s2,-1
   18fbe:	0807f793          	andi	a5,a5,128
   18fc2:	d7d5                	beqz	a5,18f6e <_fclose_r+0x4e>
   18fc4:	6c0c                	ld	a1,24(s0)
   18fc6:	8526                	mv	a0,s1
   18fc8:	f8af90ef          	jal	ra,12752 <_free_r>
   18fcc:	b74d                	j	18f6e <_fclose_r+0x4e>

0000000000018fce <fclose>:
   18fce:	75818793          	addi	a5,gp,1880 # 1eef8 <_impure_ptr>
   18fd2:	85aa                	mv	a1,a0
   18fd4:	6388                	ld	a0,0(a5)
   18fd6:	b7a9                	j	18f20 <_fclose_r>

0000000000018fd8 <__fputwc>:
   18fd8:	715d                	addi	sp,sp,-80
   18fda:	e0a2                	sd	s0,64(sp)
   18fdc:	f84a                	sd	s2,48(sp)
   18fde:	f44e                	sd	s3,40(sp)
   18fe0:	e486                	sd	ra,72(sp)
   18fe2:	fc26                	sd	s1,56(sp)
   18fe4:	f052                	sd	s4,32(sp)
   18fe6:	ec56                	sd	s5,24(sp)
   18fe8:	e85a                	sd	s6,16(sp)
   18fea:	892a                	mv	s2,a0
   18fec:	89ae                	mv	s3,a1
   18fee:	8432                	mv	s0,a2
   18ff0:	bddfb0ef          	jal	ra,14bcc <__locale_mb_cur_max>
   18ff4:	4785                	li	a5,1
   18ff6:	00f51e63          	bne	a0,a5,19012 <__fputwc+0x3a>
   18ffa:	fff9879b          	addiw	a5,s3,-1
   18ffe:	0fe00713          	li	a4,254
   19002:	00f76863          	bltu	a4,a5,19012 <__fputwc+0x3a>
   19006:	0ff9f713          	andi	a4,s3,255
   1900a:	00e10423          	sb	a4,8(sp)
   1900e:	4a85                	li	s5,1
   19010:	a839                	j	1902e <__fputwc+0x56>
   19012:	0a440693          	addi	a3,s0,164
   19016:	864e                	mv	a2,s3
   19018:	002c                	addi	a1,sp,8
   1901a:	854a                	mv	a0,s2
   1901c:	183010ef          	jal	ra,1a99e <_wcrtomb_r>
   19020:	57fd                	li	a5,-1
   19022:	8aaa                	mv	s5,a0
   19024:	06f50563          	beq	a0,a5,1908e <__fputwc+0xb6>
   19028:	c125                	beqz	a0,19088 <__fputwc+0xb0>
   1902a:	00814703          	lbu	a4,8(sp)
   1902e:	4481                	li	s1,0
   19030:	5a7d                	li	s4,-1
   19032:	4b29                	li	s6,10
   19034:	a831                	j	19050 <__fputwc+0x78>
   19036:	601c                	ld	a5,0(s0)
   19038:	00178693          	addi	a3,a5,1
   1903c:	e014                	sd	a3,0(s0)
   1903e:	00e78023          	sb	a4,0(a5)
   19042:	0485                	addi	s1,s1,1
   19044:	003c                	addi	a5,sp,8
   19046:	97a6                	add	a5,a5,s1
   19048:	0554f063          	bgeu	s1,s5,19088 <__fputwc+0xb0>
   1904c:	0007c703          	lbu	a4,0(a5)
   19050:	445c                	lw	a5,12(s0)
   19052:	37fd                	addiw	a5,a5,-1
   19054:	c45c                	sw	a5,12(s0)
   19056:	fe07d0e3          	bgez	a5,19036 <__fputwc+0x5e>
   1905a:	5414                	lw	a3,40(s0)
   1905c:	85ba                	mv	a1,a4
   1905e:	8622                	mv	a2,s0
   19060:	854a                	mv	a0,s2
   19062:	00d7c463          	blt	a5,a3,1906a <__fputwc+0x92>
   19066:	fd6718e3          	bne	a4,s6,19036 <__fputwc+0x5e>
   1906a:	02b010ef          	jal	ra,1a894 <__swbuf_r>
   1906e:	fd451ae3          	bne	a0,s4,19042 <__fputwc+0x6a>
   19072:	557d                	li	a0,-1
   19074:	60a6                	ld	ra,72(sp)
   19076:	6406                	ld	s0,64(sp)
   19078:	74e2                	ld	s1,56(sp)
   1907a:	7942                	ld	s2,48(sp)
   1907c:	79a2                	ld	s3,40(sp)
   1907e:	7a02                	ld	s4,32(sp)
   19080:	6ae2                	ld	s5,24(sp)
   19082:	6b42                	ld	s6,16(sp)
   19084:	6161                	addi	sp,sp,80
   19086:	8082                	ret
   19088:	0009851b          	sext.w	a0,s3
   1908c:	b7e5                	j	19074 <__fputwc+0x9c>
   1908e:	01045783          	lhu	a5,16(s0)
   19092:	557d                	li	a0,-1
   19094:	0407e793          	ori	a5,a5,64
   19098:	00f41823          	sh	a5,16(s0)
   1909c:	bfe1                	j	19074 <__fputwc+0x9c>

000000000001909e <_fputwc_r>:
   1909e:	01061783          	lh	a5,16(a2)
   190a2:	03279713          	slli	a4,a5,0x32
   190a6:	00074c63          	bltz	a4,190be <_fputwc_r+0x20>
   190aa:	0ac62703          	lw	a4,172(a2)
   190ae:	6689                	lui	a3,0x2
   190b0:	8fd5                	or	a5,a5,a3
   190b2:	6689                	lui	a3,0x2
   190b4:	8f55                	or	a4,a4,a3
   190b6:	00f61823          	sh	a5,16(a2)
   190ba:	0ae62623          	sw	a4,172(a2)
   190be:	bf29                	j	18fd8 <__fputwc>

00000000000190c0 <fputwc>:
   190c0:	7179                	addi	sp,sp,-48
   190c2:	75818793          	addi	a5,gp,1880 # 1eef8 <_impure_ptr>
   190c6:	f022                	sd	s0,32(sp)
   190c8:	6380                	ld	s0,0(a5)
   190ca:	ec26                	sd	s1,24(sp)
   190cc:	f406                	sd	ra,40(sp)
   190ce:	84aa                	mv	s1,a0
   190d0:	862e                	mv	a2,a1
   190d2:	c019                	beqz	s0,190d8 <fputwc+0x18>
   190d4:	483c                	lw	a5,80(s0)
   190d6:	cb85                	beqz	a5,19106 <fputwc+0x46>
   190d8:	01061783          	lh	a5,16(a2)
   190dc:	03279713          	slli	a4,a5,0x32
   190e0:	00074c63          	bltz	a4,190f8 <fputwc+0x38>
   190e4:	0ac62703          	lw	a4,172(a2)
   190e8:	6689                	lui	a3,0x2
   190ea:	8fd5                	or	a5,a5,a3
   190ec:	6689                	lui	a3,0x2
   190ee:	8f55                	or	a4,a4,a3
   190f0:	00f61823          	sh	a5,16(a2)
   190f4:	0ae62623          	sw	a4,172(a2)
   190f8:	8522                	mv	a0,s0
   190fa:	7402                	ld	s0,32(sp)
   190fc:	70a2                	ld	ra,40(sp)
   190fe:	85a6                	mv	a1,s1
   19100:	64e2                	ld	s1,24(sp)
   19102:	6145                	addi	sp,sp,48
   19104:	bdd1                	j	18fd8 <__fputwc>
   19106:	8522                	mv	a0,s0
   19108:	e42e                	sd	a1,8(sp)
   1910a:	d40f90ef          	jal	ra,1264a <__sinit>
   1910e:	6622                	ld	a2,8(sp)
   19110:	b7e1                	j	190d8 <fputwc+0x18>

0000000000019112 <_fstat_r>:
   19112:	87ae                	mv	a5,a1
   19114:	1141                	addi	sp,sp,-16
   19116:	e022                	sd	s0,0(sp)
   19118:	85b2                	mv	a1,a2
   1911a:	842a                	mv	s0,a0
   1911c:	853e                	mv	a0,a5
   1911e:	e406                	sd	ra,8(sp)
   19120:	00006797          	auipc	a5,0x6
   19124:	e607ac23          	sw	zero,-392(a5) # 1ef98 <errno>
   19128:	173010ef          	jal	ra,1aa9a <_fstat>
   1912c:	57fd                	li	a5,-1
   1912e:	00f50663          	beq	a0,a5,1913a <_fstat_r+0x28>
   19132:	60a2                	ld	ra,8(sp)
   19134:	6402                	ld	s0,0(sp)
   19136:	0141                	addi	sp,sp,16
   19138:	8082                	ret
   1913a:	00006797          	auipc	a5,0x6
   1913e:	e5e78793          	addi	a5,a5,-418 # 1ef98 <errno>
   19142:	439c                	lw	a5,0(a5)
   19144:	d7fd                	beqz	a5,19132 <_fstat_r+0x20>
   19146:	c01c                	sw	a5,0(s0)
   19148:	60a2                	ld	ra,8(sp)
   1914a:	6402                	ld	s0,0(sp)
   1914c:	0141                	addi	sp,sp,16
   1914e:	8082                	ret

0000000000019150 <__sfvwrite_r>:
   19150:	6a1c                	ld	a5,16(a2)
   19152:	1a078e63          	beqz	a5,1930e <__sfvwrite_r+0x1be>
   19156:	0105d783          	lhu	a5,16(a1)
   1915a:	711d                	addi	sp,sp,-96
   1915c:	e8a2                	sd	s0,80(sp)
   1915e:	f852                	sd	s4,48(sp)
   19160:	f456                	sd	s5,40(sp)
   19162:	ec86                	sd	ra,88(sp)
   19164:	e4a6                	sd	s1,72(sp)
   19166:	e0ca                	sd	s2,64(sp)
   19168:	fc4e                	sd	s3,56(sp)
   1916a:	f05a                	sd	s6,32(sp)
   1916c:	ec5e                	sd	s7,24(sp)
   1916e:	e862                	sd	s8,16(sp)
   19170:	e466                	sd	s9,8(sp)
   19172:	e06a                	sd	s10,0(sp)
   19174:	0087f713          	andi	a4,a5,8
   19178:	842e                	mv	s0,a1
   1917a:	8aaa                	mv	s5,a0
   1917c:	8a32                	mv	s4,a2
   1917e:	c335                	beqz	a4,191e2 <__sfvwrite_r+0x92>
   19180:	6d98                	ld	a4,24(a1)
   19182:	c325                	beqz	a4,191e2 <__sfvwrite_r+0x92>
   19184:	0027f713          	andi	a4,a5,2
   19188:	000a3903          	ld	s2,0(s4)
   1918c:	cb25                	beqz	a4,191fc <__sfvwrite_r+0xac>
   1918e:	6038                	ld	a4,64(s0)
   19190:	781c                	ld	a5,48(s0)
   19192:	80000b37          	lui	s6,0x80000
   19196:	4981                	li	s3,0
   19198:	4481                	li	s1,0
   1919a:	c00b4b13          	xori	s6,s6,-1024
   1919e:	864e                	mv	a2,s3
   191a0:	85be                	mv	a1,a5
   191a2:	8556                	mv	a0,s5
   191a4:	c88d                	beqz	s1,191d6 <__sfvwrite_r+0x86>
   191a6:	86a6                	mv	a3,s1
   191a8:	009b7363          	bgeu	s6,s1,191ae <__sfvwrite_r+0x5e>
   191ac:	86da                	mv	a3,s6
   191ae:	2681                	sext.w	a3,a3
   191b0:	9702                	jalr	a4
   191b2:	14a05663          	blez	a0,192fe <__sfvwrite_r+0x1ae>
   191b6:	010a3783          	ld	a5,16(s4)
   191ba:	99aa                	add	s3,s3,a0
   191bc:	8c89                	sub	s1,s1,a0
   191be:	40a78533          	sub	a0,a5,a0
   191c2:	00aa3823          	sd	a0,16(s4)
   191c6:	10050863          	beqz	a0,192d6 <__sfvwrite_r+0x186>
   191ca:	781c                	ld	a5,48(s0)
   191cc:	6038                	ld	a4,64(s0)
   191ce:	864e                	mv	a2,s3
   191d0:	85be                	mv	a1,a5
   191d2:	8556                	mv	a0,s5
   191d4:	f8e9                	bnez	s1,191a6 <__sfvwrite_r+0x56>
   191d6:	00093983          	ld	s3,0(s2)
   191da:	00893483          	ld	s1,8(s2)
   191de:	0941                	addi	s2,s2,16
   191e0:	bf7d                	j	1919e <__sfvwrite_r+0x4e>
   191e2:	85a2                	mv	a1,s0
   191e4:	8556                	mv	a0,s5
   191e6:	e01f80ef          	jal	ra,11fe6 <__swsetup_r>
   191ea:	28051763          	bnez	a0,19478 <__sfvwrite_r+0x328>
   191ee:	01045783          	lhu	a5,16(s0)
   191f2:	000a3903          	ld	s2,0(s4)
   191f6:	0027f713          	andi	a4,a5,2
   191fa:	fb51                	bnez	a4,1918e <__sfvwrite_r+0x3e>
   191fc:	0017f713          	andi	a4,a5,1
   19200:	eb35                	bnez	a4,19274 <__sfvwrite_r+0x124>
   19202:	4444                	lw	s1,12(s0)
   19204:	6008                	ld	a0,0(s0)
   19206:	80000b37          	lui	s6,0x80000
   1920a:	ffeb4b93          	xori	s7,s6,-2
   1920e:	4c01                	li	s8,0
   19210:	4981                	li	s3,0
   19212:	fffb4b13          	not	s6,s6
   19216:	8ca6                	mv	s9,s1
   19218:	04098863          	beqz	s3,19268 <__sfvwrite_r+0x118>
   1921c:	2007f713          	andi	a4,a5,512
   19220:	12070963          	beqz	a4,19352 <__sfvwrite_r+0x202>
   19224:	8d26                	mv	s10,s1
   19226:	1899f663          	bgeu	s3,s1,193b2 <__sfvwrite_r+0x262>
   1922a:	8cce                	mv	s9,s3
   1922c:	8d4e                	mv	s10,s3
   1922e:	866a                	mv	a2,s10
   19230:	85e2                	mv	a1,s8
   19232:	3a6000ef          	jal	ra,195d8 <memmove>
   19236:	445c                	lw	a5,12(s0)
   19238:	6010                	ld	a2,0(s0)
   1923a:	84ce                	mv	s1,s3
   1923c:	41978cbb          	subw	s9,a5,s9
   19240:	966a                	add	a2,a2,s10
   19242:	01942623          	sw	s9,12(s0)
   19246:	e010                	sd	a2,0(s0)
   19248:	4981                	li	s3,0
   1924a:	010a3783          	ld	a5,16(s4)
   1924e:	9c26                	add	s8,s8,s1
   19250:	409784b3          	sub	s1,a5,s1
   19254:	009a3823          	sd	s1,16(s4)
   19258:	ccbd                	beqz	s1,192d6 <__sfvwrite_r+0x186>
   1925a:	4444                	lw	s1,12(s0)
   1925c:	6008                	ld	a0,0(s0)
   1925e:	01045783          	lhu	a5,16(s0)
   19262:	8ca6                	mv	s9,s1
   19264:	fa099ce3          	bnez	s3,1921c <__sfvwrite_r+0xcc>
   19268:	00093c03          	ld	s8,0(s2)
   1926c:	00893983          	ld	s3,8(s2)
   19270:	0941                	addi	s2,s2,16
   19272:	b755                	j	19216 <__sfvwrite_r+0xc6>
   19274:	4981                	li	s3,0
   19276:	4501                	li	a0,0
   19278:	4c81                	li	s9,0
   1927a:	4481                	li	s1,0
   1927c:	c8d9                	beqz	s1,19312 <__sfvwrite_r+0x1c2>
   1927e:	c145                	beqz	a0,1931e <__sfvwrite_r+0x1ce>
   19280:	8c4e                	mv	s8,s3
   19282:	0134f363          	bgeu	s1,s3,19288 <__sfvwrite_r+0x138>
   19286:	8c26                	mv	s8,s1
   19288:	6008                	ld	a0,0(s0)
   1928a:	6c1c                	ld	a5,24(s0)
   1928c:	8b62                	mv	s6,s8
   1928e:	5014                	lw	a3,32(s0)
   19290:	00a7f763          	bgeu	a5,a0,1929e <__sfvwrite_r+0x14e>
   19294:	4450                	lw	a2,12(s0)
   19296:	00d60bbb          	addw	s7,a2,a3
   1929a:	098bcd63          	blt	s7,s8,19334 <__sfvwrite_r+0x1e4>
   1929e:	18dc4463          	blt	s8,a3,19426 <__sfvwrite_r+0x2d6>
   192a2:	603c                	ld	a5,64(s0)
   192a4:	780c                	ld	a1,48(s0)
   192a6:	8666                	mv	a2,s9
   192a8:	8556                	mv	a0,s5
   192aa:	9782                	jalr	a5
   192ac:	8b2a                	mv	s6,a0
   192ae:	04a05863          	blez	a0,192fe <__sfvwrite_r+0x1ae>
   192b2:	0005061b          	sext.w	a2,a0
   192b6:	40c989bb          	subw	s3,s3,a2
   192ba:	4505                	li	a0,1
   192bc:	02098c63          	beqz	s3,192f4 <__sfvwrite_r+0x1a4>
   192c0:	010a3783          	ld	a5,16(s4)
   192c4:	9cda                	add	s9,s9,s6
   192c6:	416484b3          	sub	s1,s1,s6
   192ca:	41678b33          	sub	s6,a5,s6
   192ce:	016a3823          	sd	s6,16(s4)
   192d2:	fa0b15e3          	bnez	s6,1927c <__sfvwrite_r+0x12c>
   192d6:	4501                	li	a0,0
   192d8:	60e6                	ld	ra,88(sp)
   192da:	6446                	ld	s0,80(sp)
   192dc:	64a6                	ld	s1,72(sp)
   192de:	6906                	ld	s2,64(sp)
   192e0:	79e2                	ld	s3,56(sp)
   192e2:	7a42                	ld	s4,48(sp)
   192e4:	7aa2                	ld	s5,40(sp)
   192e6:	7b02                	ld	s6,32(sp)
   192e8:	6be2                	ld	s7,24(sp)
   192ea:	6c42                	ld	s8,16(sp)
   192ec:	6ca2                	ld	s9,8(sp)
   192ee:	6d02                	ld	s10,0(sp)
   192f0:	6125                	addi	sp,sp,96
   192f2:	8082                	ret
   192f4:	85a2                	mv	a1,s0
   192f6:	8556                	mv	a0,s5
   192f8:	8b2f90ef          	jal	ra,123aa <_fflush_r>
   192fc:	d171                	beqz	a0,192c0 <__sfvwrite_r+0x170>
   192fe:	01041783          	lh	a5,16(s0)
   19302:	0407e793          	ori	a5,a5,64
   19306:	00f41823          	sh	a5,16(s0)
   1930a:	557d                	li	a0,-1
   1930c:	b7f1                	j	192d8 <__sfvwrite_r+0x188>
   1930e:	4501                	li	a0,0
   19310:	8082                	ret
   19312:	00893483          	ld	s1,8(s2)
   19316:	00093c83          	ld	s9,0(s2)
   1931a:	0941                	addi	s2,s2,16
   1931c:	d8fd                	beqz	s1,19312 <__sfvwrite_r+0x1c2>
   1931e:	8626                	mv	a2,s1
   19320:	45a9                	li	a1,10
   19322:	8566                	mv	a0,s9
   19324:	8a2fc0ef          	jal	ra,153c6 <memchr>
   19328:	12050f63          	beqz	a0,19466 <__sfvwrite_r+0x316>
   1932c:	0505                	addi	a0,a0,1
   1932e:	419509bb          	subw	s3,a0,s9
   19332:	b7b9                	j	19280 <__sfvwrite_r+0x130>
   19334:	85e6                	mv	a1,s9
   19336:	865e                	mv	a2,s7
   19338:	2a0000ef          	jal	ra,195d8 <memmove>
   1933c:	601c                	ld	a5,0(s0)
   1933e:	85a2                	mv	a1,s0
   19340:	8556                	mv	a0,s5
   19342:	97de                	add	a5,a5,s7
   19344:	e01c                	sd	a5,0(s0)
   19346:	864f90ef          	jal	ra,123aa <_fflush_r>
   1934a:	f955                	bnez	a0,192fe <__sfvwrite_r+0x1ae>
   1934c:	865e                	mv	a2,s7
   1934e:	8b5e                	mv	s6,s7
   19350:	b79d                	j	192b6 <__sfvwrite_r+0x166>
   19352:	6c1c                	ld	a5,24(s0)
   19354:	02a7e863          	bltu	a5,a0,19384 <__sfvwrite_r+0x234>
   19358:	501c                	lw	a5,32(s0)
   1935a:	02f9e563          	bltu	s3,a5,19384 <__sfvwrite_r+0x234>
   1935e:	86ce                	mv	a3,s3
   19360:	013bf363          	bgeu	s7,s3,19366 <__sfvwrite_r+0x216>
   19364:	86da                	mv	a3,s6
   19366:	02f6c6bb          	divw	a3,a3,a5
   1936a:	6038                	ld	a4,64(s0)
   1936c:	780c                	ld	a1,48(s0)
   1936e:	8662                	mv	a2,s8
   19370:	8556                	mv	a0,s5
   19372:	02f686bb          	mulw	a3,a3,a5
   19376:	9702                	jalr	a4
   19378:	f8a053e3          	blez	a0,192fe <__sfvwrite_r+0x1ae>
   1937c:	84aa                	mv	s1,a0
   1937e:	409989b3          	sub	s3,s3,s1
   19382:	b5e1                	j	1924a <__sfvwrite_r+0xfa>
   19384:	0099f363          	bgeu	s3,s1,1938a <__sfvwrite_r+0x23a>
   19388:	84ce                	mv	s1,s3
   1938a:	8626                	mv	a2,s1
   1938c:	85e2                	mv	a1,s8
   1938e:	24a000ef          	jal	ra,195d8 <memmove>
   19392:	445c                	lw	a5,12(s0)
   19394:	6018                	ld	a4,0(s0)
   19396:	409786bb          	subw	a3,a5,s1
   1939a:	9726                	add	a4,a4,s1
   1939c:	c454                	sw	a3,12(s0)
   1939e:	e018                	sd	a4,0(s0)
   193a0:	fef9                	bnez	a3,1937e <__sfvwrite_r+0x22e>
   193a2:	85a2                	mv	a1,s0
   193a4:	8556                	mv	a0,s5
   193a6:	804f90ef          	jal	ra,123aa <_fflush_r>
   193aa:	f931                	bnez	a0,192fe <__sfvwrite_r+0x1ae>
   193ac:	409989b3          	sub	s3,s3,s1
   193b0:	bd69                	j	1924a <__sfvwrite_r+0xfa>
   193b2:	4807f713          	andi	a4,a5,1152
   193b6:	e6070ce3          	beqz	a4,1922e <__sfvwrite_r+0xde>
   193ba:	5014                	lw	a3,32(s0)
   193bc:	6c0c                	ld	a1,24(s0)
   193be:	00198713          	addi	a4,s3,1
   193c2:	0016949b          	slliw	s1,a3,0x1
   193c6:	9ea5                	addw	a3,a3,s1
   193c8:	8d0d                	sub	a0,a0,a1
   193ca:	01f6d49b          	srliw	s1,a3,0x1f
   193ce:	00050c9b          	sext.w	s9,a0
   193d2:	9cb5                	addw	s1,s1,a3
   193d4:	4014d49b          	sraiw	s1,s1,0x1
   193d8:	9766                	add	a4,a4,s9
   193da:	00e4f563          	bgeu	s1,a4,193e4 <__sfvwrite_r+0x294>
   193de:	0019849b          	addiw	s1,s3,1
   193e2:	9ca9                	addw	s1,s1,a0
   193e4:	4007f793          	andi	a5,a5,1024
   193e8:	cfa9                	beqz	a5,19442 <__sfvwrite_r+0x2f2>
   193ea:	85a6                	mv	a1,s1
   193ec:	8556                	mv	a0,s5
   193ee:	92ffb0ef          	jal	ra,14d1c <_malloc_r>
   193f2:	8d2a                	mv	s10,a0
   193f4:	cd25                	beqz	a0,1946c <__sfvwrite_r+0x31c>
   193f6:	6c0c                	ld	a1,24(s0)
   193f8:	8666                	mv	a2,s9
   193fa:	0fc000ef          	jal	ra,194f6 <memcpy>
   193fe:	01045783          	lhu	a5,16(s0)
   19402:	b7f7f793          	andi	a5,a5,-1153
   19406:	0807e793          	ori	a5,a5,128
   1940a:	00f41823          	sh	a5,16(s0)
   1940e:	019d0533          	add	a0,s10,s9
   19412:	419487bb          	subw	a5,s1,s9
   19416:	01a43c23          	sd	s10,24(s0)
   1941a:	e008                	sd	a0,0(s0)
   1941c:	d004                	sw	s1,32(s0)
   1941e:	8cce                	mv	s9,s3
   19420:	c45c                	sw	a5,12(s0)
   19422:	8d4e                	mv	s10,s3
   19424:	b529                	j	1922e <__sfvwrite_r+0xde>
   19426:	8662                	mv	a2,s8
   19428:	85e6                	mv	a1,s9
   1942a:	1ae000ef          	jal	ra,195d8 <memmove>
   1942e:	4458                	lw	a4,12(s0)
   19430:	601c                	ld	a5,0(s0)
   19432:	000c061b          	sext.w	a2,s8
   19436:	9f11                	subw	a4,a4,a2
   19438:	9c3e                	add	s8,s8,a5
   1943a:	c458                	sw	a4,12(s0)
   1943c:	01843023          	sd	s8,0(s0)
   19440:	bd9d                	j	192b6 <__sfvwrite_r+0x166>
   19442:	8626                	mv	a2,s1
   19444:	8556                	mv	a0,s5
   19446:	2a8000ef          	jal	ra,196ee <_realloc_r>
   1944a:	8d2a                	mv	s10,a0
   1944c:	f169                	bnez	a0,1940e <__sfvwrite_r+0x2be>
   1944e:	6c0c                	ld	a1,24(s0)
   19450:	8556                	mv	a0,s5
   19452:	b00f90ef          	jal	ra,12752 <_free_r>
   19456:	01041783          	lh	a5,16(s0)
   1945a:	4731                	li	a4,12
   1945c:	00eaa023          	sw	a4,0(s5)
   19460:	f7f7f793          	andi	a5,a5,-129
   19464:	bd79                	j	19302 <__sfvwrite_r+0x1b2>
   19466:	0014899b          	addiw	s3,s1,1
   1946a:	bd19                	j	19280 <__sfvwrite_r+0x130>
   1946c:	47b1                	li	a5,12
   1946e:	00faa023          	sw	a5,0(s5)
   19472:	01041783          	lh	a5,16(s0)
   19476:	b571                	j	19302 <__sfvwrite_r+0x1b2>
   19478:	557d                	li	a0,-1
   1947a:	bdb9                	j	192d8 <__sfvwrite_r+0x188>

000000000001947c <_isatty_r>:
   1947c:	1141                	addi	sp,sp,-16
   1947e:	e022                	sd	s0,0(sp)
   19480:	842a                	mv	s0,a0
   19482:	852e                	mv	a0,a1
   19484:	00006797          	auipc	a5,0x6
   19488:	b007aa23          	sw	zero,-1260(a5) # 1ef98 <errno>
   1948c:	e406                	sd	ra,8(sp)
   1948e:	654010ef          	jal	ra,1aae2 <_isatty>
   19492:	57fd                	li	a5,-1
   19494:	00f50663          	beq	a0,a5,194a0 <_isatty_r+0x24>
   19498:	60a2                	ld	ra,8(sp)
   1949a:	6402                	ld	s0,0(sp)
   1949c:	0141                	addi	sp,sp,16
   1949e:	8082                	ret
   194a0:	00006797          	auipc	a5,0x6
   194a4:	af878793          	addi	a5,a5,-1288 # 1ef98 <errno>
   194a8:	439c                	lw	a5,0(a5)
   194aa:	d7fd                	beqz	a5,19498 <_isatty_r+0x1c>
   194ac:	c01c                	sw	a5,0(s0)
   194ae:	60a2                	ld	ra,8(sp)
   194b0:	6402                	ld	s0,0(sp)
   194b2:	0141                	addi	sp,sp,16
   194b4:	8082                	ret

00000000000194b6 <_lseek_r>:
   194b6:	87ae                	mv	a5,a1
   194b8:	1141                	addi	sp,sp,-16
   194ba:	e022                	sd	s0,0(sp)
   194bc:	85b2                	mv	a1,a2
   194be:	842a                	mv	s0,a0
   194c0:	8636                	mv	a2,a3
   194c2:	853e                	mv	a0,a5
   194c4:	e406                	sd	ra,8(sp)
   194c6:	00006797          	auipc	a5,0x6
   194ca:	ac07a923          	sw	zero,-1326(a5) # 1ef98 <errno>
   194ce:	63a010ef          	jal	ra,1ab08 <_lseek>
   194d2:	57fd                	li	a5,-1
   194d4:	00f50663          	beq	a0,a5,194e0 <_lseek_r+0x2a>
   194d8:	60a2                	ld	ra,8(sp)
   194da:	6402                	ld	s0,0(sp)
   194dc:	0141                	addi	sp,sp,16
   194de:	8082                	ret
   194e0:	00006797          	auipc	a5,0x6
   194e4:	ab878793          	addi	a5,a5,-1352 # 1ef98 <errno>
   194e8:	439c                	lw	a5,0(a5)
   194ea:	d7fd                	beqz	a5,194d8 <_lseek_r+0x22>
   194ec:	c01c                	sw	a5,0(s0)
   194ee:	60a2                	ld	ra,8(sp)
   194f0:	6402                	ld	s0,0(sp)
   194f2:	0141                	addi	sp,sp,16
   194f4:	8082                	ret

00000000000194f6 <memcpy>:
   194f6:	00a5c7b3          	xor	a5,a1,a0
   194fa:	8b9d                	andi	a5,a5,7
   194fc:	00c508b3          	add	a7,a0,a2
   19500:	e7a1                	bnez	a5,19548 <memcpy+0x52>
   19502:	479d                	li	a5,7
   19504:	04c7f263          	bgeu	a5,a2,19548 <memcpy+0x52>
   19508:	00757793          	andi	a5,a0,7
   1950c:	872a                	mv	a4,a0
   1950e:	eba9                	bnez	a5,19560 <memcpy+0x6a>
   19510:	ff88f613          	andi	a2,a7,-8
   19514:	fc060793          	addi	a5,a2,-64
   19518:	06f76763          	bltu	a4,a5,19586 <memcpy+0x90>
   1951c:	02c77363          	bgeu	a4,a2,19542 <memcpy+0x4c>
   19520:	86ae                	mv	a3,a1
   19522:	87ba                	mv	a5,a4
   19524:	0006b803          	ld	a6,0(a3) # 2000 <register_fini-0xe0b0>
   19528:	07a1                	addi	a5,a5,8
   1952a:	06a1                	addi	a3,a3,8
   1952c:	ff07bc23          	sd	a6,-8(a5)
   19530:	fec7eae3          	bltu	a5,a2,19524 <memcpy+0x2e>
   19534:	fff60793          	addi	a5,a2,-1
   19538:	8f99                	sub	a5,a5,a4
   1953a:	9be1                	andi	a5,a5,-8
   1953c:	07a1                	addi	a5,a5,8
   1953e:	973e                	add	a4,a4,a5
   19540:	95be                	add	a1,a1,a5
   19542:	01176663          	bltu	a4,a7,1954e <memcpy+0x58>
   19546:	8082                	ret
   19548:	872a                	mv	a4,a0
   1954a:	ff157ee3          	bgeu	a0,a7,19546 <memcpy+0x50>
   1954e:	0005c783          	lbu	a5,0(a1)
   19552:	0705                	addi	a4,a4,1
   19554:	0585                	addi	a1,a1,1
   19556:	fef70fa3          	sb	a5,-1(a4)
   1955a:	ff176ae3          	bltu	a4,a7,1954e <memcpy+0x58>
   1955e:	8082                	ret
   19560:	0005c683          	lbu	a3,0(a1)
   19564:	0705                	addi	a4,a4,1
   19566:	00777793          	andi	a5,a4,7
   1956a:	fed70fa3          	sb	a3,-1(a4)
   1956e:	0585                	addi	a1,a1,1
   19570:	d3c5                	beqz	a5,19510 <memcpy+0x1a>
   19572:	0005c683          	lbu	a3,0(a1)
   19576:	0705                	addi	a4,a4,1
   19578:	00777793          	andi	a5,a4,7
   1957c:	fed70fa3          	sb	a3,-1(a4)
   19580:	0585                	addi	a1,a1,1
   19582:	fff9                	bnez	a5,19560 <memcpy+0x6a>
   19584:	b771                	j	19510 <memcpy+0x1a>
   19586:	6194                	ld	a3,0(a1)
   19588:	0085b283          	ld	t0,8(a1)
   1958c:	0105bf83          	ld	t6,16(a1)
   19590:	0185bf03          	ld	t5,24(a1)
   19594:	0205be83          	ld	t4,32(a1)
   19598:	0285be03          	ld	t3,40(a1)
   1959c:	0305b303          	ld	t1,48(a1)
   195a0:	0385b803          	ld	a6,56(a1)
   195a4:	04858593          	addi	a1,a1,72
   195a8:	e314                	sd	a3,0(a4)
   195aa:	ff85b683          	ld	a3,-8(a1)
   195ae:	00573423          	sd	t0,8(a4)
   195b2:	01f73823          	sd	t6,16(a4)
   195b6:	01e73c23          	sd	t5,24(a4)
   195ba:	03d73023          	sd	t4,32(a4)
   195be:	03c73423          	sd	t3,40(a4)
   195c2:	02673823          	sd	t1,48(a4)
   195c6:	03073c23          	sd	a6,56(a4)
   195ca:	04870713          	addi	a4,a4,72
   195ce:	fed73c23          	sd	a3,-8(a4)
   195d2:	faf76ae3          	bltu	a4,a5,19586 <memcpy+0x90>
   195d6:	b799                	j	1951c <memcpy+0x26>

00000000000195d8 <memmove>:
   195d8:	02a5f263          	bgeu	a1,a0,195fc <memmove+0x24>
   195dc:	00c587b3          	add	a5,a1,a2
   195e0:	00f57e63          	bgeu	a0,a5,195fc <memmove+0x24>
   195e4:	00c50733          	add	a4,a0,a2
   195e8:	ca5d                	beqz	a2,1969e <memmove+0xc6>
   195ea:	17fd                	addi	a5,a5,-1
   195ec:	0007c683          	lbu	a3,0(a5)
   195f0:	177d                	addi	a4,a4,-1
   195f2:	00d70023          	sb	a3,0(a4)
   195f6:	fef59ae3          	bne	a1,a5,195ea <memmove+0x12>
   195fa:	8082                	ret
   195fc:	47fd                	li	a5,31
   195fe:	02c7e163          	bltu	a5,a2,19620 <memmove+0x48>
   19602:	87aa                	mv	a5,a0
   19604:	fff60693          	addi	a3,a2,-1
   19608:	c245                	beqz	a2,196a8 <memmove+0xd0>
   1960a:	0685                	addi	a3,a3,1
   1960c:	96be                	add	a3,a3,a5
   1960e:	0585                	addi	a1,a1,1
   19610:	fff5c703          	lbu	a4,-1(a1)
   19614:	0785                	addi	a5,a5,1
   19616:	fee78fa3          	sb	a4,-1(a5)
   1961a:	fed79ae3          	bne	a5,a3,1960e <memmove+0x36>
   1961e:	8082                	ret
   19620:	00a5e7b3          	or	a5,a1,a0
   19624:	8b9d                	andi	a5,a5,7
   19626:	efad                	bnez	a5,196a0 <memmove+0xc8>
   19628:	fe060893          	addi	a7,a2,-32
   1962c:	fe08f893          	andi	a7,a7,-32
   19630:	02088893          	addi	a7,a7,32
   19634:	01150833          	add	a6,a0,a7
   19638:	872e                	mv	a4,a1
   1963a:	87aa                	mv	a5,a0
   1963c:	6314                	ld	a3,0(a4)
   1963e:	02078793          	addi	a5,a5,32
   19642:	02070713          	addi	a4,a4,32
   19646:	fed7b023          	sd	a3,-32(a5)
   1964a:	fe873683          	ld	a3,-24(a4)
   1964e:	fed7b423          	sd	a3,-24(a5)
   19652:	ff073683          	ld	a3,-16(a4)
   19656:	fed7b823          	sd	a3,-16(a5)
   1965a:	ff873683          	ld	a3,-8(a4)
   1965e:	fed7bc23          	sd	a3,-8(a5)
   19662:	fcf81de3          	bne	a6,a5,1963c <memmove+0x64>
   19666:	01867713          	andi	a4,a2,24
   1966a:	95c6                	add	a1,a1,a7
   1966c:	01f67813          	andi	a6,a2,31
   19670:	cf0d                	beqz	a4,196aa <memmove+0xd2>
   19672:	872e                	mv	a4,a1
   19674:	88be                	mv	a7,a5
   19676:	4e1d                	li	t3,7
   19678:	0721                	addi	a4,a4,8
   1967a:	ff873303          	ld	t1,-8(a4)
   1967e:	08a1                	addi	a7,a7,8
   19680:	40e806b3          	sub	a3,a6,a4
   19684:	fe68bc23          	sd	t1,-8(a7)
   19688:	96ae                	add	a3,a3,a1
   1968a:	fede67e3          	bltu	t3,a3,19678 <memmove+0xa0>
   1968e:	ff880713          	addi	a4,a6,-8 # 7feffff8 <__BSS_END__+0x7fee1058>
   19692:	9b61                	andi	a4,a4,-8
   19694:	0721                	addi	a4,a4,8
   19696:	8a1d                	andi	a2,a2,7
   19698:	97ba                	add	a5,a5,a4
   1969a:	95ba                	add	a1,a1,a4
   1969c:	b7a5                	j	19604 <memmove+0x2c>
   1969e:	8082                	ret
   196a0:	fff60693          	addi	a3,a2,-1
   196a4:	87aa                	mv	a5,a0
   196a6:	b795                	j	1960a <memmove+0x32>
   196a8:	8082                	ret
   196aa:	8642                	mv	a2,a6
   196ac:	bfa1                	j	19604 <memmove+0x2c>

00000000000196ae <_read_r>:
   196ae:	87ae                	mv	a5,a1
   196b0:	1141                	addi	sp,sp,-16
   196b2:	e022                	sd	s0,0(sp)
   196b4:	85b2                	mv	a1,a2
   196b6:	842a                	mv	s0,a0
   196b8:	8636                	mv	a2,a3
   196ba:	853e                	mv	a0,a5
   196bc:	e406                	sd	ra,8(sp)
   196be:	00006797          	auipc	a5,0x6
   196c2:	8c07ad23          	sw	zero,-1830(a5) # 1ef98 <errno>
   196c6:	474010ef          	jal	ra,1ab3a <_read>
   196ca:	57fd                	li	a5,-1
   196cc:	00f50663          	beq	a0,a5,196d8 <_read_r+0x2a>
   196d0:	60a2                	ld	ra,8(sp)
   196d2:	6402                	ld	s0,0(sp)
   196d4:	0141                	addi	sp,sp,16
   196d6:	8082                	ret
   196d8:	00006797          	auipc	a5,0x6
   196dc:	8c078793          	addi	a5,a5,-1856 # 1ef98 <errno>
   196e0:	439c                	lw	a5,0(a5)
   196e2:	d7fd                	beqz	a5,196d0 <_read_r+0x22>
   196e4:	c01c                	sw	a5,0(s0)
   196e6:	60a2                	ld	ra,8(sp)
   196e8:	6402                	ld	s0,0(sp)
   196ea:	0141                	addi	sp,sp,16
   196ec:	8082                	ret

00000000000196ee <_realloc_r>:
   196ee:	715d                	addi	sp,sp,-80
   196f0:	f84a                	sd	s2,48(sp)
   196f2:	e486                	sd	ra,72(sp)
   196f4:	e0a2                	sd	s0,64(sp)
   196f6:	fc26                	sd	s1,56(sp)
   196f8:	f44e                	sd	s3,40(sp)
   196fa:	f052                	sd	s4,32(sp)
   196fc:	ec56                	sd	s5,24(sp)
   196fe:	e85a                	sd	s6,16(sp)
   19700:	e45e                	sd	s7,8(sp)
   19702:	e062                	sd	s8,0(sp)
   19704:	8932                	mv	s2,a2
   19706:	1a058563          	beqz	a1,198b0 <_realloc_r+0x1c2>
   1970a:	8aae                	mv	s5,a1
   1970c:	8a2a                	mv	s4,a0
   1970e:	d69fb0ef          	jal	ra,15476 <__malloc_lock>
   19712:	ff8ab783          	ld	a5,-8(s5)
   19716:	01790413          	addi	s0,s2,23
   1971a:	02e00713          	li	a4,46
   1971e:	ff0a8b13          	addi	s6,s5,-16
   19722:	ffc7f493          	andi	s1,a5,-4
   19726:	0a877f63          	bgeu	a4,s0,197e4 <_realloc_r+0xf6>
   1972a:	80000737          	lui	a4,0x80000
   1972e:	9841                	andi	s0,s0,-16
   19730:	fff74713          	not	a4,a4
   19734:	0a876c63          	bltu	a4,s0,197ec <_realloc_r+0xfe>
   19738:	0b246a63          	bltu	s0,s2,197ec <_realloc_r+0xfe>
   1973c:	009b09b3          	add	s3,s6,s1
   19740:	1284d763          	bge	s1,s0,1986e <_realloc_r+0x180>
   19744:	00005717          	auipc	a4,0x5
   19748:	f6470713          	addi	a4,a4,-156 # 1e6a8 <__malloc_av_>
   1974c:	6b14                	ld	a3,16(a4)
   1974e:	0089b703          	ld	a4,8(s3)
   19752:	1b368063          	beq	a3,s3,198f2 <_realloc_r+0x204>
   19756:	ffe77693          	andi	a3,a4,-2
   1975a:	96ce                	add	a3,a3,s3
   1975c:	6694                	ld	a3,8(a3)
   1975e:	8a85                	andi	a3,a3,1
   19760:	12069d63          	bnez	a3,1989a <_realloc_r+0x1ac>
   19764:	9b71                	andi	a4,a4,-4
   19766:	00e486b3          	add	a3,s1,a4
   1976a:	2686df63          	bge	a3,s0,199e8 <_realloc_r+0x2fa>
   1976e:	8b85                	andi	a5,a5,1
   19770:	e38d                	bnez	a5,19792 <_realloc_r+0xa4>
   19772:	ff0abc03          	ld	s8,-16(s5)
   19776:	418b0c33          	sub	s8,s6,s8
   1977a:	008c3783          	ld	a5,8(s8)
   1977e:	9bf1                	andi	a5,a5,-4
   19780:	973e                	add	a4,a4,a5
   19782:	00970bb3          	add	s7,a4,s1
   19786:	288bd663          	bge	s7,s0,19a12 <_realloc_r+0x324>
   1978a:	00f48bb3          	add	s7,s1,a5
   1978e:	088bd063          	bge	s7,s0,1980e <_realloc_r+0x120>
   19792:	85ca                	mv	a1,s2
   19794:	8552                	mv	a0,s4
   19796:	d86fb0ef          	jal	ra,14d1c <_malloc_r>
   1979a:	892a                	mv	s2,a0
   1979c:	c121                	beqz	a0,197dc <_realloc_r+0xee>
   1979e:	ff8ab783          	ld	a5,-8(s5)
   197a2:	ff050713          	addi	a4,a0,-16
   197a6:	9bf9                	andi	a5,a5,-2
   197a8:	97da                	add	a5,a5,s6
   197aa:	24e78963          	beq	a5,a4,199fc <_realloc_r+0x30e>
   197ae:	ff848613          	addi	a2,s1,-8
   197b2:	04800793          	li	a5,72
   197b6:	24c7ea63          	bltu	a5,a2,19a0a <_realloc_r+0x31c>
   197ba:	02700713          	li	a4,39
   197be:	000ab683          	ld	a3,0(s5)
   197c2:	1cc76e63          	bltu	a4,a2,1999e <_realloc_r+0x2b0>
   197c6:	87aa                	mv	a5,a0
   197c8:	8756                	mv	a4,s5
   197ca:	e394                	sd	a3,0(a5)
   197cc:	6714                	ld	a3,8(a4)
   197ce:	e794                	sd	a3,8(a5)
   197d0:	6b18                	ld	a4,16(a4)
   197d2:	eb98                	sd	a4,16(a5)
   197d4:	85d6                	mv	a1,s5
   197d6:	8552                	mv	a0,s4
   197d8:	f7bf80ef          	jal	ra,12752 <_free_r>
   197dc:	8552                	mv	a0,s4
   197de:	c9bfb0ef          	jal	ra,15478 <__malloc_unlock>
   197e2:	a809                	j	197f4 <_realloc_r+0x106>
   197e4:	02000413          	li	s0,32
   197e8:	f5247ae3          	bgeu	s0,s2,1973c <_realloc_r+0x4e>
   197ec:	47b1                	li	a5,12
   197ee:	00fa2023          	sw	a5,0(s4)
   197f2:	4901                	li	s2,0
   197f4:	60a6                	ld	ra,72(sp)
   197f6:	6406                	ld	s0,64(sp)
   197f8:	854a                	mv	a0,s2
   197fa:	74e2                	ld	s1,56(sp)
   197fc:	7942                	ld	s2,48(sp)
   197fe:	79a2                	ld	s3,40(sp)
   19800:	7a02                	ld	s4,32(sp)
   19802:	6ae2                	ld	s5,24(sp)
   19804:	6b42                	ld	s6,16(sp)
   19806:	6ba2                	ld	s7,8(sp)
   19808:	6c02                	ld	s8,0(sp)
   1980a:	6161                	addi	sp,sp,80
   1980c:	8082                	ret
   1980e:	018c3783          	ld	a5,24(s8)
   19812:	010c3703          	ld	a4,16(s8)
   19816:	ff848613          	addi	a2,s1,-8
   1981a:	04800693          	li	a3,72
   1981e:	ef1c                	sd	a5,24(a4)
   19820:	eb98                	sd	a4,16(a5)
   19822:	010c0913          	addi	s2,s8,16
   19826:	017c09b3          	add	s3,s8,s7
   1982a:	26c6e663          	bltu	a3,a2,19a96 <_realloc_r+0x3a8>
   1982e:	02700593          	li	a1,39
   19832:	000ab703          	ld	a4,0(s5)
   19836:	87ca                	mv	a5,s2
   19838:	02c5f163          	bgeu	a1,a2,1985a <_realloc_r+0x16c>
   1983c:	00ec3823          	sd	a4,16(s8)
   19840:	008ab703          	ld	a4,8(s5)
   19844:	03700793          	li	a5,55
   19848:	00ec3c23          	sd	a4,24(s8)
   1984c:	28c7e963          	bltu	a5,a2,19ade <_realloc_r+0x3f0>
   19850:	010ab703          	ld	a4,16(s5)
   19854:	020c0793          	addi	a5,s8,32
   19858:	0ac1                	addi	s5,s5,16
   1985a:	e398                	sd	a4,0(a5)
   1985c:	008ab703          	ld	a4,8(s5)
   19860:	84de                	mv	s1,s7
   19862:	8b62                	mv	s6,s8
   19864:	e798                	sd	a4,8(a5)
   19866:	010ab703          	ld	a4,16(s5)
   1986a:	8aca                	mv	s5,s2
   1986c:	eb98                	sd	a4,16(a5)
   1986e:	008b3603          	ld	a2,8(s6) # ffffffff80000008 <__BSS_END__+0xffffffff7ffe1068>
   19872:	408487b3          	sub	a5,s1,s0
   19876:	477d                	li	a4,31
   19878:	8a05                	andi	a2,a2,1
   1987a:	04f76963          	bltu	a4,a5,198cc <_realloc_r+0x1de>
   1987e:	8e45                	or	a2,a2,s1
   19880:	00cb3423          	sd	a2,8(s6)
   19884:	0089b783          	ld	a5,8(s3)
   19888:	0017e793          	ori	a5,a5,1
   1988c:	00f9b423          	sd	a5,8(s3)
   19890:	8552                	mv	a0,s4
   19892:	be7fb0ef          	jal	ra,15478 <__malloc_unlock>
   19896:	8956                	mv	s2,s5
   19898:	bfb1                	j	197f4 <_realloc_r+0x106>
   1989a:	8b85                	andi	a5,a5,1
   1989c:	ee079be3          	bnez	a5,19792 <_realloc_r+0xa4>
   198a0:	ff0abc03          	ld	s8,-16(s5)
   198a4:	418b0c33          	sub	s8,s6,s8
   198a8:	008c3783          	ld	a5,8(s8)
   198ac:	9bf1                	andi	a5,a5,-4
   198ae:	bdf1                	j	1978a <_realloc_r+0x9c>
   198b0:	6406                	ld	s0,64(sp)
   198b2:	60a6                	ld	ra,72(sp)
   198b4:	74e2                	ld	s1,56(sp)
   198b6:	7942                	ld	s2,48(sp)
   198b8:	79a2                	ld	s3,40(sp)
   198ba:	7a02                	ld	s4,32(sp)
   198bc:	6ae2                	ld	s5,24(sp)
   198be:	6b42                	ld	s6,16(sp)
   198c0:	6ba2                	ld	s7,8(sp)
   198c2:	6c02                	ld	s8,0(sp)
   198c4:	85b2                	mv	a1,a2
   198c6:	6161                	addi	sp,sp,80
   198c8:	c54fb06f          	j	14d1c <_malloc_r>
   198cc:	8e41                	or	a2,a2,s0
   198ce:	00cb3423          	sd	a2,8(s6)
   198d2:	008b05b3          	add	a1,s6,s0
   198d6:	0017e793          	ori	a5,a5,1
   198da:	e59c                	sd	a5,8(a1)
   198dc:	0089b783          	ld	a5,8(s3)
   198e0:	05c1                	addi	a1,a1,16
   198e2:	8552                	mv	a0,s4
   198e4:	0017e793          	ori	a5,a5,1
   198e8:	00f9b423          	sd	a5,8(s3)
   198ec:	e67f80ef          	jal	ra,12752 <_free_r>
   198f0:	b745                	j	19890 <_realloc_r+0x1a2>
   198f2:	9b71                	andi	a4,a4,-4
   198f4:	00e486b3          	add	a3,s1,a4
   198f8:	02040613          	addi	a2,s0,32
   198fc:	0cc6d063          	bge	a3,a2,199bc <_realloc_r+0x2ce>
   19900:	8b85                	andi	a5,a5,1
   19902:	e80798e3          	bnez	a5,19792 <_realloc_r+0xa4>
   19906:	ff0abc03          	ld	s8,-16(s5)
   1990a:	418b0c33          	sub	s8,s6,s8
   1990e:	008c3783          	ld	a5,8(s8)
   19912:	9bf1                	andi	a5,a5,-4
   19914:	973e                	add	a4,a4,a5
   19916:	009709b3          	add	s3,a4,s1
   1991a:	e6c9c8e3          	blt	s3,a2,1978a <_realloc_r+0x9c>
   1991e:	018c3783          	ld	a5,24(s8)
   19922:	010c3703          	ld	a4,16(s8)
   19926:	ff848613          	addi	a2,s1,-8
   1992a:	04800693          	li	a3,72
   1992e:	ef1c                	sd	a5,24(a4)
   19930:	eb98                	sd	a4,16(a5)
   19932:	010c0913          	addi	s2,s8,16
   19936:	1cc6e563          	bltu	a3,a2,19b00 <_realloc_r+0x412>
   1993a:	02700593          	li	a1,39
   1993e:	000ab703          	ld	a4,0(s5)
   19942:	87ca                	mv	a5,s2
   19944:	02c5f163          	bgeu	a1,a2,19966 <_realloc_r+0x278>
   19948:	00ec3823          	sd	a4,16(s8)
   1994c:	008ab703          	ld	a4,8(s5)
   19950:	03700793          	li	a5,55
   19954:	00ec3c23          	sd	a4,24(s8)
   19958:	1ac7e963          	bltu	a5,a2,19b0a <_realloc_r+0x41c>
   1995c:	010ab703          	ld	a4,16(s5)
   19960:	020c0793          	addi	a5,s8,32
   19964:	0ac1                	addi	s5,s5,16
   19966:	e398                	sd	a4,0(a5)
   19968:	008ab703          	ld	a4,8(s5)
   1996c:	e798                	sd	a4,8(a5)
   1996e:	010ab703          	ld	a4,16(s5)
   19972:	eb98                	sd	a4,16(a5)
   19974:	008c0733          	add	a4,s8,s0
   19978:	408987b3          	sub	a5,s3,s0
   1997c:	00005697          	auipc	a3,0x5
   19980:	d2e6be23          	sd	a4,-708(a3) # 1e6b8 <__malloc_av_+0x10>
   19984:	0017e793          	ori	a5,a5,1
   19988:	e71c                	sd	a5,8(a4)
   1998a:	008c3783          	ld	a5,8(s8)
   1998e:	8552                	mv	a0,s4
   19990:	8b85                	andi	a5,a5,1
   19992:	8c5d                	or	s0,s0,a5
   19994:	008c3423          	sd	s0,8(s8)
   19998:	ae1fb0ef          	jal	ra,15478 <__malloc_unlock>
   1999c:	bda1                	j	197f4 <_realloc_r+0x106>
   1999e:	e114                	sd	a3,0(a0)
   199a0:	008ab683          	ld	a3,8(s5)
   199a4:	03700713          	li	a4,55
   199a8:	e514                	sd	a3,8(a0)
   199aa:	0ec76e63          	bltu	a4,a2,19aa6 <_realloc_r+0x3b8>
   199ae:	010a8713          	addi	a4,s5,16
   199b2:	01050793          	addi	a5,a0,16
   199b6:	010ab683          	ld	a3,16(s5)
   199ba:	bd01                	j	197ca <_realloc_r+0xdc>
   199bc:	9b22                	add	s6,s6,s0
   199be:	408687b3          	sub	a5,a3,s0
   199c2:	00005717          	auipc	a4,0x5
   199c6:	cf673b23          	sd	s6,-778(a4) # 1e6b8 <__malloc_av_+0x10>
   199ca:	0017e793          	ori	a5,a5,1
   199ce:	00fb3423          	sd	a5,8(s6)
   199d2:	ff8ab783          	ld	a5,-8(s5)
   199d6:	8552                	mv	a0,s4
   199d8:	8956                	mv	s2,s5
   199da:	8b85                	andi	a5,a5,1
   199dc:	8c5d                	or	s0,s0,a5
   199de:	fe8abc23          	sd	s0,-8(s5)
   199e2:	a97fb0ef          	jal	ra,15478 <__malloc_unlock>
   199e6:	b539                	j	197f4 <_realloc_r+0x106>
   199e8:	0189b783          	ld	a5,24(s3)
   199ec:	0109b703          	ld	a4,16(s3)
   199f0:	84b6                	mv	s1,a3
   199f2:	00db09b3          	add	s3,s6,a3
   199f6:	ef1c                	sd	a5,24(a4)
   199f8:	eb98                	sd	a4,16(a5)
   199fa:	bd95                	j	1986e <_realloc_r+0x180>
   199fc:	ff853783          	ld	a5,-8(a0)
   19a00:	9bf1                	andi	a5,a5,-4
   19a02:	94be                	add	s1,s1,a5
   19a04:	009b09b3          	add	s3,s6,s1
   19a08:	b59d                	j	1986e <_realloc_r+0x180>
   19a0a:	85d6                	mv	a1,s5
   19a0c:	bcdff0ef          	jal	ra,195d8 <memmove>
   19a10:	b3d1                	j	197d4 <_realloc_r+0xe6>
   19a12:	0189b783          	ld	a5,24(s3)
   19a16:	0109b703          	ld	a4,16(s3)
   19a1a:	ff848613          	addi	a2,s1,-8
   19a1e:	04800693          	li	a3,72
   19a22:	ef1c                	sd	a5,24(a4)
   19a24:	eb98                	sd	a4,16(a5)
   19a26:	010c3703          	ld	a4,16(s8)
   19a2a:	018c3783          	ld	a5,24(s8)
   19a2e:	010c0913          	addi	s2,s8,16
   19a32:	017c09b3          	add	s3,s8,s7
   19a36:	ef1c                	sd	a5,24(a4)
   19a38:	eb98                	sd	a4,16(a5)
   19a3a:	04c6ee63          	bltu	a3,a2,19a96 <_realloc_r+0x3a8>
   19a3e:	02700693          	li	a3,39
   19a42:	000ab703          	ld	a4,0(s5)
   19a46:	87ca                	mv	a5,s2
   19a48:	e0c6f9e3          	bgeu	a3,a2,1985a <_realloc_r+0x16c>
   19a4c:	00ec3823          	sd	a4,16(s8)
   19a50:	008ab703          	ld	a4,8(s5)
   19a54:	03700793          	li	a5,55
   19a58:	00ec3c23          	sd	a4,24(s8)
   19a5c:	010ab703          	ld	a4,16(s5)
   19a60:	dec7fae3          	bgeu	a5,a2,19854 <_realloc_r+0x166>
   19a64:	02ec3023          	sd	a4,32(s8)
   19a68:	018ab703          	ld	a4,24(s5)
   19a6c:	04800793          	li	a5,72
   19a70:	02ec3423          	sd	a4,40(s8)
   19a74:	020ab703          	ld	a4,32(s5)
   19a78:	06f61f63          	bne	a2,a5,19af6 <_realloc_r+0x408>
   19a7c:	02ec3823          	sd	a4,48(s8)
   19a80:	028ab703          	ld	a4,40(s5)
   19a84:	040c0793          	addi	a5,s8,64
   19a88:	030a8a93          	addi	s5,s5,48
   19a8c:	02ec3c23          	sd	a4,56(s8)
   19a90:	000ab703          	ld	a4,0(s5)
   19a94:	b3d9                	j	1985a <_realloc_r+0x16c>
   19a96:	85d6                	mv	a1,s5
   19a98:	854a                	mv	a0,s2
   19a9a:	b3fff0ef          	jal	ra,195d8 <memmove>
   19a9e:	8aca                	mv	s5,s2
   19aa0:	84de                	mv	s1,s7
   19aa2:	8b62                	mv	s6,s8
   19aa4:	b3e9                	j	1986e <_realloc_r+0x180>
   19aa6:	010ab703          	ld	a4,16(s5)
   19aaa:	e918                	sd	a4,16(a0)
   19aac:	018ab703          	ld	a4,24(s5)
   19ab0:	ed18                	sd	a4,24(a0)
   19ab2:	00f60963          	beq	a2,a5,19ac4 <_realloc_r+0x3d6>
   19ab6:	020a8713          	addi	a4,s5,32
   19aba:	02050793          	addi	a5,a0,32
   19abe:	020ab683          	ld	a3,32(s5)
   19ac2:	b321                	j	197ca <_realloc_r+0xdc>
   19ac4:	020ab683          	ld	a3,32(s5)
   19ac8:	030a8713          	addi	a4,s5,48
   19acc:	03050793          	addi	a5,a0,48
   19ad0:	f114                	sd	a3,32(a0)
   19ad2:	028ab683          	ld	a3,40(s5)
   19ad6:	f514                	sd	a3,40(a0)
   19ad8:	030ab683          	ld	a3,48(s5)
   19adc:	b1fd                	j	197ca <_realloc_r+0xdc>
   19ade:	010ab783          	ld	a5,16(s5)
   19ae2:	02fc3023          	sd	a5,32(s8)
   19ae6:	018ab783          	ld	a5,24(s5)
   19aea:	02fc3423          	sd	a5,40(s8)
   19aee:	020ab703          	ld	a4,32(s5)
   19af2:	f8d605e3          	beq	a2,a3,19a7c <_realloc_r+0x38e>
   19af6:	030c0793          	addi	a5,s8,48
   19afa:	020a8a93          	addi	s5,s5,32
   19afe:	bbb1                	j	1985a <_realloc_r+0x16c>
   19b00:	85d6                	mv	a1,s5
   19b02:	854a                	mv	a0,s2
   19b04:	ad5ff0ef          	jal	ra,195d8 <memmove>
   19b08:	b5b5                	j	19974 <_realloc_r+0x286>
   19b0a:	010ab783          	ld	a5,16(s5)
   19b0e:	02fc3023          	sd	a5,32(s8)
   19b12:	018ab783          	ld	a5,24(s5)
   19b16:	02fc3423          	sd	a5,40(s8)
   19b1a:	020ab703          	ld	a4,32(s5)
   19b1e:	00d60763          	beq	a2,a3,19b2c <_realloc_r+0x43e>
   19b22:	030c0793          	addi	a5,s8,48
   19b26:	020a8a93          	addi	s5,s5,32
   19b2a:	bd35                	j	19966 <_realloc_r+0x278>
   19b2c:	02ec3823          	sd	a4,48(s8)
   19b30:	028ab703          	ld	a4,40(s5)
   19b34:	040c0793          	addi	a5,s8,64
   19b38:	030a8a93          	addi	s5,s5,48
   19b3c:	02ec3c23          	sd	a4,56(s8)
   19b40:	000ab703          	ld	a4,0(s5)
   19b44:	b50d                	j	19966 <_realloc_r+0x278>

0000000000019b46 <cleanup_glue>:
   19b46:	1101                	addi	sp,sp,-32
   19b48:	e822                	sd	s0,16(sp)
   19b4a:	842e                	mv	s0,a1
   19b4c:	618c                	ld	a1,0(a1)
   19b4e:	e426                	sd	s1,8(sp)
   19b50:	ec06                	sd	ra,24(sp)
   19b52:	84aa                	mv	s1,a0
   19b54:	c199                	beqz	a1,19b5a <cleanup_glue+0x14>
   19b56:	ff1ff0ef          	jal	ra,19b46 <cleanup_glue>
   19b5a:	85a2                	mv	a1,s0
   19b5c:	6442                	ld	s0,16(sp)
   19b5e:	60e2                	ld	ra,24(sp)
   19b60:	8526                	mv	a0,s1
   19b62:	64a2                	ld	s1,8(sp)
   19b64:	6105                	addi	sp,sp,32
   19b66:	bedf806f          	j	12752 <_free_r>

0000000000019b6a <_reclaim_reent>:
   19b6a:	75818793          	addi	a5,gp,1880 # 1eef8 <_impure_ptr>
   19b6e:	639c                	ld	a5,0(a5)
   19b70:	08a78f63          	beq	a5,a0,19c0e <_reclaim_reent+0xa4>
   19b74:	7d38                	ld	a4,120(a0)
   19b76:	7179                	addi	sp,sp,-48
   19b78:	ec26                	sd	s1,24(sp)
   19b7a:	f406                	sd	ra,40(sp)
   19b7c:	f022                	sd	s0,32(sp)
   19b7e:	e84a                	sd	s2,16(sp)
   19b80:	e44e                	sd	s3,8(sp)
   19b82:	84aa                	mv	s1,a0
   19b84:	c715                	beqz	a4,19bb0 <_reclaim_reent+0x46>
   19b86:	4901                	li	s2,0
   19b88:	20000993          	li	s3,512
   19b8c:	012707b3          	add	a5,a4,s2
   19b90:	638c                	ld	a1,0(a5)
   19b92:	c981                	beqz	a1,19ba2 <_reclaim_reent+0x38>
   19b94:	6180                	ld	s0,0(a1)
   19b96:	8526                	mv	a0,s1
   19b98:	bbbf80ef          	jal	ra,12752 <_free_r>
   19b9c:	85a2                	mv	a1,s0
   19b9e:	f87d                	bnez	s0,19b94 <_reclaim_reent+0x2a>
   19ba0:	7cb8                	ld	a4,120(s1)
   19ba2:	0921                	addi	s2,s2,8
   19ba4:	ff3914e3          	bne	s2,s3,19b8c <_reclaim_reent+0x22>
   19ba8:	85ba                	mv	a1,a4
   19baa:	8526                	mv	a0,s1
   19bac:	ba7f80ef          	jal	ra,12752 <_free_r>
   19bb0:	70ac                	ld	a1,96(s1)
   19bb2:	c581                	beqz	a1,19bba <_reclaim_reent+0x50>
   19bb4:	8526                	mv	a0,s1
   19bb6:	b9df80ef          	jal	ra,12752 <_free_r>
   19bba:	1f84b583          	ld	a1,504(s1)
   19bbe:	cd81                	beqz	a1,19bd6 <_reclaim_reent+0x6c>
   19bc0:	20048913          	addi	s2,s1,512
   19bc4:	01258963          	beq	a1,s2,19bd6 <_reclaim_reent+0x6c>
   19bc8:	6180                	ld	s0,0(a1)
   19bca:	8526                	mv	a0,s1
   19bcc:	b87f80ef          	jal	ra,12752 <_free_r>
   19bd0:	85a2                	mv	a1,s0
   19bd2:	fe891be3          	bne	s2,s0,19bc8 <_reclaim_reent+0x5e>
   19bd6:	64cc                	ld	a1,136(s1)
   19bd8:	c581                	beqz	a1,19be0 <_reclaim_reent+0x76>
   19bda:	8526                	mv	a0,s1
   19bdc:	b77f80ef          	jal	ra,12752 <_free_r>
   19be0:	48bc                	lw	a5,80(s1)
   19be2:	cf99                	beqz	a5,19c00 <_reclaim_reent+0x96>
   19be4:	6cbc                	ld	a5,88(s1)
   19be6:	8526                	mv	a0,s1
   19be8:	9782                	jalr	a5
   19bea:	5204b583          	ld	a1,1312(s1)
   19bee:	c989                	beqz	a1,19c00 <_reclaim_reent+0x96>
   19bf0:	7402                	ld	s0,32(sp)
   19bf2:	70a2                	ld	ra,40(sp)
   19bf4:	6942                	ld	s2,16(sp)
   19bf6:	69a2                	ld	s3,8(sp)
   19bf8:	8526                	mv	a0,s1
   19bfa:	64e2                	ld	s1,24(sp)
   19bfc:	6145                	addi	sp,sp,48
   19bfe:	b7a1                	j	19b46 <cleanup_glue>
   19c00:	70a2                	ld	ra,40(sp)
   19c02:	7402                	ld	s0,32(sp)
   19c04:	64e2                	ld	s1,24(sp)
   19c06:	6942                	ld	s2,16(sp)
   19c08:	69a2                	ld	s3,8(sp)
   19c0a:	6145                	addi	sp,sp,48
   19c0c:	8082                	ret
   19c0e:	8082                	ret

0000000000019c10 <__ssprint_r>:
   19c10:	6a1c                	ld	a5,16(a2)
   19c12:	715d                	addi	sp,sp,-80
   19c14:	f052                	sd	s4,32(sp)
   19c16:	e486                	sd	ra,72(sp)
   19c18:	e0a2                	sd	s0,64(sp)
   19c1a:	fc26                	sd	s1,56(sp)
   19c1c:	f84a                	sd	s2,48(sp)
   19c1e:	f44e                	sd	s3,40(sp)
   19c20:	ec56                	sd	s5,24(sp)
   19c22:	e85a                	sd	s6,16(sp)
   19c24:	e45e                	sd	s7,8(sp)
   19c26:	e062                	sd	s8,0(sp)
   19c28:	8a32                	mv	s4,a2
   19c2a:	cff9                	beqz	a5,19d08 <__ssprint_r+0xf8>
   19c2c:	8aaa                	mv	s5,a0
   19c2e:	00063983          	ld	s3,0(a2)
   19c32:	6188                	ld	a0,0(a1)
   19c34:	45c0                	lw	s0,12(a1)
   19c36:	892e                	mv	s2,a1
   19c38:	4b01                	li	s6,0
   19c3a:	4481                	li	s1,0
   19c3c:	c4ed                	beqz	s1,19d26 <__ssprint_r+0x116>
   19c3e:	8c22                	mv	s8,s0
   19c40:	0004879b          	sext.w	a5,s1
   19c44:	0e84e763          	bltu	s1,s0,19d32 <__ssprint_r+0x122>
   19c48:	01095783          	lhu	a5,16(s2)
   19c4c:	00048b9b          	sext.w	s7,s1
   19c50:	4807f713          	andi	a4,a5,1152
   19c54:	c349                	beqz	a4,19cd6 <__ssprint_r+0xc6>
   19c56:	02092683          	lw	a3,32(s2)
   19c5a:	01893583          	ld	a1,24(s2)
   19c5e:	00148713          	addi	a4,s1,1
   19c62:	0016941b          	slliw	s0,a3,0x1
   19c66:	9ea1                	addw	a3,a3,s0
   19c68:	8d0d                	sub	a0,a0,a1
   19c6a:	01f6d41b          	srliw	s0,a3,0x1f
   19c6e:	00050b9b          	sext.w	s7,a0
   19c72:	9c35                	addw	s0,s0,a3
   19c74:	4014541b          	sraiw	s0,s0,0x1
   19c78:	975e                	add	a4,a4,s7
   19c7a:	00e47563          	bgeu	s0,a4,19c84 <__ssprint_r+0x74>
   19c7e:	0014841b          	addiw	s0,s1,1
   19c82:	9c29                	addw	s0,s0,a0
   19c84:	4007f793          	andi	a5,a5,1024
   19c88:	cbcd                	beqz	a5,19d3a <__ssprint_r+0x12a>
   19c8a:	85a2                	mv	a1,s0
   19c8c:	8556                	mv	a0,s5
   19c8e:	88efb0ef          	jal	ra,14d1c <_malloc_r>
   19c92:	8c2a                	mv	s8,a0
   19c94:	cd55                	beqz	a0,19d50 <__ssprint_r+0x140>
   19c96:	01893583          	ld	a1,24(s2)
   19c9a:	865e                	mv	a2,s7
   19c9c:	85bff0ef          	jal	ra,194f6 <memcpy>
   19ca0:	01095783          	lhu	a5,16(s2)
   19ca4:	b7f7f793          	andi	a5,a5,-1153
   19ca8:	0807e793          	ori	a5,a5,128
   19cac:	00f91823          	sh	a5,16(s2)
   19cb0:	017c0533          	add	a0,s8,s7
   19cb4:	41740bbb          	subw	s7,s0,s7
   19cb8:	0004879b          	sext.w	a5,s1
   19cbc:	01893c23          	sd	s8,24(s2)
   19cc0:	02892023          	sw	s0,32(s2)
   19cc4:	01792623          	sw	s7,12(s2)
   19cc8:	00a93023          	sd	a0,0(s2)
   19ccc:	843e                	mv	s0,a5
   19cce:	8c3e                	mv	s8,a5
   19cd0:	8bbe                	mv	s7,a5
   19cd2:	06f4e063          	bltu	s1,a5,19d32 <__ssprint_r+0x122>
   19cd6:	8622                	mv	a2,s0
   19cd8:	85da                	mv	a1,s6
   19cda:	8ffff0ef          	jal	ra,195d8 <memmove>
   19cde:	00c92703          	lw	a4,12(s2)
   19ce2:	00093503          	ld	a0,0(s2)
   19ce6:	010a3783          	ld	a5,16(s4)
   19cea:	4087043b          	subw	s0,a4,s0
   19cee:	9562                	add	a0,a0,s8
   19cf0:	00892623          	sw	s0,12(s2)
   19cf4:	00a93023          	sd	a0,0(s2)
   19cf8:	417787b3          	sub	a5,a5,s7
   19cfc:	00fa3823          	sd	a5,16(s4)
   19d00:	9b5e                	add	s6,s6,s7
   19d02:	417484b3          	sub	s1,s1,s7
   19d06:	fb9d                	bnez	a5,19c3c <__ssprint_r+0x2c>
   19d08:	000a2423          	sw	zero,8(s4)
   19d0c:	4501                	li	a0,0
   19d0e:	60a6                	ld	ra,72(sp)
   19d10:	6406                	ld	s0,64(sp)
   19d12:	74e2                	ld	s1,56(sp)
   19d14:	7942                	ld	s2,48(sp)
   19d16:	79a2                	ld	s3,40(sp)
   19d18:	7a02                	ld	s4,32(sp)
   19d1a:	6ae2                	ld	s5,24(sp)
   19d1c:	6b42                	ld	s6,16(sp)
   19d1e:	6ba2                	ld	s7,8(sp)
   19d20:	6c02                	ld	s8,0(sp)
   19d22:	6161                	addi	sp,sp,80
   19d24:	8082                	ret
   19d26:	0009bb03          	ld	s6,0(s3)
   19d2a:	0089b483          	ld	s1,8(s3)
   19d2e:	09c1                	addi	s3,s3,16
   19d30:	b731                	j	19c3c <__ssprint_r+0x2c>
   19d32:	843e                	mv	s0,a5
   19d34:	8c3e                	mv	s8,a5
   19d36:	8bbe                	mv	s7,a5
   19d38:	bf79                	j	19cd6 <__ssprint_r+0xc6>
   19d3a:	8622                	mv	a2,s0
   19d3c:	8556                	mv	a0,s5
   19d3e:	9b1ff0ef          	jal	ra,196ee <_realloc_r>
   19d42:	8c2a                	mv	s8,a0
   19d44:	f535                	bnez	a0,19cb0 <__ssprint_r+0xa0>
   19d46:	01893583          	ld	a1,24(s2)
   19d4a:	8556                	mv	a0,s5
   19d4c:	a07f80ef          	jal	ra,12752 <_free_r>
   19d50:	47b1                	li	a5,12
   19d52:	00faa023          	sw	a5,0(s5)
   19d56:	01095783          	lhu	a5,16(s2)
   19d5a:	557d                	li	a0,-1
   19d5c:	0407e793          	ori	a5,a5,64
   19d60:	00f91823          	sh	a5,16(s2)
   19d64:	000a3823          	sd	zero,16(s4)
   19d68:	000a2423          	sw	zero,8(s4)
   19d6c:	b74d                	j	19d0e <__ssprint_r+0xfe>

0000000000019d6e <_svfiprintf_r>:
   19d6e:	0105d783          	lhu	a5,16(a1)
   19d72:	7145                	addi	sp,sp,-464
   19d74:	fb4a                	sd	s2,432(sp)
   19d76:	f352                	sd	s4,416(sp)
   19d78:	f6ee                	sd	s11,360(sp)
   19d7a:	e786                	sd	ra,456(sp)
   19d7c:	e3a2                	sd	s0,448(sp)
   19d7e:	ff26                	sd	s1,440(sp)
   19d80:	f74e                	sd	s3,424(sp)
   19d82:	ef56                	sd	s5,408(sp)
   19d84:	eb5a                	sd	s6,400(sp)
   19d86:	e75e                	sd	s7,392(sp)
   19d88:	e362                	sd	s8,384(sp)
   19d8a:	fee6                	sd	s9,376(sp)
   19d8c:	faea                	sd	s10,368(sp)
   19d8e:	0807f793          	andi	a5,a5,128
   19d92:	e436                	sd	a3,8(sp)
   19d94:	892e                	mv	s2,a1
   19d96:	8a2a                	mv	s4,a0
   19d98:	8db2                	mv	s11,a2
   19d9a:	c781                	beqz	a5,19da2 <_svfiprintf_r+0x34>
   19d9c:	6d9c                	ld	a5,24(a1)
   19d9e:	10078be3          	beqz	a5,1a6b4 <_svfiprintf_r+0x946>
   19da2:	77e1                	lui	a5,0xffff8
   19da4:	1184                	addi	s1,sp,224
   19da6:	8307c793          	xori	a5,a5,-2000
   19daa:	f0a6                	sd	s1,96(sp)
   19dac:	f882                	sd	zero,112(sp)
   19dae:	d482                	sw	zero,104(sp)
   19db0:	8726                	mv	a4,s1
   19db2:	e802                	sd	zero,16(sp)
   19db4:	f802                	sd	zero,48(sp)
   19db6:	e082                	sd	zero,64(sp)
   19db8:	fc02                	sd	zero,56(sp)
   19dba:	e002                	sd	zero,0(sp)
   19dbc:	00003a97          	auipc	s5,0x3
   19dc0:	d0ca8a93          	addi	s5,s5,-756 # 1cac8 <_ctype_+0x108>
   19dc4:	e4be                	sd	a5,72(sp)
   19dc6:	000dc783          	lbu	a5,0(s11)
   19dca:	cbd5                	beqz	a5,19e7e <_svfiprintf_r+0x110>
   19dcc:	02500693          	li	a3,37
   19dd0:	0ad78ae3          	beq	a5,a3,1a684 <_svfiprintf_r+0x916>
   19dd4:	846e                	mv	s0,s11
   19dd6:	a021                	j	19dde <_svfiprintf_r+0x70>
   19dd8:	08d78663          	beq	a5,a3,19e64 <_svfiprintf_r+0xf6>
   19ddc:	844e                	mv	s0,s3
   19dde:	00144783          	lbu	a5,1(s0)
   19de2:	00140993          	addi	s3,s0,1
   19de6:	fbed                	bnez	a5,19dd8 <_svfiprintf_r+0x6a>
   19de8:	41b98b3b          	subw	s6,s3,s11
   19dec:	080b0963          	beqz	s6,19e7e <_svfiprintf_r+0x110>
   19df0:	76c6                	ld	a3,112(sp)
   19df2:	57a6                	lw	a5,104(sp)
   19df4:	01b73023          	sd	s11,0(a4)
   19df8:	96da                	add	a3,a3,s6
   19dfa:	2785                	addiw	a5,a5,1
   19dfc:	01673423          	sd	s6,8(a4)
   19e00:	f8b6                	sd	a3,112(sp)
   19e02:	d4be                	sw	a5,104(sp)
   19e04:	0007869b          	sext.w	a3,a5
   19e08:	479d                	li	a5,7
   19e0a:	0741                	addi	a4,a4,16
   19e0c:	06d7c163          	blt	a5,a3,19e6e <_svfiprintf_r+0x100>
   19e10:	6682                	ld	a3,0(sp)
   19e12:	00144783          	lbu	a5,1(s0)
   19e16:	00db06bb          	addw	a3,s6,a3
   19e1a:	e036                	sd	a3,0(sp)
   19e1c:	c3ad                	beqz	a5,19e7e <_svfiprintf_r+0x110>
   19e1e:	00198d93          	addi	s11,s3,1
   19e22:	0019c603          	lbu	a2,1(s3)
   19e26:	04010ba3          	sb	zero,87(sp)
   19e2a:	5cfd                	li	s9,-1
   19e2c:	4401                	li	s0,0
   19e2e:	4d01                	li	s10,0
   19e30:	49a5                	li	s3,9
   19e32:	02a00b13          	li	s6,42
   19e36:	0d85                	addi	s11,s11,1
   19e38:	2601                	sext.w	a2,a2
   19e3a:	05a00513          	li	a0,90
   19e3e:	fe06079b          	addiw	a5,a2,-32
   19e42:	0007859b          	sext.w	a1,a5
   19e46:	12b56b63          	bltu	a0,a1,19f7c <_svfiprintf_r+0x20e>
   19e4a:	1782                	slli	a5,a5,0x20
   19e4c:	83f9                	srli	a5,a5,0x1e
   19e4e:	97d6                	add	a5,a5,s5
   19e50:	439c                	lw	a5,0(a5)
   19e52:	97d6                	add	a5,a5,s5
   19e54:	8782                	jr	a5
   19e56:	010d6893          	ori	a7,s10,16
   19e5a:	00088d1b          	sext.w	s10,a7
   19e5e:	000dc603          	lbu	a2,0(s11)
   19e62:	bfd1                	j	19e36 <_svfiprintf_r+0xc8>
   19e64:	41b98b3b          	subw	s6,s3,s11
   19e68:	fa0b0be3          	beqz	s6,19e1e <_svfiprintf_r+0xb0>
   19e6c:	b751                	j	19df0 <_svfiprintf_r+0x82>
   19e6e:	1090                	addi	a2,sp,96
   19e70:	85ca                	mv	a1,s2
   19e72:	8552                	mv	a0,s4
   19e74:	d9dff0ef          	jal	ra,19c10 <__ssprint_r>
   19e78:	e911                	bnez	a0,19e8c <_svfiprintf_r+0x11e>
   19e7a:	8726                	mv	a4,s1
   19e7c:	bf51                	j	19e10 <_svfiprintf_r+0xa2>
   19e7e:	77c6                	ld	a5,112(sp)
   19e80:	c791                	beqz	a5,19e8c <_svfiprintf_r+0x11e>
   19e82:	1090                	addi	a2,sp,96
   19e84:	85ca                	mv	a1,s2
   19e86:	8552                	mv	a0,s4
   19e88:	d89ff0ef          	jal	ra,19c10 <__ssprint_r>
   19e8c:	01095783          	lhu	a5,16(s2)
   19e90:	0407f793          	andi	a5,a5,64
   19e94:	1c0797e3          	bnez	a5,1a862 <_svfiprintf_r+0xaf4>
   19e98:	60be                	ld	ra,456(sp)
   19e9a:	641e                	ld	s0,448(sp)
   19e9c:	6502                	ld	a0,0(sp)
   19e9e:	74fa                	ld	s1,440(sp)
   19ea0:	795a                	ld	s2,432(sp)
   19ea2:	79ba                	ld	s3,424(sp)
   19ea4:	7a1a                	ld	s4,416(sp)
   19ea6:	6afa                	ld	s5,408(sp)
   19ea8:	6b5a                	ld	s6,400(sp)
   19eaa:	6bba                	ld	s7,392(sp)
   19eac:	6c1a                	ld	s8,384(sp)
   19eae:	7cf6                	ld	s9,376(sp)
   19eb0:	7d56                	ld	s10,368(sp)
   19eb2:	7db6                	ld	s11,360(sp)
   19eb4:	6179                	addi	sp,sp,464
   19eb6:	8082                	ret
   19eb8:	66a2                	ld	a3,8(sp)
   19eba:	00002797          	auipc	a5,0x2
   19ebe:	3de78793          	addi	a5,a5,990 # 1c298 <zeroes.4541+0x78>
   19ec2:	e83e                	sd	a5,16(sp)
   19ec4:	020d7793          	andi	a5,s10,32
   19ec8:	00868593          	addi	a1,a3,8
   19ecc:	3c078363          	beqz	a5,1a292 <_svfiprintf_r+0x524>
   19ed0:	0006b983          	ld	s3,0(a3)
   19ed4:	001d7793          	andi	a5,s10,1
   19ed8:	cf89                	beqz	a5,19ef2 <_svfiprintf_r+0x184>
   19eda:	00098c63          	beqz	s3,19ef2 <_svfiprintf_r+0x184>
   19ede:	002d6893          	ori	a7,s10,2
   19ee2:	03000793          	li	a5,48
   19ee6:	04f10c23          	sb	a5,88(sp)
   19eea:	04c10ca3          	sb	a2,89(sp)
   19eee:	00088d1b          	sext.w	s10,a7
   19ef2:	bffd7893          	andi	a7,s10,-1025
   19ef6:	00088e1b          	sext.w	t3,a7
   19efa:	e42e                	sd	a1,8(sp)
   19efc:	4789                	li	a5,2
   19efe:	04010ba3          	sb	zero,87(sp)
   19f02:	567d                	li	a2,-1
   19f04:	40cc8263          	beq	s9,a2,1a308 <_svfiprintf_r+0x59a>
   19f08:	f7fe7893          	andi	a7,t3,-129
   19f0c:	00088d1b          	sext.w	s10,a7
   19f10:	60099363          	bnez	s3,1a516 <_svfiprintf_r+0x7a8>
   19f14:	480c9f63          	bnez	s9,1a3b2 <_svfiprintf_r+0x644>
   19f18:	74079463          	bnez	a5,1a660 <_svfiprintf_r+0x8f2>
   19f1c:	001e7b13          	andi	s6,t3,1
   19f20:	0dc10c13          	addi	s8,sp,220
   19f24:	000b0863          	beqz	s6,19f34 <_svfiprintf_r+0x1c6>
   19f28:	03000793          	li	a5,48
   19f2c:	0cf10da3          	sb	a5,219(sp)
   19f30:	0db10c13          	addi	s8,sp,219
   19f34:	87e6                	mv	a5,s9
   19f36:	016cd363          	bge	s9,s6,19f3c <_svfiprintf_r+0x1ce>
   19f3a:	87da                	mv	a5,s6
   19f3c:	05714603          	lbu	a2,87(sp)
   19f40:	0007899b          	sext.w	s3,a5
   19f44:	c639                	beqz	a2,19f92 <_svfiprintf_r+0x224>
   19f46:	0017899b          	addiw	s3,a5,1
   19f4a:	a0a1                	j	19f92 <_svfiprintf_r+0x224>
   19f4c:	4401                	li	s0,0
   19f4e:	0d85                	addi	s11,s11,1
   19f50:	fffdc583          	lbu	a1,-1(s11)
   19f54:	0024179b          	slliw	a5,s0,0x2
   19f58:	9c3d                	addw	s0,s0,a5
   19f5a:	fd06061b          	addiw	a2,a2,-48
   19f5e:	0014141b          	slliw	s0,s0,0x1
   19f62:	fd05879b          	addiw	a5,a1,-48
   19f66:	9c31                	addw	s0,s0,a2
   19f68:	0005861b          	sext.w	a2,a1
   19f6c:	fef9f1e3          	bgeu	s3,a5,19f4e <_svfiprintf_r+0x1e0>
   19f70:	fe06079b          	addiw	a5,a2,-32
   19f74:	0007859b          	sext.w	a1,a5
   19f78:	ecb579e3          	bgeu	a0,a1,19e4a <_svfiprintf_r+0xdc>
   19f7c:	f00601e3          	beqz	a2,19e7e <_svfiprintf_r+0x110>
   19f80:	06c10c23          	sb	a2,120(sp)
   19f84:	04010ba3          	sb	zero,87(sp)
   19f88:	4985                	li	s3,1
   19f8a:	4b05                	li	s6,1
   19f8c:	07810c13          	addi	s8,sp,120
   19f90:	4c81                	li	s9,0
   19f92:	002d7e93          	andi	t4,s10,2
   19f96:	2e81                	sext.w	t4,t4
   19f98:	000e8363          	beqz	t4,19f9e <_svfiprintf_r+0x230>
   19f9c:	2989                	addiw	s3,s3,2
   19f9e:	084d7b93          	andi	s7,s10,132
   19fa2:	77c6                	ld	a5,112(sp)
   19fa4:	5626                	lw	a2,104(sp)
   19fa6:	000b9663          	bnez	s7,19fb2 <_svfiprintf_r+0x244>
   19faa:	41340e3b          	subw	t3,s0,s3
   19fae:	57c04663          	bgtz	t3,1a51a <_svfiprintf_r+0x7ac>
   19fb2:	05714f03          	lbu	t5,87(sp)
   19fb6:	0016051b          	addiw	a0,a2,1
   19fba:	01070593          	addi	a1,a4,16
   19fbe:	020f0763          	beqz	t5,19fec <_svfiprintf_r+0x27e>
   19fc2:	05710f13          	addi	t5,sp,87
   19fc6:	0785                	addi	a5,a5,1
   19fc8:	01e73023          	sd	t5,0(a4)
   19fcc:	4f05                	li	t5,1
   19fce:	01e73423          	sd	t5,8(a4)
   19fd2:	f8be                	sd	a5,112(sp)
   19fd4:	d4aa                	sw	a0,104(sp)
   19fd6:	4e1d                	li	t3,7
   19fd8:	5cae4763          	blt	t3,a0,1a5a6 <_svfiprintf_r+0x838>
   19fdc:	00260f1b          	addiw	t5,a2,2
   19fe0:	02070e13          	addi	t3,a4,32
   19fe4:	862a                	mv	a2,a0
   19fe6:	872e                	mv	a4,a1
   19fe8:	857a                	mv	a0,t5
   19fea:	85f2                	mv	a1,t3
   19fec:	020e8063          	beqz	t4,1a00c <_svfiprintf_r+0x29e>
   19ff0:	08b0                	addi	a2,sp,88
   19ff2:	e310                	sd	a2,0(a4)
   19ff4:	0789                	addi	a5,a5,2
   19ff6:	4609                	li	a2,2
   19ff8:	e710                	sd	a2,8(a4)
   19ffa:	f8be                	sd	a5,112(sp)
   19ffc:	d4aa                	sw	a0,104(sp)
   19ffe:	471d                	li	a4,7
   1a000:	5ca74363          	blt	a4,a0,1a5c6 <_svfiprintf_r+0x858>
   1a004:	862a                	mv	a2,a0
   1a006:	872e                	mv	a4,a1
   1a008:	2505                	addiw	a0,a0,1
   1a00a:	05c1                	addi	a1,a1,16
   1a00c:	08000e13          	li	t3,128
   1a010:	3dcb8c63          	beq	s7,t3,1a3e8 <_svfiprintf_r+0x67a>
   1a014:	416c8cbb          	subw	s9,s9,s6
   1a018:	45904b63          	bgtz	s9,1a46e <_svfiprintf_r+0x700>
   1a01c:	97da                	add	a5,a5,s6
   1a01e:	01873023          	sd	s8,0(a4)
   1a022:	01673423          	sd	s6,8(a4)
   1a026:	f8be                	sd	a5,112(sp)
   1a028:	d4aa                	sw	a0,104(sp)
   1a02a:	471d                	li	a4,7
   1a02c:	4ca74363          	blt	a4,a0,1a4f2 <_svfiprintf_r+0x784>
   1a030:	004d7893          	andi	a7,s10,4
   1a034:	00088663          	beqz	a7,1a040 <_svfiprintf_r+0x2d2>
   1a038:	41340b3b          	subw	s6,s0,s3
   1a03c:	5b604363          	bgtz	s6,1a5e2 <_svfiprintf_r+0x874>
   1a040:	8722                	mv	a4,s0
   1a042:	01345363          	bge	s0,s3,1a048 <_svfiprintf_r+0x2da>
   1a046:	874e                	mv	a4,s3
   1a048:	6682                	ld	a3,0(sp)
   1a04a:	9f35                	addw	a4,a4,a3
   1a04c:	e03a                	sd	a4,0(sp)
   1a04e:	4a079c63          	bnez	a5,1a506 <_svfiprintf_r+0x798>
   1a052:	d482                	sw	zero,104(sp)
   1a054:	8726                	mv	a4,s1
   1a056:	bb85                	j	19dc6 <_svfiprintf_r+0x58>
   1a058:	66a2                	ld	a3,8(sp)
   1a05a:	04010ba3          	sb	zero,87(sp)
   1a05e:	4985                	li	s3,1
   1a060:	429c                	lw	a5,0(a3)
   1a062:	06a1                	addi	a3,a3,8
   1a064:	e436                	sd	a3,8(sp)
   1a066:	06f10c23          	sb	a5,120(sp)
   1a06a:	4b05                	li	s6,1
   1a06c:	07810c13          	addi	s8,sp,120
   1a070:	b705                	j	19f90 <_svfiprintf_r+0x222>
   1a072:	001d6893          	ori	a7,s10,1
   1a076:	00088d1b          	sext.w	s10,a7
   1a07a:	000dc603          	lbu	a2,0(s11)
   1a07e:	bb65                	j	19e36 <_svfiprintf_r+0xc8>
   1a080:	000dc603          	lbu	a2,0(s11)
   1a084:	004d6893          	ori	a7,s10,4
   1a088:	00088d1b          	sext.w	s10,a7
   1a08c:	b36d                	j	19e36 <_svfiprintf_r+0xc8>
   1a08e:	02b00793          	li	a5,43
   1a092:	04f10ba3          	sb	a5,87(sp)
   1a096:	000dc603          	lbu	a2,0(s11)
   1a09a:	bb71                	j	19e36 <_svfiprintf_r+0xc8>
   1a09c:	67a2                	ld	a5,8(sp)
   1a09e:	000dc603          	lbu	a2,0(s11)
   1a0a2:	4380                	lw	s0,0(a5)
   1a0a4:	07a1                	addi	a5,a5,8
   1a0a6:	e43e                	sd	a5,8(sp)
   1a0a8:	d80457e3          	bgez	s0,19e36 <_svfiprintf_r+0xc8>
   1a0ac:	4080043b          	negw	s0,s0
   1a0b0:	bfd1                	j	1a084 <_svfiprintf_r+0x316>
   1a0b2:	8552                	mv	a0,s4
   1a0b4:	ec3a                	sd	a4,24(sp)
   1a0b6:	ab3fa0ef          	jal	ra,14b68 <_localeconv_r>
   1a0ba:	651c                	ld	a5,8(a0)
   1a0bc:	853e                	mv	a0,a5
   1a0be:	fc3e                	sd	a5,56(sp)
   1a0c0:	a8afc0ef          	jal	ra,1634a <strlen>
   1a0c4:	e0aa                	sd	a0,64(sp)
   1a0c6:	8baa                	mv	s7,a0
   1a0c8:	8552                	mv	a0,s4
   1a0ca:	a9ffa0ef          	jal	ra,14b68 <_localeconv_r>
   1a0ce:	6914                	ld	a3,16(a0)
   1a0d0:	6762                	ld	a4,24(sp)
   1a0d2:	000dc603          	lbu	a2,0(s11)
   1a0d6:	f836                	sd	a3,48(sp)
   1a0d8:	d40b8fe3          	beqz	s7,19e36 <_svfiprintf_r+0xc8>
   1a0dc:	d4068de3          	beqz	a3,19e36 <_svfiprintf_r+0xc8>
   1a0e0:	0006c783          	lbu	a5,0(a3)
   1a0e4:	d40789e3          	beqz	a5,19e36 <_svfiprintf_r+0xc8>
   1a0e8:	400d6893          	ori	a7,s10,1024
   1a0ec:	00088d1b          	sext.w	s10,a7
   1a0f0:	b399                	j	19e36 <_svfiprintf_r+0xc8>
   1a0f2:	080d6893          	ori	a7,s10,128
   1a0f6:	00088d1b          	sext.w	s10,a7
   1a0fa:	000dc603          	lbu	a2,0(s11)
   1a0fe:	bb25                	j	19e36 <_svfiprintf_r+0xc8>
   1a100:	000dc603          	lbu	a2,0(s11)
   1a104:	001d8793          	addi	a5,s11,1
   1a108:	77660163          	beq	a2,s6,1a86a <_svfiprintf_r+0xafc>
   1a10c:	fd06059b          	addiw	a1,a2,-48
   1a110:	8dbe                	mv	s11,a5
   1a112:	4c81                	li	s9,0
   1a114:	d2b9e5e3          	bltu	s3,a1,19e3e <_svfiprintf_r+0xd0>
   1a118:	0d85                	addi	s11,s11,1
   1a11a:	002c979b          	slliw	a5,s9,0x2
   1a11e:	fffdc603          	lbu	a2,-1(s11)
   1a122:	019786bb          	addw	a3,a5,s9
   1a126:	0016969b          	slliw	a3,a3,0x1
   1a12a:	00b68cbb          	addw	s9,a3,a1
   1a12e:	fd06059b          	addiw	a1,a2,-48
   1a132:	feb9f3e3          	bgeu	s3,a1,1a118 <_svfiprintf_r+0x3aa>
   1a136:	b321                	j	19e3e <_svfiprintf_r+0xd0>
   1a138:	67a2                	ld	a5,8(sp)
   1a13a:	010d6e13          	ori	t3,s10,16
   1a13e:	2e01                	sext.w	t3,t3
   1a140:	00878613          	addi	a2,a5,8
   1a144:	67a2                	ld	a5,8(sp)
   1a146:	0007b983          	ld	s3,0(a5)
   1a14a:	4785                	li	a5,1
   1a14c:	e432                	sd	a2,8(sp)
   1a14e:	bb45                	j	19efe <_svfiprintf_r+0x190>
   1a150:	67a2                	ld	a5,8(sp)
   1a152:	04010ba3          	sb	zero,87(sp)
   1a156:	0007bc03          	ld	s8,0(a5)
   1a15a:	00878b93          	addi	s7,a5,8
   1a15e:	620c0863          	beqz	s8,1a78e <_svfiprintf_r+0xa20>
   1a162:	57fd                	li	a5,-1
   1a164:	52fc8e63          	beq	s9,a5,1a6a0 <_svfiprintf_r+0x932>
   1a168:	8666                	mv	a2,s9
   1a16a:	4581                	li	a1,0
   1a16c:	8562                	mv	a0,s8
   1a16e:	e43a                	sd	a4,8(sp)
   1a170:	a56fb0ef          	jal	ra,153c6 <memchr>
   1a174:	6722                	ld	a4,8(sp)
   1a176:	6c050763          	beqz	a0,1a844 <_svfiprintf_r+0xad6>
   1a17a:	41850b3b          	subw	s6,a0,s8
   1a17e:	e45e                	sd	s7,8(sp)
   1a180:	4c81                	li	s9,0
   1a182:	bb4d                	j	19f34 <_svfiprintf_r+0x1c6>
   1a184:	010d6793          	ori	a5,s10,16
   1a188:	0007889b          	sext.w	a7,a5
   1a18c:	67a2                	ld	a5,8(sp)
   1a18e:	07a1                	addi	a5,a5,8
   1a190:	66a2                	ld	a3,8(sp)
   1a192:	0006b983          	ld	s3,0(a3)
   1a196:	e43e                	sd	a5,8(sp)
   1a198:	bff8f893          	andi	a7,a7,-1025
   1a19c:	00088e1b          	sext.w	t3,a7
   1a1a0:	4781                	li	a5,0
   1a1a2:	bbb1                	j	19efe <_svfiprintf_r+0x190>
   1a1a4:	67a2                	ld	a5,8(sp)
   1a1a6:	010d6e13          	ori	t3,s10,16
   1a1aa:	2e01                	sext.w	t3,t3
   1a1ac:	00878613          	addi	a2,a5,8
   1a1b0:	67a2                	ld	a5,8(sp)
   1a1b2:	639c                	ld	a5,0(a5)
   1a1b4:	e432                	sd	a2,8(sp)
   1a1b6:	89be                	mv	s3,a5
   1a1b8:	1207ce63          	bltz	a5,1a2f4 <_svfiprintf_r+0x586>
   1a1bc:	57fd                	li	a5,-1
   1a1be:	00fc8963          	beq	s9,a5,1a1d0 <_svfiprintf_r+0x462>
   1a1c2:	f7fe7893          	andi	a7,t3,-129
   1a1c6:	00088d1b          	sext.w	s10,a7
   1a1ca:	48098963          	beqz	s3,1a65c <_svfiprintf_r+0x8ee>
   1a1ce:	8e6a                	mv	t3,s10
   1a1d0:	47a5                	li	a5,9
   1a1d2:	5137e163          	bltu	a5,s3,1a6d4 <_svfiprintf_r+0x966>
   1a1d6:	0309899b          	addiw	s3,s3,48
   1a1da:	0d310da3          	sb	s3,219(sp)
   1a1de:	8d72                	mv	s10,t3
   1a1e0:	4b05                	li	s6,1
   1a1e2:	0db10c13          	addi	s8,sp,219
   1a1e6:	b3b9                	j	19f34 <_svfiprintf_r+0x1c6>
   1a1e8:	020d6893          	ori	a7,s10,32
   1a1ec:	00088d1b          	sext.w	s10,a7
   1a1f0:	000dc603          	lbu	a2,0(s11)
   1a1f4:	b189                	j	19e36 <_svfiprintf_r+0xc8>
   1a1f6:	67a2                	ld	a5,8(sp)
   1a1f8:	66a6                	ld	a3,72(sp)
   1a1fa:	002d6893          	ori	a7,s10,2
   1a1fe:	0007b983          	ld	s3,0(a5)
   1a202:	07a1                	addi	a5,a5,8
   1a204:	e43e                	sd	a5,8(sp)
   1a206:	00002797          	auipc	a5,0x2
   1a20a:	07a78793          	addi	a5,a5,122 # 1c280 <zeroes.4541+0x60>
   1a20e:	e83e                	sd	a5,16(sp)
   1a210:	00088e1b          	sext.w	t3,a7
   1a214:	04d11c23          	sh	a3,88(sp)
   1a218:	4789                	li	a5,2
   1a21a:	b1d5                	j	19efe <_svfiprintf_r+0x190>
   1a21c:	66a2                	ld	a3,8(sp)
   1a21e:	020d7793          	andi	a5,s10,32
   1a222:	00868613          	addi	a2,a3,8
   1a226:	46079663          	bnez	a5,1a692 <_svfiprintf_r+0x924>
   1a22a:	010d7793          	andi	a5,s10,16
   1a22e:	46079263          	bnez	a5,1a692 <_svfiprintf_r+0x924>
   1a232:	66a2                	ld	a3,8(sp)
   1a234:	040d7793          	andi	a5,s10,64
   1a238:	0006a983          	lw	s3,0(a3)
   1a23c:	56078a63          	beqz	a5,1a7b0 <_svfiprintf_r+0xa42>
   1a240:	19c2                	slli	s3,s3,0x30
   1a242:	0309d993          	srli	s3,s3,0x30
   1a246:	e432                	sd	a2,8(sp)
   1a248:	8e6a                	mv	t3,s10
   1a24a:	4785                	li	a5,1
   1a24c:	b94d                	j	19efe <_svfiprintf_r+0x190>
   1a24e:	05714783          	lbu	a5,87(sp)
   1a252:	000dc603          	lbu	a2,0(s11)
   1a256:	be0790e3          	bnez	a5,19e36 <_svfiprintf_r+0xc8>
   1a25a:	02000793          	li	a5,32
   1a25e:	04f10ba3          	sb	a5,87(sp)
   1a262:	bed1                	j	19e36 <_svfiprintf_r+0xc8>
   1a264:	000dc603          	lbu	a2,0(s11)
   1a268:	06c00793          	li	a5,108
   1a26c:	4ef60a63          	beq	a2,a5,1a760 <_svfiprintf_r+0x9f2>
   1a270:	010d6893          	ori	a7,s10,16
   1a274:	00088d1b          	sext.w	s10,a7
   1a278:	be7d                	j	19e36 <_svfiprintf_r+0xc8>
   1a27a:	66a2                	ld	a3,8(sp)
   1a27c:	00002797          	auipc	a5,0x2
   1a280:	00478793          	addi	a5,a5,4 # 1c280 <zeroes.4541+0x60>
   1a284:	e83e                	sd	a5,16(sp)
   1a286:	020d7793          	andi	a5,s10,32
   1a28a:	00868593          	addi	a1,a3,8
   1a28e:	c40791e3          	bnez	a5,19ed0 <_svfiprintf_r+0x162>
   1a292:	010d7793          	andi	a5,s10,16
   1a296:	40079063          	bnez	a5,1a696 <_svfiprintf_r+0x928>
   1a29a:	66a2                	ld	a3,8(sp)
   1a29c:	040d7793          	andi	a5,s10,64
   1a2a0:	0006a983          	lw	s3,0(a3)
   1a2a4:	52078063          	beqz	a5,1a7c4 <_svfiprintf_r+0xa56>
   1a2a8:	19c2                	slli	s3,s3,0x30
   1a2aa:	0309d993          	srli	s3,s3,0x30
   1a2ae:	b11d                	j	19ed4 <_svfiprintf_r+0x166>
   1a2b0:	000dc603          	lbu	a2,0(s11)
   1a2b4:	06800793          	li	a5,104
   1a2b8:	48f60b63          	beq	a2,a5,1a74e <_svfiprintf_r+0x9e0>
   1a2bc:	040d6893          	ori	a7,s10,64
   1a2c0:	00088d1b          	sext.w	s10,a7
   1a2c4:	be8d                	j	19e36 <_svfiprintf_r+0xc8>
   1a2c6:	66a2                	ld	a3,8(sp)
   1a2c8:	020d7793          	andi	a5,s10,32
   1a2cc:	00868613          	addi	a2,a3,8
   1a2d0:	3a079f63          	bnez	a5,1a68e <_svfiprintf_r+0x920>
   1a2d4:	010d7793          	andi	a5,s10,16
   1a2d8:	3a079b63          	bnez	a5,1a68e <_svfiprintf_r+0x920>
   1a2dc:	040d7793          	andi	a5,s10,64
   1a2e0:	50078163          	beqz	a5,1a7e2 <_svfiprintf_r+0xa74>
   1a2e4:	67a2                	ld	a5,8(sp)
   1a2e6:	e432                	sd	a2,8(sp)
   1a2e8:	8e6a                	mv	t3,s10
   1a2ea:	00079983          	lh	s3,0(a5)
   1a2ee:	87ce                	mv	a5,s3
   1a2f0:	ec07d6e3          	bgez	a5,1a1bc <_svfiprintf_r+0x44e>
   1a2f4:	02d00793          	li	a5,45
   1a2f8:	04f10ba3          	sb	a5,87(sp)
   1a2fc:	567d                	li	a2,-1
   1a2fe:	413009b3          	neg	s3,s3
   1a302:	4785                	li	a5,1
   1a304:	c0cc92e3          	bne	s9,a2,19f08 <_svfiprintf_r+0x19a>
   1a308:	4605                	li	a2,1
   1a30a:	ecc783e3          	beq	a5,a2,1a1d0 <_svfiprintf_r+0x462>
   1a30e:	4609                	li	a2,2
   1a310:	0ac78863          	beq	a5,a2,1a3c0 <_svfiprintf_r+0x652>
   1a314:	09f0                	addi	a2,sp,220
   1a316:	a011                	j	1a31a <_svfiprintf_r+0x5ac>
   1a318:	8662                	mv	a2,s8
   1a31a:	0079f793          	andi	a5,s3,7
   1a31e:	03078793          	addi	a5,a5,48
   1a322:	fef60fa3          	sb	a5,-1(a2)
   1a326:	0039d993          	srli	s3,s3,0x3
   1a32a:	fff60c13          	addi	s8,a2,-1
   1a32e:	fe0995e3          	bnez	s3,1a318 <_svfiprintf_r+0x5aa>
   1a332:	001e7593          	andi	a1,t3,1
   1a336:	c5c5                	beqz	a1,1a3de <_svfiprintf_r+0x670>
   1a338:	03000593          	li	a1,48
   1a33c:	0ab78163          	beq	a5,a1,1a3de <_svfiprintf_r+0x670>
   1a340:	1679                	addi	a2,a2,-2
   1a342:	09fc                	addi	a5,sp,220
   1a344:	febc0fa3          	sb	a1,-1(s8)
   1a348:	40c78b3b          	subw	s6,a5,a2
   1a34c:	8d72                	mv	s10,t3
   1a34e:	8c32                	mv	s8,a2
   1a350:	b6d5                	j	19f34 <_svfiprintf_r+0x1c6>
   1a352:	67a2                	ld	a5,8(sp)
   1a354:	020d7613          	andi	a2,s10,32
   1a358:	07a1                	addi	a5,a5,8
   1a35a:	32061863          	bnez	a2,1a68a <_svfiprintf_r+0x91c>
   1a35e:	010d7613          	andi	a2,s10,16
   1a362:	32061463          	bnez	a2,1a68a <_svfiprintf_r+0x91c>
   1a366:	66a2                	ld	a3,8(sp)
   1a368:	040d7613          	andi	a2,s10,64
   1a36c:	0006a983          	lw	s3,0(a3)
   1a370:	46060163          	beqz	a2,1a7d2 <_svfiprintf_r+0xa64>
   1a374:	19c2                	slli	s3,s3,0x30
   1a376:	0309d993          	srli	s3,s3,0x30
   1a37a:	88ea                	mv	a7,s10
   1a37c:	e43e                	sd	a5,8(sp)
   1a37e:	bd29                	j	1a198 <_svfiprintf_r+0x42a>
   1a380:	6622                	ld	a2,8(sp)
   1a382:	020d7793          	andi	a5,s10,32
   1a386:	6214                	ld	a3,0(a2)
   1a388:	0621                	addi	a2,a2,8
   1a38a:	e432                	sd	a2,8(sp)
   1a38c:	e385                	bnez	a5,1a3ac <_svfiprintf_r+0x63e>
   1a38e:	010d7793          	andi	a5,s10,16
   1a392:	ef89                	bnez	a5,1a3ac <_svfiprintf_r+0x63e>
   1a394:	040d7793          	andi	a5,s10,64
   1a398:	48079f63          	bnez	a5,1a836 <_svfiprintf_r+0xac8>
   1a39c:	200d7893          	andi	a7,s10,512
   1a3a0:	6782                	ld	a5,0(sp)
   1a3a2:	4a088d63          	beqz	a7,1a85c <_svfiprintf_r+0xaee>
   1a3a6:	00f68023          	sb	a5,0(a3)
   1a3aa:	bc31                	j	19dc6 <_svfiprintf_r+0x58>
   1a3ac:	6782                	ld	a5,0(sp)
   1a3ae:	e29c                	sd	a5,0(a3)
   1a3b0:	bc19                	j	19dc6 <_svfiprintf_r+0x58>
   1a3b2:	4605                	li	a2,1
   1a3b4:	48c78663          	beq	a5,a2,1a840 <_svfiprintf_r+0xad2>
   1a3b8:	4609                	li	a2,2
   1a3ba:	8e6a                	mv	t3,s10
   1a3bc:	f4c79ce3          	bne	a5,a2,1a314 <_svfiprintf_r+0x5a6>
   1a3c0:	0dc10c13          	addi	s8,sp,220
   1a3c4:	66c2                	ld	a3,16(sp)
   1a3c6:	00f9f793          	andi	a5,s3,15
   1a3ca:	1c7d                	addi	s8,s8,-1
   1a3cc:	97b6                	add	a5,a5,a3
   1a3ce:	0007c783          	lbu	a5,0(a5)
   1a3d2:	0049d993          	srli	s3,s3,0x4
   1a3d6:	00fc0023          	sb	a5,0(s8)
   1a3da:	fe0995e3          	bnez	s3,1a3c4 <_svfiprintf_r+0x656>
   1a3de:	09fc                	addi	a5,sp,220
   1a3e0:	41878b3b          	subw	s6,a5,s8
   1a3e4:	8d72                	mv	s10,t3
   1a3e6:	b6b9                	j	19f34 <_svfiprintf_r+0x1c6>
   1a3e8:	41340e3b          	subw	t3,s0,s3
   1a3ec:	c3c054e3          	blez	t3,1a014 <_svfiprintf_r+0x2a6>
   1a3f0:	4ec1                	li	t4,16
   1a3f2:	45cede63          	bge	t4,t3,1a84e <_svfiprintf_r+0xae0>
   1a3f6:	00003b97          	auipc	s7,0x3
   1a3fa:	852b8b93          	addi	s7,s7,-1966 # 1cc48 <zeroes.4503>
   1a3fe:	4f41                	li	t5,16
   1a400:	4f9d                	li	t6,7
   1a402:	a021                	j	1a40a <_svfiprintf_r+0x69c>
   1a404:	3e41                	addiw	t3,t3,-16
   1a406:	03cf5e63          	bge	t5,t3,1a442 <_svfiprintf_r+0x6d4>
   1a40a:	2605                	addiw	a2,a2,1
   1a40c:	07c1                	addi	a5,a5,16
   1a40e:	01773023          	sd	s7,0(a4)
   1a412:	01e73423          	sd	t5,8(a4)
   1a416:	f8be                	sd	a5,112(sp)
   1a418:	d4b2                	sw	a2,104(sp)
   1a41a:	0741                	addi	a4,a4,16
   1a41c:	fecfd4e3          	bge	t6,a2,1a404 <_svfiprintf_r+0x696>
   1a420:	1090                	addi	a2,sp,96
   1a422:	85ca                	mv	a1,s2
   1a424:	8552                	mv	a0,s4
   1a426:	ec72                	sd	t3,24(sp)
   1a428:	fe8ff0ef          	jal	ra,19c10 <__ssprint_r>
   1a42c:	a60510e3          	bnez	a0,19e8c <_svfiprintf_r+0x11e>
   1a430:	6e62                	ld	t3,24(sp)
   1a432:	4f41                	li	t5,16
   1a434:	77c6                	ld	a5,112(sp)
   1a436:	3e41                	addiw	t3,t3,-16
   1a438:	5626                	lw	a2,104(sp)
   1a43a:	8726                	mv	a4,s1
   1a43c:	4f9d                	li	t6,7
   1a43e:	fdcf46e3          	blt	t5,t3,1a40a <_svfiprintf_r+0x69c>
   1a442:	2605                	addiw	a2,a2,1
   1a444:	01070f13          	addi	t5,a4,16
   1a448:	97f2                	add	a5,a5,t3
   1a44a:	01773023          	sd	s7,0(a4)
   1a44e:	01c73423          	sd	t3,8(a4)
   1a452:	f8be                	sd	a5,112(sp)
   1a454:	d4b2                	sw	a2,104(sp)
   1a456:	471d                	li	a4,7
   1a458:	30c74d63          	blt	a4,a2,1a772 <_svfiprintf_r+0xa04>
   1a45c:	416c8cbb          	subw	s9,s9,s6
   1a460:	0016051b          	addiw	a0,a2,1
   1a464:	010f0593          	addi	a1,t5,16
   1a468:	877a                	mv	a4,t5
   1a46a:	bb9059e3          	blez	s9,1a01c <_svfiprintf_r+0x2ae>
   1a46e:	4e41                	li	t3,16
   1a470:	399e5363          	bge	t3,s9,1a7f6 <_svfiprintf_r+0xa88>
   1a474:	00002b97          	auipc	s7,0x2
   1a478:	7d4b8b93          	addi	s7,s7,2004 # 1cc48 <zeroes.4503>
   1a47c:	4f1d                	li	t5,7
   1a47e:	a021                	j	1a486 <_svfiprintf_r+0x718>
   1a480:	3cc1                	addiw	s9,s9,-16
   1a482:	039e5c63          	bge	t3,s9,1a4ba <_svfiprintf_r+0x74c>
   1a486:	2605                	addiw	a2,a2,1
   1a488:	07c1                	addi	a5,a5,16
   1a48a:	01773023          	sd	s7,0(a4)
   1a48e:	01c73423          	sd	t3,8(a4)
   1a492:	f8be                	sd	a5,112(sp)
   1a494:	d4b2                	sw	a2,104(sp)
   1a496:	0741                	addi	a4,a4,16
   1a498:	fecf54e3          	bge	t5,a2,1a480 <_svfiprintf_r+0x712>
   1a49c:	1090                	addi	a2,sp,96
   1a49e:	85ca                	mv	a1,s2
   1a4a0:	8552                	mv	a0,s4
   1a4a2:	f6eff0ef          	jal	ra,19c10 <__ssprint_r>
   1a4a6:	9e0513e3          	bnez	a0,19e8c <_svfiprintf_r+0x11e>
   1a4aa:	4e41                	li	t3,16
   1a4ac:	3cc1                	addiw	s9,s9,-16
   1a4ae:	77c6                	ld	a5,112(sp)
   1a4b0:	5626                	lw	a2,104(sp)
   1a4b2:	8726                	mv	a4,s1
   1a4b4:	4f1d                	li	t5,7
   1a4b6:	fd9e48e3          	blt	t3,s9,1a486 <_svfiprintf_r+0x718>
   1a4ba:	0016051b          	addiw	a0,a2,1
   1a4be:	01070613          	addi	a2,a4,16
   1a4c2:	97e6                	add	a5,a5,s9
   1a4c4:	01773023          	sd	s7,0(a4)
   1a4c8:	01973423          	sd	s9,8(a4)
   1a4cc:	f8be                	sd	a5,112(sp)
   1a4ce:	d4aa                	sw	a0,104(sp)
   1a4d0:	471d                	li	a4,7
   1a4d2:	18a74c63          	blt	a4,a0,1a66a <_svfiprintf_r+0x8fc>
   1a4d6:	8732                	mv	a4,a2
   1a4d8:	2505                	addiw	a0,a0,1
   1a4da:	97da                	add	a5,a5,s6
   1a4dc:	01873023          	sd	s8,0(a4)
   1a4e0:	01673423          	sd	s6,8(a4)
   1a4e4:	f8be                	sd	a5,112(sp)
   1a4e6:	d4aa                	sw	a0,104(sp)
   1a4e8:	471d                	li	a4,7
   1a4ea:	01060593          	addi	a1,a2,16
   1a4ee:	b4a751e3          	bge	a4,a0,1a030 <_svfiprintf_r+0x2c2>
   1a4f2:	1090                	addi	a2,sp,96
   1a4f4:	85ca                	mv	a1,s2
   1a4f6:	8552                	mv	a0,s4
   1a4f8:	f18ff0ef          	jal	ra,19c10 <__ssprint_r>
   1a4fc:	980518e3          	bnez	a0,19e8c <_svfiprintf_r+0x11e>
   1a500:	77c6                	ld	a5,112(sp)
   1a502:	85a6                	mv	a1,s1
   1a504:	b635                	j	1a030 <_svfiprintf_r+0x2c2>
   1a506:	1090                	addi	a2,sp,96
   1a508:	85ca                	mv	a1,s2
   1a50a:	8552                	mv	a0,s4
   1a50c:	f04ff0ef          	jal	ra,19c10 <__ssprint_r>
   1a510:	b40501e3          	beqz	a0,1a052 <_svfiprintf_r+0x2e4>
   1a514:	baa5                	j	19e8c <_svfiprintf_r+0x11e>
   1a516:	8e6a                	mv	t3,s10
   1a518:	bbc5                	j	1a308 <_svfiprintf_r+0x59a>
   1a51a:	45c1                	li	a1,16
   1a51c:	00002f17          	auipc	t5,0x2
   1a520:	71cf0f13          	addi	t5,t5,1820 # 1cc38 <blanks.4502>
   1a524:	4fc1                	li	t6,16
   1a526:	439d                	li	t2,7
   1a528:	01c5c663          	blt	a1,t3,1a534 <_svfiprintf_r+0x7c6>
   1a52c:	a0a1                	j	1a574 <_svfiprintf_r+0x806>
   1a52e:	3e41                	addiw	t3,t3,-16
   1a530:	05cfd263          	bge	t6,t3,1a574 <_svfiprintf_r+0x806>
   1a534:	2605                	addiw	a2,a2,1
   1a536:	07c1                	addi	a5,a5,16
   1a538:	01e73023          	sd	t5,0(a4)
   1a53c:	01f73423          	sd	t6,8(a4)
   1a540:	f8be                	sd	a5,112(sp)
   1a542:	d4b2                	sw	a2,104(sp)
   1a544:	0741                	addi	a4,a4,16
   1a546:	fec3d4e3          	bge	t2,a2,1a52e <_svfiprintf_r+0x7c0>
   1a54a:	1090                	addi	a2,sp,96
   1a54c:	85ca                	mv	a1,s2
   1a54e:	8552                	mv	a0,s4
   1a550:	f47a                	sd	t5,40(sp)
   1a552:	f072                	sd	t3,32(sp)
   1a554:	ec76                	sd	t4,24(sp)
   1a556:	ebaff0ef          	jal	ra,19c10 <__ssprint_r>
   1a55a:	920519e3          	bnez	a0,19e8c <_svfiprintf_r+0x11e>
   1a55e:	7e02                	ld	t3,32(sp)
   1a560:	4fc1                	li	t6,16
   1a562:	77c6                	ld	a5,112(sp)
   1a564:	3e41                	addiw	t3,t3,-16
   1a566:	5626                	lw	a2,104(sp)
   1a568:	8726                	mv	a4,s1
   1a56a:	7f22                	ld	t5,40(sp)
   1a56c:	439d                	li	t2,7
   1a56e:	6ee2                	ld	t4,24(sp)
   1a570:	fdcfc2e3          	blt	t6,t3,1a534 <_svfiprintf_r+0x7c6>
   1a574:	2605                	addiw	a2,a2,1
   1a576:	97f2                	add	a5,a5,t3
   1a578:	01e73023          	sd	t5,0(a4)
   1a57c:	01c73423          	sd	t3,8(a4)
   1a580:	f8be                	sd	a5,112(sp)
   1a582:	d4b2                	sw	a2,104(sp)
   1a584:	459d                	li	a1,7
   1a586:	0741                	addi	a4,a4,16
   1a588:	a2c5d5e3          	bge	a1,a2,19fb2 <_svfiprintf_r+0x244>
   1a58c:	1090                	addi	a2,sp,96
   1a58e:	85ca                	mv	a1,s2
   1a590:	8552                	mv	a0,s4
   1a592:	ec76                	sd	t4,24(sp)
   1a594:	e7cff0ef          	jal	ra,19c10 <__ssprint_r>
   1a598:	8e051ae3          	bnez	a0,19e8c <_svfiprintf_r+0x11e>
   1a59c:	77c6                	ld	a5,112(sp)
   1a59e:	5626                	lw	a2,104(sp)
   1a5a0:	8726                	mv	a4,s1
   1a5a2:	6ee2                	ld	t4,24(sp)
   1a5a4:	b439                	j	19fb2 <_svfiprintf_r+0x244>
   1a5a6:	1090                	addi	a2,sp,96
   1a5a8:	85ca                	mv	a1,s2
   1a5aa:	8552                	mv	a0,s4
   1a5ac:	ec76                	sd	t4,24(sp)
   1a5ae:	e62ff0ef          	jal	ra,19c10 <__ssprint_r>
   1a5b2:	8c051de3          	bnez	a0,19e8c <_svfiprintf_r+0x11e>
   1a5b6:	5626                	lw	a2,104(sp)
   1a5b8:	77c6                	ld	a5,112(sp)
   1a5ba:	198c                	addi	a1,sp,240
   1a5bc:	0016051b          	addiw	a0,a2,1
   1a5c0:	8726                	mv	a4,s1
   1a5c2:	6ee2                	ld	t4,24(sp)
   1a5c4:	b425                	j	19fec <_svfiprintf_r+0x27e>
   1a5c6:	1090                	addi	a2,sp,96
   1a5c8:	85ca                	mv	a1,s2
   1a5ca:	8552                	mv	a0,s4
   1a5cc:	e44ff0ef          	jal	ra,19c10 <__ssprint_r>
   1a5d0:	8a051ee3          	bnez	a0,19e8c <_svfiprintf_r+0x11e>
   1a5d4:	5626                	lw	a2,104(sp)
   1a5d6:	77c6                	ld	a5,112(sp)
   1a5d8:	198c                	addi	a1,sp,240
   1a5da:	0016051b          	addiw	a0,a2,1
   1a5de:	8726                	mv	a4,s1
   1a5e0:	b435                	j	1a00c <_svfiprintf_r+0x29e>
   1a5e2:	46c1                	li	a3,16
   1a5e4:	5726                	lw	a4,104(sp)
   1a5e6:	00002f17          	auipc	t5,0x2
   1a5ea:	652f0f13          	addi	t5,t5,1618 # 1cc38 <blanks.4502>
   1a5ee:	4cc1                	li	s9,16
   1a5f0:	4c1d                	li	s8,7
   1a5f2:	0166c663          	blt	a3,s6,1a5fe <_svfiprintf_r+0x890>
   1a5f6:	a835                	j	1a632 <_svfiprintf_r+0x8c4>
   1a5f8:	3b41                	addiw	s6,s6,-16
   1a5fa:	036cdc63          	bge	s9,s6,1a632 <_svfiprintf_r+0x8c4>
   1a5fe:	2705                	addiw	a4,a4,1
   1a600:	07c1                	addi	a5,a5,16
   1a602:	01e5b023          	sd	t5,0(a1)
   1a606:	0195b423          	sd	s9,8(a1)
   1a60a:	f8be                	sd	a5,112(sp)
   1a60c:	d4ba                	sw	a4,104(sp)
   1a60e:	05c1                	addi	a1,a1,16
   1a610:	feec54e3          	bge	s8,a4,1a5f8 <_svfiprintf_r+0x88a>
   1a614:	1090                	addi	a2,sp,96
   1a616:	85ca                	mv	a1,s2
   1a618:	8552                	mv	a0,s4
   1a61a:	ec7a                	sd	t5,24(sp)
   1a61c:	df4ff0ef          	jal	ra,19c10 <__ssprint_r>
   1a620:	860516e3          	bnez	a0,19e8c <_svfiprintf_r+0x11e>
   1a624:	3b41                	addiw	s6,s6,-16
   1a626:	77c6                	ld	a5,112(sp)
   1a628:	5726                	lw	a4,104(sp)
   1a62a:	85a6                	mv	a1,s1
   1a62c:	6f62                	ld	t5,24(sp)
   1a62e:	fd6cc8e3          	blt	s9,s6,1a5fe <_svfiprintf_r+0x890>
   1a632:	0017069b          	addiw	a3,a4,1
   1a636:	97da                	add	a5,a5,s6
   1a638:	01e5b023          	sd	t5,0(a1)
   1a63c:	0165b423          	sd	s6,8(a1)
   1a640:	f8be                	sd	a5,112(sp)
   1a642:	d4b6                	sw	a3,104(sp)
   1a644:	471d                	li	a4,7
   1a646:	9ed75de3          	bge	a4,a3,1a040 <_svfiprintf_r+0x2d2>
   1a64a:	1090                	addi	a2,sp,96
   1a64c:	85ca                	mv	a1,s2
   1a64e:	8552                	mv	a0,s4
   1a650:	dc0ff0ef          	jal	ra,19c10 <__ssprint_r>
   1a654:	82051ce3          	bnez	a0,19e8c <_svfiprintf_r+0x11e>
   1a658:	77c6                	ld	a5,112(sp)
   1a65a:	b2dd                	j	1a040 <_svfiprintf_r+0x2d2>
   1a65c:	1e0c9263          	bnez	s9,1a840 <_svfiprintf_r+0xad2>
   1a660:	4c81                	li	s9,0
   1a662:	4b01                	li	s6,0
   1a664:	0dc10c13          	addi	s8,sp,220
   1a668:	b0f1                	j	19f34 <_svfiprintf_r+0x1c6>
   1a66a:	1090                	addi	a2,sp,96
   1a66c:	85ca                	mv	a1,s2
   1a66e:	8552                	mv	a0,s4
   1a670:	da0ff0ef          	jal	ra,19c10 <__ssprint_r>
   1a674:	80051ce3          	bnez	a0,19e8c <_svfiprintf_r+0x11e>
   1a678:	5526                	lw	a0,104(sp)
   1a67a:	77c6                	ld	a5,112(sp)
   1a67c:	198c                	addi	a1,sp,240
   1a67e:	2505                	addiw	a0,a0,1
   1a680:	8726                	mv	a4,s1
   1a682:	ba69                	j	1a01c <_svfiprintf_r+0x2ae>
   1a684:	89ee                	mv	s3,s11
   1a686:	f98ff06f          	j	19e1e <_svfiprintf_r+0xb0>
   1a68a:	88ea                	mv	a7,s10
   1a68c:	b611                	j	1a190 <_svfiprintf_r+0x422>
   1a68e:	8e6a                	mv	t3,s10
   1a690:	b605                	j	1a1b0 <_svfiprintf_r+0x442>
   1a692:	8e6a                	mv	t3,s10
   1a694:	bc45                	j	1a144 <_svfiprintf_r+0x3d6>
   1a696:	67a2                	ld	a5,8(sp)
   1a698:	0007b983          	ld	s3,0(a5)
   1a69c:	839ff06f          	j	19ed4 <_svfiprintf_r+0x166>
   1a6a0:	8562                	mv	a0,s8
   1a6a2:	ec3a                	sd	a4,24(sp)
   1a6a4:	ca7fb0ef          	jal	ra,1634a <strlen>
   1a6a8:	00050b1b          	sext.w	s6,a0
   1a6ac:	e45e                	sd	s7,8(sp)
   1a6ae:	4c81                	li	s9,0
   1a6b0:	6762                	ld	a4,24(sp)
   1a6b2:	b049                	j	19f34 <_svfiprintf_r+0x1c6>
   1a6b4:	04000593          	li	a1,64
   1a6b8:	e64fa0ef          	jal	ra,14d1c <_malloc_r>
   1a6bc:	00a93023          	sd	a0,0(s2)
   1a6c0:	00a93c23          	sd	a0,24(s2)
   1a6c4:	1c050163          	beqz	a0,1a886 <_svfiprintf_r+0xb18>
   1a6c8:	04000793          	li	a5,64
   1a6cc:	02f92023          	sw	a5,32(s2)
   1a6d0:	ed2ff06f          	j	19da2 <_svfiprintf_r+0x34>
   1a6d4:	400e7893          	andi	a7,t3,1024
   1a6d8:	2881                	sext.w	a7,a7
   1a6da:	4581                	li	a1,0
   1a6dc:	09f0                	addi	a2,sp,220
   1a6de:	4b29                	li	s6,10
   1a6e0:	4d25                	li	s10,9
   1a6e2:	0ff00b93          	li	s7,255
   1a6e6:	a039                	j	1a6f4 <_svfiprintf_r+0x986>
   1a6e8:	0369d7b3          	divu	a5,s3,s6
   1a6ec:	cf3d79e3          	bgeu	s10,s3,1a3de <_svfiprintf_r+0x670>
   1a6f0:	89be                	mv	s3,a5
   1a6f2:	8662                	mv	a2,s8
   1a6f4:	fff60c13          	addi	s8,a2,-1
   1a6f8:	2585                	addiw	a1,a1,1
   1a6fa:	0369f7b3          	remu	a5,s3,s6
   1a6fe:	0307879b          	addiw	a5,a5,48
   1a702:	fef60fa3          	sb	a5,-1(a2)
   1a706:	fe0881e3          	beqz	a7,1a6e8 <_svfiprintf_r+0x97a>
   1a70a:	77c2                	ld	a5,48(sp)
   1a70c:	0007c783          	lbu	a5,0(a5)
   1a710:	fcb79ce3          	bne	a5,a1,1a6e8 <_svfiprintf_r+0x97a>
   1a714:	fd778ae3          	beq	a5,s7,1a6e8 <_svfiprintf_r+0x97a>
   1a718:	cd3d73e3          	bgeu	s10,s3,1a3de <_svfiprintf_r+0x670>
   1a71c:	6786                	ld	a5,64(sp)
   1a71e:	75e2                	ld	a1,56(sp)
   1a720:	f446                	sd	a7,40(sp)
   1a722:	40fc0c33          	sub	s8,s8,a5
   1a726:	863e                	mv	a2,a5
   1a728:	8562                	mv	a0,s8
   1a72a:	f072                	sd	t3,32(sp)
   1a72c:	ec3a                	sd	a4,24(sp)
   1a72e:	cb5fb0ef          	jal	ra,163e2 <strncpy>
   1a732:	7742                	ld	a4,48(sp)
   1a734:	0369d7b3          	divu	a5,s3,s6
   1a738:	4581                	li	a1,0
   1a73a:	00174603          	lbu	a2,1(a4)
   1a73e:	7e02                	ld	t3,32(sp)
   1a740:	78a2                	ld	a7,40(sp)
   1a742:	00c03633          	snez	a2,a2
   1a746:	9732                	add	a4,a4,a2
   1a748:	f83a                	sd	a4,48(sp)
   1a74a:	6762                	ld	a4,24(sp)
   1a74c:	b755                	j	1a6f0 <_svfiprintf_r+0x982>
   1a74e:	200d6893          	ori	a7,s10,512
   1a752:	001dc603          	lbu	a2,1(s11)
   1a756:	00088d1b          	sext.w	s10,a7
   1a75a:	0d85                	addi	s11,s11,1
   1a75c:	edaff06f          	j	19e36 <_svfiprintf_r+0xc8>
   1a760:	020d6893          	ori	a7,s10,32
   1a764:	001dc603          	lbu	a2,1(s11)
   1a768:	00088d1b          	sext.w	s10,a7
   1a76c:	0d85                	addi	s11,s11,1
   1a76e:	ec8ff06f          	j	19e36 <_svfiprintf_r+0xc8>
   1a772:	1090                	addi	a2,sp,96
   1a774:	85ca                	mv	a1,s2
   1a776:	8552                	mv	a0,s4
   1a778:	c98ff0ef          	jal	ra,19c10 <__ssprint_r>
   1a77c:	f0051863          	bnez	a0,19e8c <_svfiprintf_r+0x11e>
   1a780:	5626                	lw	a2,104(sp)
   1a782:	77c6                	ld	a5,112(sp)
   1a784:	198c                	addi	a1,sp,240
   1a786:	0016051b          	addiw	a0,a2,1
   1a78a:	8726                	mv	a4,s1
   1a78c:	b061                	j	1a014 <_svfiprintf_r+0x2a6>
   1a78e:	000c861b          	sext.w	a2,s9
   1a792:	4799                	li	a5,6
   1a794:	86e6                	mv	a3,s9
   1a796:	00c7f363          	bgeu	a5,a2,1a79c <_svfiprintf_r+0xa2e>
   1a79a:	4699                	li	a3,6
   1a79c:	00068b1b          	sext.w	s6,a3
   1a7a0:	89da                	mv	s3,s6
   1a7a2:	e45e                	sd	s7,8(sp)
   1a7a4:	00002c17          	auipc	s8,0x2
   1a7a8:	b0cc0c13          	addi	s8,s8,-1268 # 1c2b0 <zeroes.4541+0x90>
   1a7ac:	fe4ff06f          	j	19f90 <_svfiprintf_r+0x222>
   1a7b0:	200d7793          	andi	a5,s10,512
   1a7b4:	cbad                	beqz	a5,1a826 <_svfiprintf_r+0xab8>
   1a7b6:	0ff9f993          	andi	s3,s3,255
   1a7ba:	e432                	sd	a2,8(sp)
   1a7bc:	8e6a                	mv	t3,s10
   1a7be:	4785                	li	a5,1
   1a7c0:	f3eff06f          	j	19efe <_svfiprintf_r+0x190>
   1a7c4:	200d7793          	andi	a5,s10,512
   1a7c8:	cbb1                	beqz	a5,1a81c <_svfiprintf_r+0xaae>
   1a7ca:	0ff9f993          	andi	s3,s3,255
   1a7ce:	f06ff06f          	j	19ed4 <_svfiprintf_r+0x166>
   1a7d2:	200d7613          	andi	a2,s10,512
   1a7d6:	ce0d                	beqz	a2,1a810 <_svfiprintf_r+0xaa2>
   1a7d8:	0ff9f993          	andi	s3,s3,255
   1a7dc:	88ea                	mv	a7,s10
   1a7de:	e43e                	sd	a5,8(sp)
   1a7e0:	ba65                	j	1a198 <_svfiprintf_r+0x42a>
   1a7e2:	200d7793          	andi	a5,s10,512
   1a7e6:	cf91                	beqz	a5,1a802 <_svfiprintf_r+0xa94>
   1a7e8:	67a2                	ld	a5,8(sp)
   1a7ea:	8e6a                	mv	t3,s10
   1a7ec:	e432                	sd	a2,8(sp)
   1a7ee:	00078983          	lb	s3,0(a5)
   1a7f2:	87ce                	mv	a5,s3
   1a7f4:	b2d1                	j	1a1b8 <_svfiprintf_r+0x44a>
   1a7f6:	862e                	mv	a2,a1
   1a7f8:	00002b97          	auipc	s7,0x2
   1a7fc:	450b8b93          	addi	s7,s7,1104 # 1cc48 <zeroes.4503>
   1a800:	b1c9                	j	1a4c2 <_svfiprintf_r+0x754>
   1a802:	67a2                	ld	a5,8(sp)
   1a804:	8e6a                	mv	t3,s10
   1a806:	e432                	sd	a2,8(sp)
   1a808:	0007a983          	lw	s3,0(a5)
   1a80c:	87ce                	mv	a5,s3
   1a80e:	b26d                	j	1a1b8 <_svfiprintf_r+0x44a>
   1a810:	1982                	slli	s3,s3,0x20
   1a812:	0209d993          	srli	s3,s3,0x20
   1a816:	88ea                	mv	a7,s10
   1a818:	e43e                	sd	a5,8(sp)
   1a81a:	babd                	j	1a198 <_svfiprintf_r+0x42a>
   1a81c:	1982                	slli	s3,s3,0x20
   1a81e:	0209d993          	srli	s3,s3,0x20
   1a822:	eb2ff06f          	j	19ed4 <_svfiprintf_r+0x166>
   1a826:	1982                	slli	s3,s3,0x20
   1a828:	0209d993          	srli	s3,s3,0x20
   1a82c:	e432                	sd	a2,8(sp)
   1a82e:	8e6a                	mv	t3,s10
   1a830:	4785                	li	a5,1
   1a832:	eccff06f          	j	19efe <_svfiprintf_r+0x190>
   1a836:	6782                	ld	a5,0(sp)
   1a838:	00f69023          	sh	a5,0(a3)
   1a83c:	d8aff06f          	j	19dc6 <_svfiprintf_r+0x58>
   1a840:	8e6a                	mv	t3,s10
   1a842:	ba51                	j	1a1d6 <_svfiprintf_r+0x468>
   1a844:	8b66                	mv	s6,s9
   1a846:	e45e                	sd	s7,8(sp)
   1a848:	4c81                	li	s9,0
   1a84a:	eeaff06f          	j	19f34 <_svfiprintf_r+0x1c6>
   1a84e:	8f2e                	mv	t5,a1
   1a850:	862a                	mv	a2,a0
   1a852:	00002b97          	auipc	s7,0x2
   1a856:	3f6b8b93          	addi	s7,s7,1014 # 1cc48 <zeroes.4503>
   1a85a:	b6fd                	j	1a448 <_svfiprintf_r+0x6da>
   1a85c:	c29c                	sw	a5,0(a3)
   1a85e:	d68ff06f          	j	19dc6 <_svfiprintf_r+0x58>
   1a862:	57fd                	li	a5,-1
   1a864:	e03e                	sd	a5,0(sp)
   1a866:	e32ff06f          	j	19e98 <_svfiprintf_r+0x12a>
   1a86a:	6622                	ld	a2,8(sp)
   1a86c:	4214                	lw	a3,0(a2)
   1a86e:	00860b93          	addi	s7,a2,8
   1a872:	0006d363          	bgez	a3,1a878 <_svfiprintf_r+0xb0a>
   1a876:	56fd                	li	a3,-1
   1a878:	001dc603          	lbu	a2,1(s11)
   1a87c:	8cb6                	mv	s9,a3
   1a87e:	e45e                	sd	s7,8(sp)
   1a880:	8dbe                	mv	s11,a5
   1a882:	db4ff06f          	j	19e36 <_svfiprintf_r+0xc8>
   1a886:	47b1                	li	a5,12
   1a888:	00fa2023          	sw	a5,0(s4)
   1a88c:	57fd                	li	a5,-1
   1a88e:	e03e                	sd	a5,0(sp)
   1a890:	e08ff06f          	j	19e98 <_svfiprintf_r+0x12a>

000000000001a894 <__swbuf_r>:
   1a894:	7179                	addi	sp,sp,-48
   1a896:	f022                	sd	s0,32(sp)
   1a898:	ec26                	sd	s1,24(sp)
   1a89a:	e84a                	sd	s2,16(sp)
   1a89c:	f406                	sd	ra,40(sp)
   1a89e:	e44e                	sd	s3,8(sp)
   1a8a0:	892a                	mv	s2,a0
   1a8a2:	84ae                	mv	s1,a1
   1a8a4:	8432                	mv	s0,a2
   1a8a6:	c119                	beqz	a0,1a8ac <__swbuf_r+0x18>
   1a8a8:	493c                	lw	a5,80(a0)
   1a8aa:	c3ed                	beqz	a5,1a98c <__swbuf_r+0xf8>
   1a8ac:	01041703          	lh	a4,16(s0)
   1a8b0:	541c                	lw	a5,40(s0)
   1a8b2:	03071693          	slli	a3,a4,0x30
   1a8b6:	92c1                	srli	a3,a3,0x30
   1a8b8:	c45c                	sw	a5,12(s0)
   1a8ba:	0086f793          	andi	a5,a3,8
   1a8be:	cbb9                	beqz	a5,1a914 <__swbuf_r+0x80>
   1a8c0:	6c1c                	ld	a5,24(s0)
   1a8c2:	cba9                	beqz	a5,1a914 <__swbuf_r+0x80>
   1a8c4:	0ff4f993          	andi	s3,s1,255
   1a8c8:	03269613          	slli	a2,a3,0x32
   1a8cc:	84ce                	mv	s1,s3
   1a8ce:	06065563          	bgez	a2,1a938 <__swbuf_r+0xa4>
   1a8d2:	6018                	ld	a4,0(s0)
   1a8d4:	5014                	lw	a3,32(s0)
   1a8d6:	40f707bb          	subw	a5,a4,a5
   1a8da:	08d7d063          	bge	a5,a3,1a95a <__swbuf_r+0xc6>
   1a8de:	4454                	lw	a3,12(s0)
   1a8e0:	00170613          	addi	a2,a4,1
   1a8e4:	e010                	sd	a2,0(s0)
   1a8e6:	36fd                	addiw	a3,a3,-1
   1a8e8:	c454                	sw	a3,12(s0)
   1a8ea:	01370023          	sb	s3,0(a4)
   1a8ee:	5018                	lw	a4,32(s0)
   1a8f0:	2785                	addiw	a5,a5,1
   1a8f2:	08f70663          	beq	a4,a5,1a97e <__swbuf_r+0xea>
   1a8f6:	01045783          	lhu	a5,16(s0)
   1a8fa:	8b85                	andi	a5,a5,1
   1a8fc:	c781                	beqz	a5,1a904 <__swbuf_r+0x70>
   1a8fe:	47a9                	li	a5,10
   1a900:	06f48f63          	beq	s1,a5,1a97e <__swbuf_r+0xea>
   1a904:	70a2                	ld	ra,40(sp)
   1a906:	7402                	ld	s0,32(sp)
   1a908:	8526                	mv	a0,s1
   1a90a:	6942                	ld	s2,16(sp)
   1a90c:	64e2                	ld	s1,24(sp)
   1a90e:	69a2                	ld	s3,8(sp)
   1a910:	6145                	addi	sp,sp,48
   1a912:	8082                	ret
   1a914:	85a2                	mv	a1,s0
   1a916:	854a                	mv	a0,s2
   1a918:	ecef70ef          	jal	ra,11fe6 <__swsetup_r>
   1a91c:	e535                	bnez	a0,1a988 <__swbuf_r+0xf4>
   1a91e:	01041703          	lh	a4,16(s0)
   1a922:	0ff4f993          	andi	s3,s1,255
   1a926:	6c1c                	ld	a5,24(s0)
   1a928:	03071693          	slli	a3,a4,0x30
   1a92c:	92c1                	srli	a3,a3,0x30
   1a92e:	03269613          	slli	a2,a3,0x32
   1a932:	84ce                	mv	s1,s3
   1a934:	f8064fe3          	bltz	a2,1a8d2 <__swbuf_r+0x3e>
   1a938:	0ac42683          	lw	a3,172(s0)
   1a93c:	6609                	lui	a2,0x2
   1a93e:	8f51                	or	a4,a4,a2
   1a940:	7679                	lui	a2,0xffffe
   1a942:	167d                	addi	a2,a2,-1
   1a944:	8ef1                	and	a3,a3,a2
   1a946:	00e41823          	sh	a4,16(s0)
   1a94a:	6018                	ld	a4,0(s0)
   1a94c:	0ad42623          	sw	a3,172(s0)
   1a950:	5014                	lw	a3,32(s0)
   1a952:	40f707bb          	subw	a5,a4,a5
   1a956:	f8d7c4e3          	blt	a5,a3,1a8de <__swbuf_r+0x4a>
   1a95a:	85a2                	mv	a1,s0
   1a95c:	854a                	mv	a0,s2
   1a95e:	a4df70ef          	jal	ra,123aa <_fflush_r>
   1a962:	e11d                	bnez	a0,1a988 <__swbuf_r+0xf4>
   1a964:	6018                	ld	a4,0(s0)
   1a966:	4454                	lw	a3,12(s0)
   1a968:	4785                	li	a5,1
   1a96a:	00170613          	addi	a2,a4,1
   1a96e:	36fd                	addiw	a3,a3,-1
   1a970:	e010                	sd	a2,0(s0)
   1a972:	c454                	sw	a3,12(s0)
   1a974:	01370023          	sb	s3,0(a4)
   1a978:	5018                	lw	a4,32(s0)
   1a97a:	f6f71ee3          	bne	a4,a5,1a8f6 <__swbuf_r+0x62>
   1a97e:	85a2                	mv	a1,s0
   1a980:	854a                	mv	a0,s2
   1a982:	a29f70ef          	jal	ra,123aa <_fflush_r>
   1a986:	dd3d                	beqz	a0,1a904 <__swbuf_r+0x70>
   1a988:	54fd                	li	s1,-1
   1a98a:	bfad                	j	1a904 <__swbuf_r+0x70>
   1a98c:	cbff70ef          	jal	ra,1264a <__sinit>
   1a990:	bf31                	j	1a8ac <__swbuf_r+0x18>

000000000001a992 <__swbuf>:
   1a992:	75818793          	addi	a5,gp,1880 # 1eef8 <_impure_ptr>
   1a996:	862e                	mv	a2,a1
   1a998:	85aa                	mv	a1,a0
   1a99a:	6388                	ld	a0,0(a5)
   1a99c:	bde5                	j	1a894 <__swbuf_r>

000000000001a99e <_wcrtomb_r>:
   1a99e:	7179                	addi	sp,sp,-48
   1a9a0:	f022                	sd	s0,32(sp)
   1a9a2:	ec26                	sd	s1,24(sp)
   1a9a4:	d6018793          	addi	a5,gp,-672 # 1e500 <__global_locale>
   1a9a8:	f406                	sd	ra,40(sp)
   1a9aa:	842a                	mv	s0,a0
   1a9ac:	84b6                	mv	s1,a3
   1a9ae:	73fc                	ld	a5,224(a5)
   1a9b0:	c991                	beqz	a1,1a9c4 <_wcrtomb_r+0x26>
   1a9b2:	9782                	jalr	a5
   1a9b4:	57fd                	li	a5,-1
   1a9b6:	00f50d63          	beq	a0,a5,1a9d0 <_wcrtomb_r+0x32>
   1a9ba:	70a2                	ld	ra,40(sp)
   1a9bc:	7402                	ld	s0,32(sp)
   1a9be:	64e2                	ld	s1,24(sp)
   1a9c0:	6145                	addi	sp,sp,48
   1a9c2:	8082                	ret
   1a9c4:	4601                	li	a2,0
   1a9c6:	858a                	mv	a1,sp
   1a9c8:	9782                	jalr	a5
   1a9ca:	57fd                	li	a5,-1
   1a9cc:	fef517e3          	bne	a0,a5,1a9ba <_wcrtomb_r+0x1c>
   1a9d0:	0004a023          	sw	zero,0(s1)
   1a9d4:	08a00793          	li	a5,138
   1a9d8:	c01c                	sw	a5,0(s0)
   1a9da:	70a2                	ld	ra,40(sp)
   1a9dc:	7402                	ld	s0,32(sp)
   1a9de:	64e2                	ld	s1,24(sp)
   1a9e0:	6145                	addi	sp,sp,48
   1a9e2:	8082                	ret

000000000001a9e4 <wcrtomb>:
   1a9e4:	7179                	addi	sp,sp,-48
   1a9e6:	75818793          	addi	a5,gp,1880 # 1eef8 <_impure_ptr>
   1a9ea:	f022                	sd	s0,32(sp)
   1a9ec:	ec26                	sd	s1,24(sp)
   1a9ee:	6380                	ld	s0,0(a5)
   1a9f0:	f406                	sd	ra,40(sp)
   1a9f2:	d6018793          	addi	a5,gp,-672 # 1e500 <__global_locale>
   1a9f6:	84b2                	mv	s1,a2
   1a9f8:	73fc                	ld	a5,224(a5)
   1a9fa:	86b2                	mv	a3,a2
   1a9fc:	cd09                	beqz	a0,1aa16 <wcrtomb+0x32>
   1a9fe:	862e                	mv	a2,a1
   1aa00:	85aa                	mv	a1,a0
   1aa02:	8522                	mv	a0,s0
   1aa04:	9782                	jalr	a5
   1aa06:	57fd                	li	a5,-1
   1aa08:	00f50e63          	beq	a0,a5,1aa24 <wcrtomb+0x40>
   1aa0c:	70a2                	ld	ra,40(sp)
   1aa0e:	7402                	ld	s0,32(sp)
   1aa10:	64e2                	ld	s1,24(sp)
   1aa12:	6145                	addi	sp,sp,48
   1aa14:	8082                	ret
   1aa16:	4601                	li	a2,0
   1aa18:	858a                	mv	a1,sp
   1aa1a:	8522                	mv	a0,s0
   1aa1c:	9782                	jalr	a5
   1aa1e:	57fd                	li	a5,-1
   1aa20:	fef516e3          	bne	a0,a5,1aa0c <wcrtomb+0x28>
   1aa24:	0004a023          	sw	zero,0(s1)
   1aa28:	08a00793          	li	a5,138
   1aa2c:	c01c                	sw	a5,0(s0)
   1aa2e:	70a2                	ld	ra,40(sp)
   1aa30:	7402                	ld	s0,32(sp)
   1aa32:	64e2                	ld	s1,24(sp)
   1aa34:	6145                	addi	sp,sp,48
   1aa36:	8082                	ret

000000000001aa38 <_close>:
   1aa38:	4581                	li	a1,0
   1aa3a:	4601                	li	a2,0
   1aa3c:	4681                	li	a3,0
   1aa3e:	4701                	li	a4,0
   1aa40:	4781                	li	a5,0
   1aa42:	03900893          	li	a7,57
   1aa46:	00000073          	ecall
   1aa4a:	00054463          	bltz	a0,1aa52 <_close+0x1a>
   1aa4e:	2501                	sext.w	a0,a0
   1aa50:	8082                	ret
   1aa52:	1141                	addi	sp,sp,-16
   1aa54:	e022                	sd	s0,0(sp)
   1aa56:	e406                	sd	ra,8(sp)
   1aa58:	842a                	mv	s0,a0
   1aa5a:	208000ef          	jal	ra,1ac62 <__errno>
   1aa5e:	408007bb          	negw	a5,s0
   1aa62:	60a2                	ld	ra,8(sp)
   1aa64:	6402                	ld	s0,0(sp)
   1aa66:	c11c                	sw	a5,0(a0)
   1aa68:	557d                	li	a0,-1
   1aa6a:	0141                	addi	sp,sp,16
   1aa6c:	8082                	ret

000000000001aa6e <_exit>:
   1aa6e:	4581                	li	a1,0
   1aa70:	4601                	li	a2,0
   1aa72:	4681                	li	a3,0
   1aa74:	4701                	li	a4,0
   1aa76:	4781                	li	a5,0
   1aa78:	05d00893          	li	a7,93
   1aa7c:	00000073          	ecall
   1aa80:	00054363          	bltz	a0,1aa86 <_exit+0x18>
   1aa84:	a001                	j	1aa84 <_exit+0x16>
   1aa86:	1141                	addi	sp,sp,-16
   1aa88:	e022                	sd	s0,0(sp)
   1aa8a:	842a                	mv	s0,a0
   1aa8c:	e406                	sd	ra,8(sp)
   1aa8e:	4080043b          	negw	s0,s0
   1aa92:	1d0000ef          	jal	ra,1ac62 <__errno>
   1aa96:	c100                	sw	s0,0(a0)
   1aa98:	a001                	j	1aa98 <_exit+0x2a>

000000000001aa9a <_fstat>:
   1aa9a:	7135                	addi	sp,sp,-160
   1aa9c:	e526                	sd	s1,136(sp)
   1aa9e:	ed06                	sd	ra,152(sp)
   1aaa0:	84ae                	mv	s1,a1
   1aaa2:	e922                	sd	s0,144(sp)
   1aaa4:	4601                	li	a2,0
   1aaa6:	858a                	mv	a1,sp
   1aaa8:	4681                	li	a3,0
   1aaaa:	4701                	li	a4,0
   1aaac:	4781                	li	a5,0
   1aaae:	05000893          	li	a7,80
   1aab2:	00000073          	ecall
   1aab6:	842a                	mv	s0,a0
   1aab8:	00054e63          	bltz	a0,1aad4 <_fstat+0x3a>
   1aabc:	0005041b          	sext.w	s0,a0
   1aac0:	8526                	mv	a0,s1
   1aac2:	858a                	mv	a1,sp
   1aac4:	144000ef          	jal	ra,1ac08 <_conv_stat>
   1aac8:	8522                	mv	a0,s0
   1aaca:	60ea                	ld	ra,152(sp)
   1aacc:	644a                	ld	s0,144(sp)
   1aace:	64aa                	ld	s1,136(sp)
   1aad0:	610d                	addi	sp,sp,160
   1aad2:	8082                	ret
   1aad4:	4080043b          	negw	s0,s0
   1aad8:	18a000ef          	jal	ra,1ac62 <__errno>
   1aadc:	c100                	sw	s0,0(a0)
   1aade:	547d                	li	s0,-1
   1aae0:	b7c5                	j	1aac0 <_fstat+0x26>

000000000001aae2 <_isatty>:
   1aae2:	7119                	addi	sp,sp,-128
   1aae4:	002c                	addi	a1,sp,8
   1aae6:	fc86                	sd	ra,120(sp)
   1aae8:	fb3ff0ef          	jal	ra,1aa9a <_fstat>
   1aaec:	57fd                	li	a5,-1
   1aaee:	00f50963          	beq	a0,a5,1ab00 <_isatty+0x1e>
   1aaf2:	4532                	lw	a0,12(sp)
   1aaf4:	70e6                	ld	ra,120(sp)
   1aaf6:	40d5551b          	sraiw	a0,a0,0xd
   1aafa:	8905                	andi	a0,a0,1
   1aafc:	6109                	addi	sp,sp,128
   1aafe:	8082                	ret
   1ab00:	70e6                	ld	ra,120(sp)
   1ab02:	4501                	li	a0,0
   1ab04:	6109                	addi	sp,sp,128
   1ab06:	8082                	ret

000000000001ab08 <_lseek>:
   1ab08:	1141                	addi	sp,sp,-16
   1ab0a:	e406                	sd	ra,8(sp)
   1ab0c:	e022                	sd	s0,0(sp)
   1ab0e:	4681                	li	a3,0
   1ab10:	4701                	li	a4,0
   1ab12:	4781                	li	a5,0
   1ab14:	03e00893          	li	a7,62
   1ab18:	00000073          	ecall
   1ab1c:	842a                	mv	s0,a0
   1ab1e:	00054763          	bltz	a0,1ab2c <_lseek+0x24>
   1ab22:	8522                	mv	a0,s0
   1ab24:	60a2                	ld	ra,8(sp)
   1ab26:	6402                	ld	s0,0(sp)
   1ab28:	0141                	addi	sp,sp,16
   1ab2a:	8082                	ret
   1ab2c:	4080043b          	negw	s0,s0
   1ab30:	132000ef          	jal	ra,1ac62 <__errno>
   1ab34:	c100                	sw	s0,0(a0)
   1ab36:	547d                	li	s0,-1
   1ab38:	b7ed                	j	1ab22 <_lseek+0x1a>

000000000001ab3a <_read>:
   1ab3a:	1141                	addi	sp,sp,-16
   1ab3c:	e406                	sd	ra,8(sp)
   1ab3e:	e022                	sd	s0,0(sp)
   1ab40:	4681                	li	a3,0
   1ab42:	4701                	li	a4,0
   1ab44:	4781                	li	a5,0
   1ab46:	03f00893          	li	a7,63
   1ab4a:	00000073          	ecall
   1ab4e:	842a                	mv	s0,a0
   1ab50:	00054763          	bltz	a0,1ab5e <_read+0x24>
   1ab54:	8522                	mv	a0,s0
   1ab56:	60a2                	ld	ra,8(sp)
   1ab58:	6402                	ld	s0,0(sp)
   1ab5a:	0141                	addi	sp,sp,16
   1ab5c:	8082                	ret
   1ab5e:	4080043b          	negw	s0,s0
   1ab62:	100000ef          	jal	ra,1ac62 <__errno>
   1ab66:	c100                	sw	s0,0(a0)
   1ab68:	547d                	li	s0,-1
   1ab6a:	b7ed                	j	1ab54 <_read+0x1a>

000000000001ab6c <_sbrk>:
   1ab6c:	79018313          	addi	t1,gp,1936 # 1ef30 <heap_end.1900>
   1ab70:	00033783          	ld	a5,0(t1)
   1ab74:	1141                	addi	sp,sp,-16
   1ab76:	e406                	sd	ra,8(sp)
   1ab78:	882a                	mv	a6,a0
   1ab7a:	e385                	bnez	a5,1ab9a <_sbrk+0x2e>
   1ab7c:	4501                	li	a0,0
   1ab7e:	4581                	li	a1,0
   1ab80:	4601                	li	a2,0
   1ab82:	4681                	li	a3,0
   1ab84:	4701                	li	a4,0
   1ab86:	0d600893          	li	a7,214
   1ab8a:	00000073          	ecall
   1ab8e:	57fd                	li	a5,-1
   1ab90:	02f50b63          	beq	a0,a5,1abc6 <_sbrk+0x5a>
   1ab94:	87aa                	mv	a5,a0
   1ab96:	78a1b823          	sd	a0,1936(gp) # 1ef30 <heap_end.1900>
   1ab9a:	00f80533          	add	a0,a6,a5
   1ab9e:	4581                	li	a1,0
   1aba0:	4601                	li	a2,0
   1aba2:	4681                	li	a3,0
   1aba4:	4701                	li	a4,0
   1aba6:	4781                	li	a5,0
   1aba8:	0d600893          	li	a7,214
   1abac:	00000073          	ecall
   1abb0:	00033783          	ld	a5,0(t1)
   1abb4:	983e                	add	a6,a6,a5
   1abb6:	01051863          	bne	a0,a6,1abc6 <_sbrk+0x5a>
   1abba:	60a2                	ld	ra,8(sp)
   1abbc:	78a1b823          	sd	a0,1936(gp) # 1ef30 <heap_end.1900>
   1abc0:	853e                	mv	a0,a5
   1abc2:	0141                	addi	sp,sp,16
   1abc4:	8082                	ret
   1abc6:	09c000ef          	jal	ra,1ac62 <__errno>
   1abca:	60a2                	ld	ra,8(sp)
   1abcc:	47b1                	li	a5,12
   1abce:	c11c                	sw	a5,0(a0)
   1abd0:	557d                	li	a0,-1
   1abd2:	0141                	addi	sp,sp,16
   1abd4:	8082                	ret

000000000001abd6 <_write>:
   1abd6:	1141                	addi	sp,sp,-16
   1abd8:	e406                	sd	ra,8(sp)
   1abda:	e022                	sd	s0,0(sp)
   1abdc:	4681                	li	a3,0
   1abde:	4701                	li	a4,0
   1abe0:	4781                	li	a5,0
   1abe2:	04000893          	li	a7,64
   1abe6:	00000073          	ecall
   1abea:	842a                	mv	s0,a0
   1abec:	00054763          	bltz	a0,1abfa <_write+0x24>
   1abf0:	8522                	mv	a0,s0
   1abf2:	60a2                	ld	ra,8(sp)
   1abf4:	6402                	ld	s0,0(sp)
   1abf6:	0141                	addi	sp,sp,16
   1abf8:	8082                	ret
   1abfa:	4080043b          	negw	s0,s0
   1abfe:	064000ef          	jal	ra,1ac62 <__errno>
   1ac02:	c100                	sw	s0,0(a0)
   1ac04:	547d                	li	s0,-1
   1ac06:	b7ed                	j	1abf0 <_write+0x1a>

000000000001ac08 <_conv_stat>:
   1ac08:	0005b383          	ld	t2,0(a1)
   1ac0c:	0085b283          	ld	t0,8(a1)
   1ac10:	0105af83          	lw	t6,16(a1)
   1ac14:	0145af03          	lw	t5,20(a1)
   1ac18:	0185ae83          	lw	t4,24(a1)
   1ac1c:	01c5ae03          	lw	t3,28(a1)
   1ac20:	0205b303          	ld	t1,32(a1)
   1ac24:	0305b883          	ld	a7,48(a1)
   1ac28:	0405b803          	ld	a6,64(a1)
   1ac2c:	5d90                	lw	a2,56(a1)
   1ac2e:	65b4                	ld	a3,72(a1)
   1ac30:	6db8                	ld	a4,88(a1)
   1ac32:	75bc                	ld	a5,104(a1)
   1ac34:	00751023          	sh	t2,0(a0)
   1ac38:	00551123          	sh	t0,2(a0)
   1ac3c:	01f52223          	sw	t6,4(a0)
   1ac40:	01e51423          	sh	t5,8(a0)
   1ac44:	01d51523          	sh	t4,10(a0)
   1ac48:	01c51623          	sh	t3,12(a0)
   1ac4c:	00651723          	sh	t1,14(a0)
   1ac50:	01153823          	sd	a7,16(a0)
   1ac54:	05053823          	sd	a6,80(a0)
   1ac58:	e530                	sd	a2,72(a0)
   1ac5a:	ed14                	sd	a3,24(a0)
   1ac5c:	f518                	sd	a4,40(a0)
   1ac5e:	fd1c                	sd	a5,56(a0)
   1ac60:	8082                	ret

000000000001ac62 <__errno>:
   1ac62:	75818793          	addi	a5,gp,1880 # 1eef8 <_impure_ptr>
   1ac66:	6388                	ld	a0,0(a5)
   1ac68:	8082                	ret

000000000001ac6a <__eqtf2>:
   1ac6a:	002027f3          	frrm	a5
   1ac6e:	6721                	lui	a4,0x8
   1ac70:	0305d893          	srli	a7,a1,0x30
   1ac74:	177d                	addi	a4,a4,-1
   1ac76:	57fd                	li	a5,-1
   1ac78:	83c1                	srli	a5,a5,0x10
   1ac7a:	0306d313          	srli	t1,a3,0x30
   1ac7e:	00e8f8b3          	and	a7,a7,a4
   1ac82:	00f5f833          	and	a6,a1,a5
   1ac86:	00e37333          	and	t1,t1,a4
   1ac8a:	8ff5                	and	a5,a5,a3
   1ac8c:	91fd                	srli	a1,a1,0x3f
   1ac8e:	92fd                	srli	a3,a3,0x3f
   1ac90:	00e89963          	bne	a7,a4,1aca2 <__eqtf2+0x38>
   1ac94:	00a86733          	or	a4,a6,a0
   1ac98:	e739                	bnez	a4,1ace6 <__eqtf2+0x7c>
   1ac9a:	4705                	li	a4,1
   1ac9c:	03131763          	bne	t1,a7,1acca <__eqtf2+0x60>
   1aca0:	a019                	j	1aca6 <__eqtf2+0x3c>
   1aca2:	00e31563          	bne	t1,a4,1acac <__eqtf2+0x42>
   1aca6:	00c7e733          	or	a4,a5,a2
   1acaa:	e71d                	bnez	a4,1acd8 <__eqtf2+0x6e>
   1acac:	4705                	li	a4,1
   1acae:	00689e63          	bne	a7,t1,1acca <__eqtf2+0x60>
   1acb2:	00f81c63          	bne	a6,a5,1acca <__eqtf2+0x60>
   1acb6:	00c51a63          	bne	a0,a2,1acca <__eqtf2+0x60>
   1acba:	00d58a63          	beq	a1,a3,1acce <__eqtf2+0x64>
   1acbe:	00089663          	bnez	a7,1acca <__eqtf2+0x60>
   1acc2:	00a86733          	or	a4,a6,a0
   1acc6:	00e03733          	snez	a4,a4
   1acca:	853a                	mv	a0,a4
   1accc:	8082                	ret
   1acce:	4701                	li	a4,0
   1acd0:	bfed                	j	1acca <__eqtf2+0x60>
   1acd2:	00186073          	csrsi	fflags,16
   1acd6:	a02d                	j	1ad00 <__eqtf2+0x96>
   1acd8:	6721                	lui	a4,0x8
   1acda:	177d                	addi	a4,a4,-1
   1acdc:	02e89063          	bne	a7,a4,1acfc <__eqtf2+0x92>
   1ace0:	00a86733          	or	a4,a6,a0
   1ace4:	cf01                	beqz	a4,1acfc <__eqtf2+0x92>
   1ace6:	02f85813          	srli	a6,a6,0x2f
   1acea:	fe0804e3          	beqz	a6,1acd2 <__eqtf2+0x68>
   1acee:	6721                	lui	a4,0x8
   1acf0:	177d                	addi	a4,a4,-1
   1acf2:	4505                	li	a0,1
   1acf4:	00e31863          	bne	t1,a4,1ad04 <__eqtf2+0x9a>
   1acf8:	8e5d                	or	a2,a2,a5
   1acfa:	c609                	beqz	a2,1ad04 <__eqtf2+0x9a>
   1acfc:	93bd                	srli	a5,a5,0x2f
   1acfe:	dbf1                	beqz	a5,1acd2 <__eqtf2+0x68>
   1ad00:	4505                	li	a0,1
   1ad02:	8082                	ret
   1ad04:	8082                	ret

000000000001ad06 <__getf2>:
   1ad06:	002027f3          	frrm	a5
   1ad0a:	68a1                	lui	a7,0x8
   1ad0c:	0305d813          	srli	a6,a1,0x30
   1ad10:	18fd                	addi	a7,a7,-1
   1ad12:	57fd                	li	a5,-1
   1ad14:	83c1                	srli	a5,a5,0x10
   1ad16:	0306d713          	srli	a4,a3,0x30
   1ad1a:	01187833          	and	a6,a6,a7
   1ad1e:	00f5f333          	and	t1,a1,a5
   1ad22:	01177733          	and	a4,a4,a7
   1ad26:	8ff5                	and	a5,a5,a3
   1ad28:	91fd                	srli	a1,a1,0x3f
   1ad2a:	92fd                	srli	a3,a3,0x3f
   1ad2c:	01181a63          	bne	a6,a7,1ad40 <__getf2+0x3a>
   1ad30:	00a368b3          	or	a7,t1,a0
   1ad34:	06088b63          	beqz	a7,1adaa <__getf2+0xa4>
   1ad38:	00186073          	csrsi	fflags,16
   1ad3c:	55f9                	li	a1,-2
   1ad3e:	a835                	j	1ad7a <__getf2+0x74>
   1ad40:	01171663          	bne	a4,a7,1ad4c <__getf2+0x46>
   1ad44:	00c7e8b3          	or	a7,a5,a2
   1ad48:	fe0898e3          	bnez	a7,1ad38 <__getf2+0x32>
   1ad4c:	06081163          	bnez	a6,1adae <__getf2+0xa8>
   1ad50:	00a368b3          	or	a7,t1,a0
   1ad54:	0018b893          	seqz	a7,a7
   1ad58:	e709                	bnez	a4,1ad62 <__getf2+0x5c>
   1ad5a:	00c7ee33          	or	t3,a5,a2
   1ad5e:	040e0063          	beqz	t3,1ad9e <__getf2+0x98>
   1ad62:	00089963          	bnez	a7,1ad74 <__getf2+0x6e>
   1ad66:	00d59463          	bne	a1,a3,1ad6e <__getf2+0x68>
   1ad6a:	01075a63          	bge	a4,a6,1ad7e <__getf2+0x78>
   1ad6e:	c595                	beqz	a1,1ad9a <__getf2+0x94>
   1ad70:	55fd                	li	a1,-1
   1ad72:	a021                	j	1ad7a <__getf2+0x74>
   1ad74:	55fd                	li	a1,-1
   1ad76:	c291                	beqz	a3,1ad7a <__getf2+0x74>
   1ad78:	85b6                	mv	a1,a3
   1ad7a:	852e                	mv	a0,a1
   1ad7c:	8082                	ret
   1ad7e:	00e85463          	bge	a6,a4,1ad86 <__getf2+0x80>
   1ad82:	fde5                	bnez	a1,1ad7a <__getf2+0x74>
   1ad84:	b7f5                	j	1ad70 <__getf2+0x6a>
   1ad86:	fe67e4e3          	bltu	a5,t1,1ad6e <__getf2+0x68>
   1ad8a:	00f31d63          	bne	t1,a5,1ada4 <__getf2+0x9e>
   1ad8e:	fea660e3          	bltu	a2,a0,1ad6e <__getf2+0x68>
   1ad92:	fec568e3          	bltu	a0,a2,1ad82 <__getf2+0x7c>
   1ad96:	4581                	li	a1,0
   1ad98:	b7cd                	j	1ad7a <__getf2+0x74>
   1ad9a:	4585                	li	a1,1
   1ad9c:	bff9                	j	1ad7a <__getf2+0x74>
   1ad9e:	fe089ce3          	bnez	a7,1ad96 <__getf2+0x90>
   1ada2:	b7f1                	j	1ad6e <__getf2+0x68>
   1ada4:	fcf36fe3          	bltu	t1,a5,1ad82 <__getf2+0x7c>
   1ada8:	b7fd                	j	1ad96 <__getf2+0x90>
   1adaa:	f9070de3          	beq	a4,a6,1ad44 <__getf2+0x3e>
   1adae:	ff45                	bnez	a4,1ad66 <__getf2+0x60>
   1adb0:	4881                	li	a7,0
   1adb2:	b765                	j	1ad5a <__getf2+0x54>

000000000001adb4 <__letf2>:
   1adb4:	002027f3          	frrm	a5
   1adb8:	68a1                	lui	a7,0x8
   1adba:	0305d813          	srli	a6,a1,0x30
   1adbe:	18fd                	addi	a7,a7,-1
   1adc0:	57fd                	li	a5,-1
   1adc2:	83c1                	srli	a5,a5,0x10
   1adc4:	0306d713          	srli	a4,a3,0x30
   1adc8:	01187833          	and	a6,a6,a7
   1adcc:	00f5f333          	and	t1,a1,a5
   1add0:	01177733          	and	a4,a4,a7
   1add4:	8ff5                	and	a5,a5,a3
   1add6:	91fd                	srli	a1,a1,0x3f
   1add8:	92fd                	srli	a3,a3,0x3f
   1adda:	01181a63          	bne	a6,a7,1adee <__letf2+0x3a>
   1adde:	00a368b3          	or	a7,t1,a0
   1ade2:	06088b63          	beqz	a7,1ae58 <__letf2+0xa4>
   1ade6:	00186073          	csrsi	fflags,16
   1adea:	4589                	li	a1,2
   1adec:	a835                	j	1ae28 <__letf2+0x74>
   1adee:	01171663          	bne	a4,a7,1adfa <__letf2+0x46>
   1adf2:	00c7e8b3          	or	a7,a5,a2
   1adf6:	fe0898e3          	bnez	a7,1ade6 <__letf2+0x32>
   1adfa:	06081163          	bnez	a6,1ae5c <__letf2+0xa8>
   1adfe:	00a368b3          	or	a7,t1,a0
   1ae02:	0018b893          	seqz	a7,a7
   1ae06:	e709                	bnez	a4,1ae10 <__letf2+0x5c>
   1ae08:	00c7ee33          	or	t3,a5,a2
   1ae0c:	040e0063          	beqz	t3,1ae4c <__letf2+0x98>
   1ae10:	00089963          	bnez	a7,1ae22 <__letf2+0x6e>
   1ae14:	00d59463          	bne	a1,a3,1ae1c <__letf2+0x68>
   1ae18:	01075a63          	bge	a4,a6,1ae2c <__letf2+0x78>
   1ae1c:	c595                	beqz	a1,1ae48 <__letf2+0x94>
   1ae1e:	55fd                	li	a1,-1
   1ae20:	a021                	j	1ae28 <__letf2+0x74>
   1ae22:	55fd                	li	a1,-1
   1ae24:	c291                	beqz	a3,1ae28 <__letf2+0x74>
   1ae26:	85b6                	mv	a1,a3
   1ae28:	852e                	mv	a0,a1
   1ae2a:	8082                	ret
   1ae2c:	00e85463          	bge	a6,a4,1ae34 <__letf2+0x80>
   1ae30:	fde5                	bnez	a1,1ae28 <__letf2+0x74>
   1ae32:	b7f5                	j	1ae1e <__letf2+0x6a>
   1ae34:	fe67e4e3          	bltu	a5,t1,1ae1c <__letf2+0x68>
   1ae38:	00f31d63          	bne	t1,a5,1ae52 <__letf2+0x9e>
   1ae3c:	fea660e3          	bltu	a2,a0,1ae1c <__letf2+0x68>
   1ae40:	fec568e3          	bltu	a0,a2,1ae30 <__letf2+0x7c>
   1ae44:	4581                	li	a1,0
   1ae46:	b7cd                	j	1ae28 <__letf2+0x74>
   1ae48:	4585                	li	a1,1
   1ae4a:	bff9                	j	1ae28 <__letf2+0x74>
   1ae4c:	fe089ce3          	bnez	a7,1ae44 <__letf2+0x90>
   1ae50:	b7f1                	j	1ae1c <__letf2+0x68>
   1ae52:	fcf36fe3          	bltu	t1,a5,1ae30 <__letf2+0x7c>
   1ae56:	b7fd                	j	1ae44 <__letf2+0x90>
   1ae58:	f9070de3          	beq	a4,a6,1adf2 <__letf2+0x3e>
   1ae5c:	ff45                	bnez	a4,1ae14 <__letf2+0x60>
   1ae5e:	4881                	li	a7,0
   1ae60:	b765                	j	1ae08 <__letf2+0x54>

000000000001ae62 <__multf3>:
   1ae62:	711d                	addi	sp,sp,-96
   1ae64:	f05a                	sd	s6,32(sp)
   1ae66:	e466                	sd	s9,8(sp)
   1ae68:	ec86                	sd	ra,88(sp)
   1ae6a:	e8a2                	sd	s0,80(sp)
   1ae6c:	e4a6                	sd	s1,72(sp)
   1ae6e:	e0ca                	sd	s2,64(sp)
   1ae70:	fc4e                	sd	s3,56(sp)
   1ae72:	f852                	sd	s4,48(sp)
   1ae74:	f456                	sd	s5,40(sp)
   1ae76:	ec5e                	sd	s7,24(sp)
   1ae78:	e862                	sd	s8,16(sp)
   1ae7a:	8cb2                	mv	s9,a2
   1ae7c:	8b36                	mv	s6,a3
   1ae7e:	002029f3          	frrm	s3
   1ae82:	6721                	lui	a4,0x8
   1ae84:	0305da93          	srli	s5,a1,0x30
   1ae88:	177d                	addi	a4,a4,-1
   1ae8a:	01059913          	slli	s2,a1,0x10
   1ae8e:	00eaf7b3          	and	a5,s5,a4
   1ae92:	2981                	sext.w	s3,s3
   1ae94:	01095913          	srli	s2,s2,0x10
   1ae98:	03f5db93          	srli	s7,a1,0x3f
   1ae9c:	c79d                	beqz	a5,1aeca <__multf3+0x68>
   1ae9e:	00078a9b          	sext.w	s5,a5
   1aea2:	8a2a                	mv	s4,a0
   1aea4:	08ea8463          	beq	s5,a4,1af2c <__multf3+0xca>
   1aea8:	090e                	slli	s2,s2,0x3
   1aeaa:	03d55713          	srli	a4,a0,0x3d
   1aeae:	01276733          	or	a4,a4,s2
   1aeb2:	7af1                	lui	s5,0xffffc
   1aeb4:	4905                	li	s2,1
   1aeb6:	194e                	slli	s2,s2,0x33
   1aeb8:	0a85                	addi	s5,s5,1
   1aeba:	01276933          	or	s2,a4,s2
   1aebe:	00351a13          	slli	s4,a0,0x3
   1aec2:	9abe                	add	s5,s5,a5
   1aec4:	4c01                	li	s8,0
   1aec6:	4481                	li	s1,0
   1aec8:	a89d                	j	1af3e <__multf3+0xdc>
   1aeca:	00a967b3          	or	a5,s2,a0
   1aece:	842a                	mv	s0,a0
   1aed0:	cbf1                	beqz	a5,1afa4 <__multf3+0x142>
   1aed2:	04090163          	beqz	s2,1af14 <__multf3+0xb2>
   1aed6:	854a                	mv	a0,s2
   1aed8:	184010ef          	jal	ra,1c05c <__clzdi2>
   1aedc:	2501                	sext.w	a0,a0
   1aede:	ff150713          	addi	a4,a0,-15
   1aee2:	03c00693          	li	a3,60
   1aee6:	0007079b          	sext.w	a5,a4
   1aeea:	02e6cb63          	blt	a3,a4,1af20 <__multf3+0xbe>
   1aeee:	03d00713          	li	a4,61
   1aef2:	00378a1b          	addiw	s4,a5,3
   1aef6:	40f707bb          	subw	a5,a4,a5
   1aefa:	01491933          	sll	s2,s2,s4
   1aefe:	00f457b3          	srl	a5,s0,a5
   1af02:	0127e933          	or	s2,a5,s2
   1af06:	01441a33          	sll	s4,s0,s4
   1af0a:	7af1                	lui	s5,0xffffc
   1af0c:	0ac5                	addi	s5,s5,17
   1af0e:	40aa8ab3          	sub	s5,s5,a0
   1af12:	bf4d                	j	1aec4 <__multf3+0x62>
   1af14:	148010ef          	jal	ra,1c05c <__clzdi2>
   1af18:	2501                	sext.w	a0,a0
   1af1a:	04050513          	addi	a0,a0,64
   1af1e:	b7c1                	j	1aede <__multf3+0x7c>
   1af20:	fc37891b          	addiw	s2,a5,-61
   1af24:	01241933          	sll	s2,s0,s2
   1af28:	4a01                	li	s4,0
   1af2a:	b7c5                	j	1af0a <__multf3+0xa8>
   1af2c:	00a967b3          	or	a5,s2,a0
   1af30:	cfbd                	beqz	a5,1afae <__multf3+0x14c>
   1af32:	01091793          	slli	a5,s2,0x10
   1af36:	4c0d                	li	s8,3
   1af38:	44c1                	li	s1,16
   1af3a:	f807c6e3          	bltz	a5,1aec6 <__multf3+0x64>
   1af3e:	6621                	lui	a2,0x8
   1af40:	030b5513          	srli	a0,s6,0x30
   1af44:	167d                	addi	a2,a2,-1
   1af46:	010b1413          	slli	s0,s6,0x10
   1af4a:	00c57733          	and	a4,a0,a2
   1af4e:	87e6                	mv	a5,s9
   1af50:	8041                	srli	s0,s0,0x10
   1af52:	03fb5b13          	srli	s6,s6,0x3f
   1af56:	c325                	beqz	a4,1afb6 <__multf3+0x154>
   1af58:	0007051b          	sext.w	a0,a4
   1af5c:	0ac50c63          	beq	a0,a2,1b014 <__multf3+0x1b2>
   1af60:	040e                	slli	s0,s0,0x3
   1af62:	03dcd693          	srli	a3,s9,0x3d
   1af66:	8ec1                	or	a3,a3,s0
   1af68:	7571                	lui	a0,0xffffc
   1af6a:	4405                	li	s0,1
   1af6c:	144e                	slli	s0,s0,0x33
   1af6e:	0505                	addi	a0,a0,1
   1af70:	8c55                	or	s0,s0,a3
   1af72:	003c9793          	slli	a5,s9,0x3
   1af76:	953a                	add	a0,a0,a4
   1af78:	4701                	li	a4,0
   1af7a:	002c1693          	slli	a3,s8,0x2
   1af7e:	8ed9                	or	a3,a3,a4
   1af80:	9aaa                	add	s5,s5,a0
   1af82:	16fd                	addi	a3,a3,-1
   1af84:	45b9                	li	a1,14
   1af86:	016bc633          	xor	a2,s7,s6
   1af8a:	001a8813          	addi	a6,s5,1 # ffffffffffffc001 <__BSS_END__+0xfffffffffffdd061>
   1af8e:	0ed5e763          	bltu	a1,a3,1b07c <__multf3+0x21a>
   1af92:	00002597          	auipc	a1,0x2
   1af96:	cc658593          	addi	a1,a1,-826 # 1cc58 <zeroes.4503+0x10>
   1af9a:	068a                	slli	a3,a3,0x2
   1af9c:	96ae                	add	a3,a3,a1
   1af9e:	4294                	lw	a3,0(a3)
   1afa0:	96ae                	add	a3,a3,a1
   1afa2:	8682                	jr	a3
   1afa4:	4901                	li	s2,0
   1afa6:	4a01                	li	s4,0
   1afa8:	4a81                	li	s5,0
   1afaa:	4c05                	li	s8,1
   1afac:	bf29                	j	1aec6 <__multf3+0x64>
   1afae:	4901                	li	s2,0
   1afb0:	4a01                	li	s4,0
   1afb2:	4c09                	li	s8,2
   1afb4:	bf09                	j	1aec6 <__multf3+0x64>
   1afb6:	019467b3          	or	a5,s0,s9
   1afba:	c7bd                	beqz	a5,1b028 <__multf3+0x1c6>
   1afbc:	cc1d                	beqz	s0,1affa <__multf3+0x198>
   1afbe:	8522                	mv	a0,s0
   1afc0:	09c010ef          	jal	ra,1c05c <__clzdi2>
   1afc4:	2501                	sext.w	a0,a0
   1afc6:	ff150793          	addi	a5,a0,-15 # ffffffffffffbff1 <__BSS_END__+0xfffffffffffdd051>
   1afca:	03c00693          	li	a3,60
   1afce:	0007871b          	sext.w	a4,a5
   1afd2:	02f6cb63          	blt	a3,a5,1b008 <__multf3+0x1a6>
   1afd6:	03d00693          	li	a3,61
   1afda:	0037079b          	addiw	a5,a4,3
   1afde:	40e6873b          	subw	a4,a3,a4
   1afe2:	00f41433          	sll	s0,s0,a5
   1afe6:	00ecd733          	srl	a4,s9,a4
   1afea:	8c59                	or	s0,s0,a4
   1afec:	00fc97b3          	sll	a5,s9,a5
   1aff0:	7771                	lui	a4,0xffffc
   1aff2:	0745                	addi	a4,a4,17
   1aff4:	40a70533          	sub	a0,a4,a0
   1aff8:	b741                	j	1af78 <__multf3+0x116>
   1affa:	8566                	mv	a0,s9
   1affc:	060010ef          	jal	ra,1c05c <__clzdi2>
   1b000:	2501                	sext.w	a0,a0
   1b002:	04050513          	addi	a0,a0,64
   1b006:	b7c1                	j	1afc6 <__multf3+0x164>
   1b008:	fc37041b          	addiw	s0,a4,-61
   1b00c:	008c9433          	sll	s0,s9,s0
   1b010:	4781                	li	a5,0
   1b012:	bff9                	j	1aff0 <__multf3+0x18e>
   1b014:	01946733          	or	a4,s0,s9
   1b018:	cf09                	beqz	a4,1b032 <__multf3+0x1d0>
   1b01a:	01041713          	slli	a4,s0,0x10
   1b01e:	00074e63          	bltz	a4,1b03a <__multf3+0x1d8>
   1b022:	470d                	li	a4,3
   1b024:	44c1                	li	s1,16
   1b026:	bf91                	j	1af7a <__multf3+0x118>
   1b028:	4401                	li	s0,0
   1b02a:	4781                	li	a5,0
   1b02c:	4501                	li	a0,0
   1b02e:	4705                	li	a4,1
   1b030:	b7a9                	j	1af7a <__multf3+0x118>
   1b032:	4401                	li	s0,0
   1b034:	4781                	li	a5,0
   1b036:	4709                	li	a4,2
   1b038:	b789                	j	1af7a <__multf3+0x118>
   1b03a:	470d                	li	a4,3
   1b03c:	bf3d                	j	1af7a <__multf3+0x118>
   1b03e:	4405                	li	s0,1
   1b040:	6721                	lui	a4,0x8
   1b042:	143e                	slli	s0,s0,0x2f
   1b044:	4501                	li	a0,0
   1b046:	177d                	addi	a4,a4,-1
   1b048:	4601                	li	a2,0
   1b04a:	44c1                	li	s1,16
   1b04c:	0442                	slli	s0,s0,0x10
   1b04e:	1746                	slli	a4,a4,0x31
   1b050:	8305                	srli	a4,a4,0x1
   1b052:	8041                	srli	s0,s0,0x10
   1b054:	03f61593          	slli	a1,a2,0x3f
   1b058:	8c59                	or	s0,s0,a4
   1b05a:	8dc1                	or	a1,a1,s0
   1b05c:	c099                	beqz	s1,1b062 <__multf3+0x200>
   1b05e:	0014a073          	csrs	fflags,s1
   1b062:	60e6                	ld	ra,88(sp)
   1b064:	6446                	ld	s0,80(sp)
   1b066:	64a6                	ld	s1,72(sp)
   1b068:	6906                	ld	s2,64(sp)
   1b06a:	79e2                	ld	s3,56(sp)
   1b06c:	7a42                	ld	s4,48(sp)
   1b06e:	7aa2                	ld	s5,40(sp)
   1b070:	7b02                	ld	s6,32(sp)
   1b072:	6be2                	ld	s7,24(sp)
   1b074:	6c42                	ld	s8,16(sp)
   1b076:	6ca2                	ld	s9,8(sp)
   1b078:	6125                	addi	sp,sp,96
   1b07a:	8082                	ret
   1b07c:	557d                	li	a0,-1
   1b07e:	9101                	srli	a0,a0,0x20
   1b080:	014903b3          	add	t2,s2,s4
   1b084:	00878fb3          	add	t6,a5,s0
   1b088:	020a5e93          	srli	t4,s4,0x20
   1b08c:	0207d693          	srli	a3,a5,0x20
   1b090:	0143bf33          	sltu	t5,t2,s4
   1b094:	00ffb2b3          	sltu	t0,t6,a5
   1b098:	00aa7a33          	and	s4,s4,a0
   1b09c:	8fe9                	and	a5,a5,a0
   1b09e:	03478533          	mul	a0,a5,s4
   1b0a2:	000f0e1b          	sext.w	t3,t5
   1b0a6:	0002831b          	sext.w	t1,t0
   1b0aa:	02fe87b3          	mul	a5,t4,a5
   1b0ae:	02de8733          	mul	a4,t4,a3
   1b0b2:	034686b3          	mul	a3,a3,s4
   1b0b6:	02055a13          	srli	s4,a0,0x20
   1b0ba:	96be                	add	a3,a3,a5
   1b0bc:	9a36                	add	s4,s4,a3
   1b0be:	00fa7563          	bgeu	s4,a5,1b0c8 <__multf3+0x266>
   1b0c2:	4785                	li	a5,1
   1b0c4:	1782                	slli	a5,a5,0x20
   1b0c6:	973e                	add	a4,a4,a5
   1b0c8:	020a5e93          	srli	t4,s4,0x20
   1b0cc:	9eba                	add	t4,t4,a4
   1b0ce:	577d                	li	a4,-1
   1b0d0:	9301                	srli	a4,a4,0x20
   1b0d2:	00ea75b3          	and	a1,s4,a4
   1b0d6:	00e3f6b3          	and	a3,t2,a4
   1b0da:	8d79                	and	a0,a0,a4
   1b0dc:	0203d893          	srli	a7,t2,0x20
   1b0e0:	020fd793          	srli	a5,t6,0x20
   1b0e4:	00eff733          	and	a4,t6,a4
   1b0e8:	1582                	slli	a1,a1,0x20
   1b0ea:	95aa                	add	a1,a1,a0
   1b0ec:	02f88b33          	mul	s6,a7,a5
   1b0f0:	02e68533          	mul	a0,a3,a4
   1b0f4:	02d787b3          	mul	a5,a5,a3
   1b0f8:	02e88733          	mul	a4,a7,a4
   1b0fc:	00e786b3          	add	a3,a5,a4
   1b100:	02055793          	srli	a5,a0,0x20
   1b104:	97b6                	add	a5,a5,a3
   1b106:	00e7f563          	bgeu	a5,a4,1b110 <__multf3+0x2ae>
   1b10a:	4705                	li	a4,1
   1b10c:	1702                	slli	a4,a4,0x20
   1b10e:	9b3a                	add	s6,s6,a4
   1b110:	577d                	li	a4,-1
   1b112:	9301                	srli	a4,a4,0x20
   1b114:	00e7f6b3          	and	a3,a5,a4
   1b118:	02045b93          	srli	s7,s0,0x20
   1b11c:	8d79                	and	a0,a0,a4
   1b11e:	0207da13          	srli	s4,a5,0x20
   1b122:	02095793          	srli	a5,s2,0x20
   1b126:	00e97933          	and	s2,s2,a4
   1b12a:	8f61                	and	a4,a4,s0
   1b12c:	02e788b3          	mul	a7,a5,a4
   1b130:	1682                	slli	a3,a3,0x20
   1b132:	9536                	add	a0,a0,a3
   1b134:	03270433          	mul	s0,a4,s2
   1b138:	037787b3          	mul	a5,a5,s7
   1b13c:	032b8bb3          	mul	s7,s7,s2
   1b140:	02045913          	srli	s2,s0,0x20
   1b144:	9bc6                	add	s7,s7,a7
   1b146:	995e                	add	s2,s2,s7
   1b148:	01197563          	bgeu	s2,a7,1b152 <__multf3+0x2f0>
   1b14c:	4705                	li	a4,1
   1b14e:	1702                	slli	a4,a4,0x20
   1b150:	97ba                	add	a5,a5,a4
   1b152:	02095693          	srli	a3,s2,0x20
   1b156:	97b6                	add	a5,a5,a3
   1b158:	56fd                	li	a3,-1
   1b15a:	9281                	srli	a3,a3,0x20
   1b15c:	8c75                	and	s0,s0,a3
   1b15e:	00d97733          	and	a4,s2,a3
   1b162:	01d506b3          	add	a3,a0,t4
   1b166:	01d6b533          	sltu	a0,a3,t4
   1b16a:	00aa08b3          	add	a7,s4,a0
   1b16e:	40600333          	neg	t1,t1
   1b172:	98da                	add	a7,a7,s6
   1b174:	007373b3          	and	t2,t1,t2
   1b178:	1702                	slli	a4,a4,0x20
   1b17a:	93c6                	add	t2,t2,a7
   1b17c:	00a8b533          	sltu	a0,a7,a0
   1b180:	41c00e33          	neg	t3,t3
   1b184:	9722                	add	a4,a4,s0
   1b186:	005f7433          	and	s0,t5,t0
   1b18a:	0113b8b3          	sltu	a7,t2,a7
   1b18e:	01fe7fb3          	and	t6,t3,t6
   1b192:	942a                	add	s0,s0,a0
   1b194:	9f9e                	add	t6,t6,t2
   1b196:	9446                	add	s0,s0,a7
   1b198:	40b688b3          	sub	a7,a3,a1
   1b19c:	41df8533          	sub	a0,t6,t4
   1b1a0:	0116be33          	sltu	t3,a3,a7
   1b1a4:	007fb3b3          	sltu	t2,t6,t2
   1b1a8:	00afb333          	sltu	t1,t6,a0
   1b1ac:	941e                	add	s0,s0,t2
   1b1ae:	41c50533          	sub	a0,a0,t3
   1b1b2:	4e01                	li	t3,0
   1b1b4:	0116f663          	bgeu	a3,a7,1b1c0 <__multf3+0x35e>
   1b1b8:	41fe8fb3          	sub	t6,t4,t6
   1b1bc:	001fbe13          	seqz	t3,t6
   1b1c0:	006e6fb3          	or	t6,t3,t1
   1b1c4:	40e88333          	sub	t1,a7,a4
   1b1c8:	40f506b3          	sub	a3,a0,a5
   1b1cc:	943e                	add	s0,s0,a5
   1b1ce:	0068b7b3          	sltu	a5,a7,t1
   1b1d2:	00d53533          	sltu	a0,a0,a3
   1b1d6:	40f707b3          	sub	a5,a4,a5
   1b1da:	4e01                	li	t3,0
   1b1dc:	0068f463          	bgeu	a7,t1,1b1e4 <__multf3+0x382>
   1b1e0:	0016be13          	seqz	t3,a3
   1b1e4:	96be                	add	a3,a3,a5
   1b1e6:	00e6b733          	sltu	a4,a3,a4
   1b1ea:	943a                	add	s0,s0,a4
   1b1ec:	00ae6533          	or	a0,t3,a0
   1b1f0:	41f40433          	sub	s0,s0,t6
   1b1f4:	8c09                	sub	s0,s0,a0
   1b1f6:	0336d793          	srli	a5,a3,0x33
   1b1fa:	0436                	slli	s0,s0,0xd
   1b1fc:	8c5d                	or	s0,s0,a5
   1b1fe:	00d31793          	slli	a5,t1,0xd
   1b202:	8fcd                	or	a5,a5,a1
   1b204:	00f037b3          	snez	a5,a5
   1b208:	03335513          	srli	a0,t1,0x33
   1b20c:	8fc9                	or	a5,a5,a0
   1b20e:	06b6                	slli	a3,a3,0xd
   1b210:	00b41713          	slli	a4,s0,0xb
   1b214:	8fd5                	or	a5,a5,a3
   1b216:	06075a63          	bgez	a4,1b28a <__multf3+0x428>
   1b21a:	0017d713          	srli	a4,a5,0x1
   1b21e:	8b85                	andi	a5,a5,1
   1b220:	03f41513          	slli	a0,s0,0x3f
   1b224:	8fd9                	or	a5,a5,a4
   1b226:	8fc9                	or	a5,a5,a0
   1b228:	8005                	srli	s0,s0,0x1
   1b22a:	6711                	lui	a4,0x4
   1b22c:	177d                	addi	a4,a4,-1
   1b22e:	9742                	add	a4,a4,a6
   1b230:	0ce05263          	blez	a4,1b2f4 <__multf3+0x492>
   1b234:	0077f693          	andi	a3,a5,7
   1b238:	c2a5                	beqz	a3,1b298 <__multf3+0x436>
   1b23a:	4689                	li	a3,2
   1b23c:	0014e493          	ori	s1,s1,1
   1b240:	04d98b63          	beq	s3,a3,1b296 <__multf3+0x434>
   1b244:	468d                	li	a3,3
   1b246:	04d98463          	beq	s3,a3,1b28e <__multf3+0x42c>
   1b24a:	04099763          	bnez	s3,1b298 <__multf3+0x436>
   1b24e:	00f7f693          	andi	a3,a5,15
   1b252:	4591                	li	a1,4
   1b254:	04b68263          	beq	a3,a1,1b298 <__multf3+0x436>
   1b258:	00478693          	addi	a3,a5,4
   1b25c:	00f6b7b3          	sltu	a5,a3,a5
   1b260:	943e                	add	s0,s0,a5
   1b262:	87b6                	mv	a5,a3
   1b264:	a815                	j	1b298 <__multf3+0x436>
   1b266:	865e                	mv	a2,s7
   1b268:	844a                	mv	s0,s2
   1b26a:	87d2                	mv	a5,s4
   1b26c:	8762                	mv	a4,s8
   1b26e:	4689                	li	a3,2
   1b270:	1ed70063          	beq	a4,a3,1b450 <__multf3+0x5ee>
   1b274:	468d                	li	a3,3
   1b276:	1ed70263          	beq	a4,a3,1b45a <__multf3+0x5f8>
   1b27a:	4685                	li	a3,1
   1b27c:	fad717e3          	bne	a4,a3,1b22a <__multf3+0x3c8>
   1b280:	4401                	li	s0,0
   1b282:	4501                	li	a0,0
   1b284:	a2c9                	j	1b446 <__multf3+0x5e4>
   1b286:	865a                	mv	a2,s6
   1b288:	b7dd                	j	1b26e <__multf3+0x40c>
   1b28a:	8856                	mv	a6,s5
   1b28c:	bf79                	j	1b22a <__multf3+0x3c8>
   1b28e:	e609                	bnez	a2,1b298 <__multf3+0x436>
   1b290:	00878693          	addi	a3,a5,8
   1b294:	b7e1                	j	1b25c <__multf3+0x3fa>
   1b296:	fe6d                	bnez	a2,1b290 <__multf3+0x42e>
   1b298:	00b41693          	slli	a3,s0,0xb
   1b29c:	0006d863          	bgez	a3,1b2ac <__multf3+0x44a>
   1b2a0:	577d                	li	a4,-1
   1b2a2:	1752                	slli	a4,a4,0x34
   1b2a4:	177d                	addi	a4,a4,-1
   1b2a6:	8c79                	and	s0,s0,a4
   1b2a8:	6711                	lui	a4,0x4
   1b2aa:	9742                	add	a4,a4,a6
   1b2ac:	66a1                	lui	a3,0x8
   1b2ae:	ffe68593          	addi	a1,a3,-2 # 7ffe <register_fini-0x80b2>
   1b2b2:	00e5c963          	blt	a1,a4,1b2c4 <__multf3+0x462>
   1b2b6:	0037d513          	srli	a0,a5,0x3
   1b2ba:	03d41793          	slli	a5,s0,0x3d
   1b2be:	8d5d                	or	a0,a0,a5
   1b2c0:	800d                	srli	s0,s0,0x3
   1b2c2:	b369                	j	1b04c <__multf3+0x1ea>
   1b2c4:	4789                	li	a5,2
   1b2c6:	02f98263          	beq	s3,a5,1b2ea <__multf3+0x488>
   1b2ca:	478d                	li	a5,3
   1b2cc:	fff68713          	addi	a4,a3,-1
   1b2d0:	00f98a63          	beq	s3,a5,1b2e4 <__multf3+0x482>
   1b2d4:	00098963          	beqz	s3,1b2e6 <__multf3+0x484>
   1b2d8:	557d                	li	a0,-1
   1b2da:	872e                	mv	a4,a1
   1b2dc:	0054e493          	ori	s1,s1,5
   1b2e0:	842a                	mv	s0,a0
   1b2e2:	b3ad                	j	1b04c <__multf3+0x1ea>
   1b2e4:	fa75                	bnez	a2,1b2d8 <__multf3+0x476>
   1b2e6:	4501                	li	a0,0
   1b2e8:	bfd5                	j	1b2dc <__multf3+0x47a>
   1b2ea:	d67d                	beqz	a2,1b2d8 <__multf3+0x476>
   1b2ec:	4501                	li	a0,0
   1b2ee:	fff68713          	addi	a4,a3,-1
   1b2f2:	b7ed                	j	1b2dc <__multf3+0x47a>
   1b2f4:	4685                	li	a3,1
   1b2f6:	e731                	bnez	a4,1b342 <__multf3+0x4e0>
   1b2f8:	0077f593          	andi	a1,a5,7
   1b2fc:	86a2                	mv	a3,s0
   1b2fe:	cd95                	beqz	a1,1b33a <__multf3+0x4d8>
   1b300:	4689                	li	a3,2
   1b302:	0014e493          	ori	s1,s1,1
   1b306:	02d98863          	beq	s3,a3,1b336 <__multf3+0x4d4>
   1b30a:	468d                	li	a3,3
   1b30c:	02d98063          	beq	s3,a3,1b32c <__multf3+0x4ca>
   1b310:	86a2                	mv	a3,s0
   1b312:	02099463          	bnez	s3,1b33a <__multf3+0x4d8>
   1b316:	00f7f593          	andi	a1,a5,15
   1b31a:	4511                	li	a0,4
   1b31c:	00a58f63          	beq	a1,a0,1b33a <__multf3+0x4d8>
   1b320:	ffc7b693          	sltiu	a3,a5,-4
   1b324:	0016c693          	xori	a3,a3,1
   1b328:	96a2                	add	a3,a3,s0
   1b32a:	a801                	j	1b33a <__multf3+0x4d8>
   1b32c:	86a2                	mv	a3,s0
   1b32e:	e611                	bnez	a2,1b33a <__multf3+0x4d8>
   1b330:	ff87b693          	sltiu	a3,a5,-8
   1b334:	bfc5                	j	1b324 <__multf3+0x4c2>
   1b336:	86a2                	mv	a3,s0
   1b338:	fe65                	bnez	a2,1b330 <__multf3+0x4ce>
   1b33a:	92d1                	srli	a3,a3,0x34
   1b33c:	0016c693          	xori	a3,a3,1
   1b340:	8a85                	andi	a3,a3,1
   1b342:	4805                	li	a6,1
   1b344:	40e80833          	sub	a6,a6,a4
   1b348:	07400713          	li	a4,116
   1b34c:	0d074663          	blt	a4,a6,1b418 <__multf3+0x5b6>
   1b350:	03f00593          	li	a1,63
   1b354:	0008071b          	sext.w	a4,a6
   1b358:	0505cb63          	blt	a1,a6,1b3ae <__multf3+0x54c>
   1b35c:	04000593          	li	a1,64
   1b360:	9d99                	subw	a1,a1,a4
   1b362:	00b41533          	sll	a0,s0,a1
   1b366:	00e7d833          	srl	a6,a5,a4
   1b36a:	00b797b3          	sll	a5,a5,a1
   1b36e:	01056533          	or	a0,a0,a6
   1b372:	00f037b3          	snez	a5,a5
   1b376:	8d5d                	or	a0,a0,a5
   1b378:	00e45433          	srl	s0,s0,a4
   1b37c:	00757793          	andi	a5,a0,7
   1b380:	c3ad                	beqz	a5,1b3e2 <__multf3+0x580>
   1b382:	4789                	li	a5,2
   1b384:	0014e493          	ori	s1,s1,1
   1b388:	04f98c63          	beq	s3,a5,1b3e0 <__multf3+0x57e>
   1b38c:	478d                	li	a5,3
   1b38e:	04f98563          	beq	s3,a5,1b3d8 <__multf3+0x576>
   1b392:	04099863          	bnez	s3,1b3e2 <__multf3+0x580>
   1b396:	00f57793          	andi	a5,a0,15
   1b39a:	4711                	li	a4,4
   1b39c:	04e78363          	beq	a5,a4,1b3e2 <__multf3+0x580>
   1b3a0:	00450793          	addi	a5,a0,4
   1b3a4:	00a7b533          	sltu	a0,a5,a0
   1b3a8:	942a                	add	s0,s0,a0
   1b3aa:	853e                	mv	a0,a5
   1b3ac:	a81d                	j	1b3e2 <__multf3+0x580>
   1b3ae:	fc07051b          	addiw	a0,a4,-64
   1b3b2:	04000893          	li	a7,64
   1b3b6:	00a45533          	srl	a0,s0,a0
   1b3ba:	4581                	li	a1,0
   1b3bc:	01180863          	beq	a6,a7,1b3cc <__multf3+0x56a>
   1b3c0:	08000593          	li	a1,128
   1b3c4:	40e5873b          	subw	a4,a1,a4
   1b3c8:	00e415b3          	sll	a1,s0,a4
   1b3cc:	8fcd                	or	a5,a5,a1
   1b3ce:	00f037b3          	snez	a5,a5
   1b3d2:	8d5d                	or	a0,a0,a5
   1b3d4:	4401                	li	s0,0
   1b3d6:	b75d                	j	1b37c <__multf3+0x51a>
   1b3d8:	e609                	bnez	a2,1b3e2 <__multf3+0x580>
   1b3da:	00850793          	addi	a5,a0,8
   1b3de:	b7d9                	j	1b3a4 <__multf3+0x542>
   1b3e0:	fe6d                	bnez	a2,1b3da <__multf3+0x578>
   1b3e2:	00c41793          	slli	a5,s0,0xc
   1b3e6:	0007dc63          	bgez	a5,1b3fe <__multf3+0x59c>
   1b3ea:	0014e493          	ori	s1,s1,1
   1b3ee:	4401                	li	s0,0
   1b3f0:	4501                	li	a0,0
   1b3f2:	4705                	li	a4,1
   1b3f4:	c4068ce3          	beqz	a3,1b04c <__multf3+0x1ea>
   1b3f8:	0024e493          	ori	s1,s1,2
   1b3fc:	b981                	j	1b04c <__multf3+0x1ea>
   1b3fe:	03d41793          	slli	a5,s0,0x3d
   1b402:	810d                	srli	a0,a0,0x3
   1b404:	8d5d                	or	a0,a0,a5
   1b406:	800d                	srli	s0,s0,0x3
   1b408:	4701                	li	a4,0
   1b40a:	c40681e3          	beqz	a3,1b04c <__multf3+0x1ea>
   1b40e:	0014f793          	andi	a5,s1,1
   1b412:	c2078de3          	beqz	a5,1b04c <__multf3+0x1ea>
   1b416:	b7cd                	j	1b3f8 <__multf3+0x596>
   1b418:	0087e533          	or	a0,a5,s0
   1b41c:	c115                	beqz	a0,1b440 <__multf3+0x5de>
   1b41e:	4789                	li	a5,2
   1b420:	0014e493          	ori	s1,s1,1
   1b424:	02f98363          	beq	s3,a5,1b44a <__multf3+0x5e8>
   1b428:	478d                	li	a5,3
   1b42a:	00f98763          	beq	s3,a5,1b438 <__multf3+0x5d6>
   1b42e:	4795                	li	a5,5
   1b430:	00098663          	beqz	s3,1b43c <__multf3+0x5da>
   1b434:	4785                	li	a5,1
   1b436:	a019                	j	1b43c <__multf3+0x5da>
   1b438:	47a5                	li	a5,9
   1b43a:	fe6d                	bnez	a2,1b434 <__multf3+0x5d2>
   1b43c:	0037d513          	srli	a0,a5,0x3
   1b440:	0024e493          	ori	s1,s1,2
   1b444:	4401                	li	s0,0
   1b446:	4701                	li	a4,0
   1b448:	b111                	j	1b04c <__multf3+0x1ea>
   1b44a:	47a5                	li	a5,9
   1b44c:	fa65                	bnez	a2,1b43c <__multf3+0x5da>
   1b44e:	b7dd                	j	1b434 <__multf3+0x5d2>
   1b450:	6721                	lui	a4,0x8
   1b452:	4401                	li	s0,0
   1b454:	4501                	li	a0,0
   1b456:	177d                	addi	a4,a4,-1
   1b458:	bed5                	j	1b04c <__multf3+0x1ea>
   1b45a:	4405                	li	s0,1
   1b45c:	6721                	lui	a4,0x8
   1b45e:	143e                	slli	s0,s0,0x2f
   1b460:	4501                	li	a0,0
   1b462:	177d                	addi	a4,a4,-1
   1b464:	4601                	li	a2,0
   1b466:	b6dd                	j	1b04c <__multf3+0x1ea>

000000000001b468 <__subtf3>:
   1b468:	7179                	addi	sp,sp,-48
   1b46a:	f406                	sd	ra,40(sp)
   1b46c:	f022                	sd	s0,32(sp)
   1b46e:	ec26                	sd	s1,24(sp)
   1b470:	e84a                	sd	s2,16(sp)
   1b472:	e44e                	sd	s3,8(sp)
   1b474:	e052                	sd	s4,0(sp)
   1b476:	002024f3          	frrm	s1
   1b47a:	5ffd                	li	t6,-1
   1b47c:	010fdf93          	srli	t6,t6,0x10
   1b480:	6f21                	lui	t5,0x8
   1b482:	0305d893          	srli	a7,a1,0x30
   1b486:	1f7d                	addi	t5,t5,-1
   1b488:	0306d813          	srli	a6,a3,0x30
   1b48c:	03f5d413          	srli	s0,a1,0x3f
   1b490:	03f6d313          	srli	t1,a3,0x3f
   1b494:	01f5f5b3          	and	a1,a1,t6
   1b498:	01f6f6b3          	and	a3,a3,t6
   1b49c:	03d55793          	srli	a5,a0,0x3d
   1b4a0:	01e8f8b3          	and	a7,a7,t5
   1b4a4:	058e                	slli	a1,a1,0x3
   1b4a6:	00351e93          	slli	t4,a0,0x3
   1b4aa:	068e                	slli	a3,a3,0x3
   1b4ac:	03d65513          	srli	a0,a2,0x3d
   1b4b0:	01e87833          	and	a6,a6,t5
   1b4b4:	2481                	sext.w	s1,s1
   1b4b6:	89c6                	mv	s3,a7
   1b4b8:	8ddd                	or	a1,a1,a5
   1b4ba:	8ec9                	or	a3,a3,a0
   1b4bc:	00361e13          	slli	t3,a2,0x3
   1b4c0:	01e81563          	bne	a6,t5,1b4ca <__subtf3+0x62>
   1b4c4:	01c6e7b3          	or	a5,a3,t3
   1b4c8:	e399                	bnez	a5,1b4ce <__subtf3+0x66>
   1b4ca:	00134313          	xori	t1,t1,1
   1b4ce:	410887bb          	subw	a5,a7,a6
   1b4d2:	6521                	lui	a0,0x8
   1b4d4:	0007871b          	sext.w	a4,a5
   1b4d8:	fff50613          	addi	a2,a0,-1 # 7fff <register_fini-0x80b1>
   1b4dc:	30831663          	bne	t1,s0,1b7e8 <__subtf3+0x380>
   1b4e0:	0ee05e63          	blez	a4,1b5dc <__subtf3+0x174>
   1b4e4:	08081263          	bnez	a6,1b568 <__subtf3+0x100>
   1b4e8:	01c6e733          	or	a4,a3,t3
   1b4ec:	ef19                	bnez	a4,1b50a <__subtf3+0xa2>
   1b4ee:	6ec89963          	bne	a7,a2,1bbe0 <__subtf3+0x778>
   1b4f2:	01d5ee33          	or	t3,a1,t4
   1b4f6:	720e0663          	beqz	t3,1bc22 <__subtf3+0x7ba>
   1b4fa:	00d59793          	slli	a5,a1,0xd
   1b4fe:	86ae                	mv	a3,a1
   1b500:	8e76                	mv	t3,t4
   1b502:	0407c663          	bltz	a5,1b54e <__subtf3+0xe6>
   1b506:	47c1                	li	a5,16
   1b508:	aac5                	j	1b6f8 <__subtf3+0x290>
   1b50a:	fff7871b          	addiw	a4,a5,-1
   1b50e:	e331                	bnez	a4,1b552 <__subtf3+0xea>
   1b510:	9e76                	add	t3,t3,t4
   1b512:	96ae                	add	a3,a3,a1
   1b514:	01de3eb3          	sltu	t4,t3,t4
   1b518:	96f6                	add	a3,a3,t4
   1b51a:	00c69793          	slli	a5,a3,0xc
   1b51e:	6a07dc63          	bgez	a5,1bbd6 <__subtf3+0x76e>
   1b522:	67a1                	lui	a5,0x8
   1b524:	0985                	addi	s3,s3,1
   1b526:	fff78713          	addi	a4,a5,-1 # 7fff <register_fini-0x80b1>
   1b52a:	28e98c63          	beq	s3,a4,1b7c2 <__subtf3+0x35a>
   1b52e:	557d                	li	a0,-1
   1b530:	154e                	slli	a0,a0,0x33
   1b532:	157d                	addi	a0,a0,-1
   1b534:	8d75                	and	a0,a0,a3
   1b536:	001e5593          	srli	a1,t3,0x1
   1b53a:	001e7e13          	andi	t3,t3,1
   1b53e:	03f51693          	slli	a3,a0,0x3f
   1b542:	01c5ee33          	or	t3,a1,t3
   1b546:	01c6ee33          	or	t3,a3,t3
   1b54a:	00155693          	srli	a3,a0,0x1
   1b54e:	4701                	li	a4,0
   1b550:	a415                	j	1b774 <__subtf3+0x30c>
   1b552:	02c89063          	bne	a7,a2,1b572 <__subtf3+0x10a>
   1b556:	01d5ee33          	or	t3,a1,t4
   1b55a:	6c0e0463          	beqz	t3,1bc22 <__subtf3+0x7ba>
   1b55e:	00d59793          	slli	a5,a1,0xd
   1b562:	86ae                	mv	a3,a1
   1b564:	8e76                	mv	t3,t4
   1b566:	a851                	j	1b5fa <__subtf3+0x192>
   1b568:	fec887e3          	beq	a7,a2,1b556 <__subtf3+0xee>
   1b56c:	4785                	li	a5,1
   1b56e:	17ce                	slli	a5,a5,0x33
   1b570:	8edd                	or	a3,a3,a5
   1b572:	07400793          	li	a5,116
   1b576:	04e7ce63          	blt	a5,a4,1b5d2 <__subtf3+0x16a>
   1b57a:	03f00793          	li	a5,63
   1b57e:	02e7c363          	blt	a5,a4,1b5a4 <__subtf3+0x13c>
   1b582:	04000613          	li	a2,64
   1b586:	9e19                	subw	a2,a2,a4
   1b588:	00c697b3          	sll	a5,a3,a2
   1b58c:	00ee5533          	srl	a0,t3,a4
   1b590:	00ce1e33          	sll	t3,t3,a2
   1b594:	8fc9                	or	a5,a5,a0
   1b596:	01c03e33          	snez	t3,t3
   1b59a:	01c7ee33          	or	t3,a5,t3
   1b59e:	00e6d6b3          	srl	a3,a3,a4
   1b5a2:	b7bd                	j	1b510 <__subtf3+0xa8>
   1b5a4:	fc07079b          	addiw	a5,a4,-64
   1b5a8:	04000513          	li	a0,64
   1b5ac:	00f6d7b3          	srl	a5,a3,a5
   1b5b0:	4601                	li	a2,0
   1b5b2:	00a70863          	beq	a4,a0,1b5c2 <__subtf3+0x15a>
   1b5b6:	08000613          	li	a2,128
   1b5ba:	40e6073b          	subw	a4,a2,a4
   1b5be:	00e69633          	sll	a2,a3,a4
   1b5c2:	01c66e33          	or	t3,a2,t3
   1b5c6:	01c03e33          	snez	t3,t3
   1b5ca:	01c7ee33          	or	t3,a5,t3
   1b5ce:	4681                	li	a3,0
   1b5d0:	b781                	j	1b510 <__subtf3+0xa8>
   1b5d2:	01c6ee33          	or	t3,a3,t3
   1b5d6:	01c03e33          	snez	t3,t3
   1b5da:	bfd5                	j	1b5ce <__subtf3+0x166>
   1b5dc:	cf69                	beqz	a4,1b6b6 <__subtf3+0x24e>
   1b5de:	08089063          	bnez	a7,1b65e <__subtf3+0x1f6>
   1b5e2:	01d5e533          	or	a0,a1,t4
   1b5e6:	ed11                	bnez	a0,1b602 <__subtf3+0x19a>
   1b5e8:	89c2                	mv	s3,a6
   1b5ea:	5ec81663          	bne	a6,a2,1bbd6 <__subtf3+0x76e>
   1b5ee:	01c6e7b3          	or	a5,a3,t3
   1b5f2:	62078063          	beqz	a5,1bc12 <__subtf3+0x7aa>
   1b5f6:	00d69793          	slli	a5,a3,0xd
   1b5fa:	4701                	li	a4,0
   1b5fc:	1607cc63          	bltz	a5,1b774 <__subtf3+0x30c>
   1b600:	b719                	j	1b506 <__subtf3+0x9e>
   1b602:	557d                	li	a0,-1
   1b604:	00a71a63          	bne	a4,a0,1b618 <__subtf3+0x1b0>
   1b608:	9ef2                	add	t4,t4,t3
   1b60a:	96ae                	add	a3,a3,a1
   1b60c:	01cebe33          	sltu	t3,t4,t3
   1b610:	96f2                	add	a3,a3,t3
   1b612:	8e76                	mv	t3,t4
   1b614:	89c2                	mv	s3,a6
   1b616:	b711                	j	1b51a <__subtf3+0xb2>
   1b618:	04c80563          	beq	a6,a2,1b662 <__subtf3+0x1fa>
   1b61c:	fff7c793          	not	a5,a5
   1b620:	2781                	sext.w	a5,a5
   1b622:	07400713          	li	a4,116
   1b626:	08f74363          	blt	a4,a5,1b6ac <__subtf3+0x244>
   1b62a:	03f00713          	li	a4,63
   1b62e:	04f74863          	blt	a4,a5,1b67e <__subtf3+0x216>
   1b632:	04000513          	li	a0,64
   1b636:	9d1d                	subw	a0,a0,a5
   1b638:	00fed633          	srl	a2,t4,a5
   1b63c:	00a59733          	sll	a4,a1,a0
   1b640:	00ae9eb3          	sll	t4,t4,a0
   1b644:	8f51                	or	a4,a4,a2
   1b646:	01d03eb3          	snez	t4,t4
   1b64a:	01d76eb3          	or	t4,a4,t4
   1b64e:	00f5d7b3          	srl	a5,a1,a5
   1b652:	9ef2                	add	t4,t4,t3
   1b654:	97b6                	add	a5,a5,a3
   1b656:	01ceb6b3          	sltu	a3,t4,t3
   1b65a:	96be                	add	a3,a3,a5
   1b65c:	bf5d                	j	1b612 <__subtf3+0x1aa>
   1b65e:	00c81a63          	bne	a6,a2,1b672 <__subtf3+0x20a>
   1b662:	01c6e7b3          	or	a5,a3,t3
   1b666:	5a078a63          	beqz	a5,1bc1a <__subtf3+0x7b2>
   1b66a:	00d69793          	slli	a5,a3,0xd
   1b66e:	89c2                	mv	s3,a6
   1b670:	b769                	j	1b5fa <__subtf3+0x192>
   1b672:	4705                	li	a4,1
   1b674:	174e                	slli	a4,a4,0x33
   1b676:	40f007bb          	negw	a5,a5
   1b67a:	8dd9                	or	a1,a1,a4
   1b67c:	b75d                	j	1b622 <__subtf3+0x1ba>
   1b67e:	fc07871b          	addiw	a4,a5,-64
   1b682:	04000613          	li	a2,64
   1b686:	00e5d733          	srl	a4,a1,a4
   1b68a:	4501                	li	a0,0
   1b68c:	00c78863          	beq	a5,a2,1b69c <__subtf3+0x234>
   1b690:	08000513          	li	a0,128
   1b694:	40f507bb          	subw	a5,a0,a5
   1b698:	00f59533          	sll	a0,a1,a5
   1b69c:	01d56eb3          	or	t4,a0,t4
   1b6a0:	01d03eb3          	snez	t4,t4
   1b6a4:	01d76eb3          	or	t4,a4,t4
   1b6a8:	4781                	li	a5,0
   1b6aa:	b765                	j	1b652 <__subtf3+0x1ea>
   1b6ac:	01d5e7b3          	or	a5,a1,t4
   1b6b0:	00f03eb3          	snez	t4,a5
   1b6b4:	bfd5                	j	1b6a8 <__subtf3+0x240>
   1b6b6:	00188313          	addi	t1,a7,1 # 8001 <register_fini-0x80af>
   1b6ba:	ffe50793          	addi	a5,a0,-2
   1b6be:	00f37533          	and	a0,t1,a5
   1b6c2:	e559                	bnez	a0,1b750 <__subtf3+0x2e8>
   1b6c4:	01d5e533          	or	a0,a1,t4
   1b6c8:	04089063          	bnez	a7,1b708 <__subtf3+0x2a0>
   1b6cc:	50050763          	beqz	a0,1bbda <__subtf3+0x772>
   1b6d0:	01c6e7b3          	or	a5,a3,t3
   1b6d4:	2c078563          	beqz	a5,1b99e <__subtf3+0x536>
   1b6d8:	9e76                	add	t3,t3,t4
   1b6da:	01de37b3          	sltu	a5,t3,t4
   1b6de:	96ae                	add	a3,a3,a1
   1b6e0:	00f685b3          	add	a1,a3,a5
   1b6e4:	00c59793          	slli	a5,a1,0xc
   1b6e8:	4e07da63          	bgez	a5,1bbdc <__subtf3+0x774>
   1b6ec:	56fd                	li	a3,-1
   1b6ee:	16ce                	slli	a3,a3,0x33
   1b6f0:	16fd                	addi	a3,a3,-1
   1b6f2:	8eed                	and	a3,a3,a1
   1b6f4:	4781                	li	a5,0
   1b6f6:	4985                	li	s3,1
   1b6f8:	007e7613          	andi	a2,t3,7
   1b6fc:	ee49                	bnez	a2,1b796 <__subtf3+0x32e>
   1b6fe:	38070263          	beqz	a4,1ba82 <__subtf3+0x61a>
   1b702:	0017f713          	andi	a4,a5,1
   1b706:	ab2d                	j	1bc40 <__subtf3+0x7d8>
   1b708:	02c89f63          	bne	a7,a2,1b746 <__subtf3+0x2de>
   1b70c:	56050863          	beqz	a0,1bc7c <__subtf3+0x814>
   1b710:	0325d793          	srli	a5,a1,0x32
   1b714:	8b85                	andi	a5,a5,1
   1b716:	0017b793          	seqz	a5,a5
   1b71a:	0792                	slli	a5,a5,0x4
   1b71c:	01181c63          	bne	a6,a7,1b734 <__subtf3+0x2cc>
   1b720:	01c6e633          	or	a2,a3,t3
   1b724:	54060963          	beqz	a2,1bc76 <__subtf3+0x80e>
   1b728:	00d69613          	slli	a2,a3,0xd
   1b72c:	00064363          	bltz	a2,1b732 <__subtf3+0x2ca>
   1b730:	47c1                	li	a5,16
   1b732:	c519                	beqz	a0,1b740 <__subtf3+0x2d8>
   1b734:	01c6e6b3          	or	a3,a3,t3
   1b738:	32069f63          	bnez	a3,1ba76 <__subtf3+0x60e>
   1b73c:	86ae                	mv	a3,a1
   1b73e:	8e76                	mv	t3,t4
   1b740:	69a1                	lui	s3,0x8
   1b742:	19fd                	addi	s3,s3,-1
   1b744:	bf55                	j	1b6f8 <__subtf3+0x290>
   1b746:	4781                	li	a5,0
   1b748:	fec815e3          	bne	a6,a2,1b732 <__subtf3+0x2ca>
   1b74c:	4781                	li	a5,0
   1b74e:	bfc9                	j	1b720 <__subtf3+0x2b8>
   1b750:	02c30463          	beq	t1,a2,1b778 <__subtf3+0x310>
   1b754:	9e76                	add	t3,t3,t4
   1b756:	00d587b3          	add	a5,a1,a3
   1b75a:	01de36b3          	sltu	a3,t3,t4
   1b75e:	00d78eb3          	add	t4,a5,a3
   1b762:	03fe9693          	slli	a3,t4,0x3f
   1b766:	001e5e13          	srli	t3,t3,0x1
   1b76a:	01c6ee33          	or	t3,a3,t3
   1b76e:	899a                	mv	s3,t1
   1b770:	001ed693          	srli	a3,t4,0x1
   1b774:	4781                	li	a5,0
   1b776:	b749                	j	1b6f8 <__subtf3+0x290>
   1b778:	c489                	beqz	s1,1b782 <__subtf3+0x31a>
   1b77a:	468d                	li	a3,3
   1b77c:	00d49563          	bne	s1,a3,1b786 <__subtf3+0x31e>
   1b780:	e419                	bnez	s0,1b78e <__subtf3+0x326>
   1b782:	899a                	mv	s3,t1
   1b784:	a0a1                	j	1b7cc <__subtf3+0x364>
   1b786:	4689                	li	a3,2
   1b788:	00d49363          	bne	s1,a3,1b78e <__subtf3+0x326>
   1b78c:	f87d                	bnez	s0,1b782 <__subtf3+0x31a>
   1b78e:	56fd                	li	a3,-1
   1b790:	5e7d                	li	t3,-1
   1b792:	89be                	mv	s3,a5
   1b794:	4795                	li	a5,5
   1b796:	4609                	li	a2,2
   1b798:	0017e793          	ori	a5,a5,1
   1b79c:	4ac48163          	beq	s1,a2,1bc3e <__subtf3+0x7d6>
   1b7a0:	460d                	li	a2,3
   1b7a2:	48c48a63          	beq	s1,a2,1bc36 <__subtf3+0x7ce>
   1b7a6:	48049d63          	bnez	s1,1bc40 <__subtf3+0x7d8>
   1b7aa:	00fe7613          	andi	a2,t3,15
   1b7ae:	4591                	li	a1,4
   1b7b0:	48b60863          	beq	a2,a1,1bc40 <__subtf3+0x7d8>
   1b7b4:	004e0593          	addi	a1,t3,4 # 10004 <register_fini-0xac>
   1b7b8:	01c5be33          	sltu	t3,a1,t3
   1b7bc:	96f2                	add	a3,a3,t3
   1b7be:	8e2e                	mv	t3,a1
   1b7c0:	a141                	j	1bc40 <__subtf3+0x7d8>
   1b7c2:	c489                	beqz	s1,1b7cc <__subtf3+0x364>
   1b7c4:	470d                	li	a4,3
   1b7c6:	00e49763          	bne	s1,a4,1b7d4 <__subtf3+0x36c>
   1b7ca:	e809                	bnez	s0,1b7dc <__subtf3+0x374>
   1b7cc:	4681                	li	a3,0
   1b7ce:	4e01                	li	t3,0
   1b7d0:	4795                	li	a5,5
   1b7d2:	ac45                	j	1ba82 <__subtf3+0x61a>
   1b7d4:	4709                	li	a4,2
   1b7d6:	00e49363          	bne	s1,a4,1b7dc <__subtf3+0x374>
   1b7da:	f86d                	bnez	s0,1b7cc <__subtf3+0x364>
   1b7dc:	56fd                	li	a3,-1
   1b7de:	5e7d                	li	t3,-1
   1b7e0:	ffe78993          	addi	s3,a5,-2
   1b7e4:	4701                	li	a4,0
   1b7e6:	b77d                	j	1b794 <__subtf3+0x32c>
   1b7e8:	0ae05a63          	blez	a4,1b89c <__subtf3+0x434>
   1b7ec:	06081663          	bnez	a6,1b858 <__subtf3+0x3f0>
   1b7f0:	01c6e733          	or	a4,a3,t3
   1b7f4:	ce070de3          	beqz	a4,1b4ee <__subtf3+0x86>
   1b7f8:	fff7871b          	addiw	a4,a5,-1
   1b7fc:	e31d                	bnez	a4,1b822 <__subtf3+0x3ba>
   1b7fe:	41ce8e33          	sub	t3,t4,t3
   1b802:	40d586b3          	sub	a3,a1,a3
   1b806:	01cebeb3          	sltu	t4,t4,t3
   1b80a:	41d686b3          	sub	a3,a3,t4
   1b80e:	00c69793          	slli	a5,a3,0xc
   1b812:	3c07d263          	bgez	a5,1bbd6 <__subtf3+0x76e>
   1b816:	00d69913          	slli	s2,a3,0xd
   1b81a:	00d95913          	srli	s2,s2,0xd
   1b81e:	8a72                	mv	s4,t3
   1b820:	acdd                	j	1bb16 <__subtf3+0x6ae>
   1b822:	d2c88ae3          	beq	a7,a2,1b556 <__subtf3+0xee>
   1b826:	07400793          	li	a5,116
   1b82a:	06e7c463          	blt	a5,a4,1b892 <__subtf3+0x42a>
   1b82e:	03f00793          	li	a5,63
   1b832:	02e7c963          	blt	a5,a4,1b864 <__subtf3+0x3fc>
   1b836:	04000613          	li	a2,64
   1b83a:	9e19                	subw	a2,a2,a4
   1b83c:	00c697b3          	sll	a5,a3,a2
   1b840:	00ee5533          	srl	a0,t3,a4
   1b844:	00ce1e33          	sll	t3,t3,a2
   1b848:	8fc9                	or	a5,a5,a0
   1b84a:	01c03e33          	snez	t3,t3
   1b84e:	01c7ee33          	or	t3,a5,t3
   1b852:	00e6d6b3          	srl	a3,a3,a4
   1b856:	b765                	j	1b7fe <__subtf3+0x396>
   1b858:	cec88fe3          	beq	a7,a2,1b556 <__subtf3+0xee>
   1b85c:	4785                	li	a5,1
   1b85e:	17ce                	slli	a5,a5,0x33
   1b860:	8edd                	or	a3,a3,a5
   1b862:	b7d1                	j	1b826 <__subtf3+0x3be>
   1b864:	fc07079b          	addiw	a5,a4,-64
   1b868:	04000513          	li	a0,64
   1b86c:	00f6d7b3          	srl	a5,a3,a5
   1b870:	4601                	li	a2,0
   1b872:	00a70863          	beq	a4,a0,1b882 <__subtf3+0x41a>
   1b876:	08000613          	li	a2,128
   1b87a:	40e6073b          	subw	a4,a2,a4
   1b87e:	00e69633          	sll	a2,a3,a4
   1b882:	01c66e33          	or	t3,a2,t3
   1b886:	01c03e33          	snez	t3,t3
   1b88a:	01c7ee33          	or	t3,a5,t3
   1b88e:	4681                	li	a3,0
   1b890:	b7bd                	j	1b7fe <__subtf3+0x396>
   1b892:	01c6ee33          	or	t3,a3,t3
   1b896:	01c03e33          	snez	t3,t3
   1b89a:	bfd5                	j	1b88e <__subtf3+0x426>
   1b89c:	cb69                	beqz	a4,1b96e <__subtf3+0x506>
   1b89e:	08089463          	bnez	a7,1b926 <__subtf3+0x4be>
   1b8a2:	01d5e533          	or	a0,a1,t4
   1b8a6:	ed01                	bnez	a0,1b8be <__subtf3+0x456>
   1b8a8:	32c81f63          	bne	a6,a2,1bbe6 <__subtf3+0x77e>
   1b8ac:	01c6e7b3          	or	a5,a3,t3
   1b8b0:	36078b63          	beqz	a5,1bc26 <__subtf3+0x7be>
   1b8b4:	00d69793          	slli	a5,a3,0xd
   1b8b8:	89c2                	mv	s3,a6
   1b8ba:	841a                	mv	s0,t1
   1b8bc:	bb3d                	j	1b5fa <__subtf3+0x192>
   1b8be:	557d                	li	a0,-1
   1b8c0:	00a71d63          	bne	a4,a0,1b8da <__subtf3+0x472>
   1b8c4:	41de0eb3          	sub	t4,t3,t4
   1b8c8:	8e8d                	sub	a3,a3,a1
   1b8ca:	01de3e33          	sltu	t3,t3,t4
   1b8ce:	41c686b3          	sub	a3,a3,t3
   1b8d2:	8e76                	mv	t3,t4
   1b8d4:	89c2                	mv	s3,a6
   1b8d6:	841a                	mv	s0,t1
   1b8d8:	bf1d                	j	1b80e <__subtf3+0x3a6>
   1b8da:	fcc809e3          	beq	a6,a2,1b8ac <__subtf3+0x444>
   1b8de:	fff7c793          	not	a5,a5
   1b8e2:	2781                	sext.w	a5,a5
   1b8e4:	07400713          	li	a4,116
   1b8e8:	06f74e63          	blt	a4,a5,1b964 <__subtf3+0x4fc>
   1b8ec:	03f00713          	li	a4,63
   1b8f0:	04f74363          	blt	a4,a5,1b936 <__subtf3+0x4ce>
   1b8f4:	04000513          	li	a0,64
   1b8f8:	9d1d                	subw	a0,a0,a5
   1b8fa:	00fed633          	srl	a2,t4,a5
   1b8fe:	00a59733          	sll	a4,a1,a0
   1b902:	00ae9eb3          	sll	t4,t4,a0
   1b906:	8f51                	or	a4,a4,a2
   1b908:	01d03eb3          	snez	t4,t4
   1b90c:	01d76eb3          	or	t4,a4,t4
   1b910:	00f5d7b3          	srl	a5,a1,a5
   1b914:	41de0eb3          	sub	t4,t3,t4
   1b918:	40f687b3          	sub	a5,a3,a5
   1b91c:	01de36b3          	sltu	a3,t3,t4
   1b920:	40d786b3          	sub	a3,a5,a3
   1b924:	b77d                	j	1b8d2 <__subtf3+0x46a>
   1b926:	f8c803e3          	beq	a6,a2,1b8ac <__subtf3+0x444>
   1b92a:	4705                	li	a4,1
   1b92c:	174e                	slli	a4,a4,0x33
   1b92e:	40f007bb          	negw	a5,a5
   1b932:	8dd9                	or	a1,a1,a4
   1b934:	bf45                	j	1b8e4 <__subtf3+0x47c>
   1b936:	fc07871b          	addiw	a4,a5,-64
   1b93a:	04000613          	li	a2,64
   1b93e:	00e5d733          	srl	a4,a1,a4
   1b942:	4501                	li	a0,0
   1b944:	00c78863          	beq	a5,a2,1b954 <__subtf3+0x4ec>
   1b948:	08000513          	li	a0,128
   1b94c:	40f507bb          	subw	a5,a0,a5
   1b950:	00f59533          	sll	a0,a1,a5
   1b954:	01d56eb3          	or	t4,a0,t4
   1b958:	01d03eb3          	snez	t4,t4
   1b95c:	01d76eb3          	or	t4,a4,t4
   1b960:	4781                	li	a5,0
   1b962:	bf4d                	j	1b914 <__subtf3+0x4ac>
   1b964:	01d5e7b3          	or	a5,a1,t4
   1b968:	00f03eb3          	snez	t4,a5
   1b96c:	bfd5                	j	1b960 <__subtf3+0x4f8>
   1b96e:	00188f13          	addi	t5,a7,1
   1b972:	ffe50793          	addi	a5,a0,-2
   1b976:	00ff77b3          	and	a5,t5,a5
   1b97a:	16079963          	bnez	a5,1baec <__subtf3+0x684>
   1b97e:	01d5ef33          	or	t5,a1,t4
   1b982:	01c6e533          	or	a0,a3,t3
   1b986:	0a089263          	bnez	a7,1ba2a <__subtf3+0x5c2>
   1b98a:	060f1063          	bnez	t5,1b9ea <__subtf3+0x582>
   1b98e:	24051f63          	bnez	a0,1bbec <__subtf3+0x784>
   1b992:	ffe48413          	addi	s0,s1,-2
   1b996:	00143413          	seqz	s0,s0
   1b99a:	4581                	li	a1,0
   1b99c:	4e81                	li	t4,0
   1b99e:	00beee33          	or	t3,t4,a1
   1b9a2:	280e0763          	beqz	t3,1bc30 <__subtf3+0x7c8>
   1b9a6:	001e9613          	slli	a2,t4,0x1
   1b9aa:	03fed793          	srli	a5,t4,0x3f
   1b9ae:	00159713          	slli	a4,a1,0x1
   1b9b2:	00767693          	andi	a3,a2,7
   1b9b6:	973e                	add	a4,a4,a5
   1b9b8:	4781                	li	a5,0
   1b9ba:	c285                	beqz	a3,1b9da <__subtf3+0x572>
   1b9bc:	4789                	li	a5,2
   1b9be:	24f48663          	beq	s1,a5,1bc0a <__subtf3+0x7a2>
   1b9c2:	478d                	li	a5,3
   1b9c4:	22f48a63          	beq	s1,a5,1bbf8 <__subtf3+0x790>
   1b9c8:	4785                	li	a5,1
   1b9ca:	e881                	bnez	s1,1b9da <__subtf3+0x572>
   1b9cc:	00f67693          	andi	a3,a2,15
   1b9d0:	4511                	li	a0,4
   1b9d2:	ffc63613          	sltiu	a2,a2,-4
   1b9d6:	22a69663          	bne	a3,a0,1bc02 <__subtf3+0x79a>
   1b9da:	9351                	srli	a4,a4,0x34
   1b9dc:	00174713          	xori	a4,a4,1
   1b9e0:	8b05                	andi	a4,a4,1
   1b9e2:	86ae                	mv	a3,a1
   1b9e4:	8e76                	mv	t3,t4
   1b9e6:	4981                	li	s3,0
   1b9e8:	bb01                	j	1b6f8 <__subtf3+0x290>
   1b9ea:	d955                	beqz	a0,1b99e <__subtf3+0x536>
   1b9ec:	41ce8733          	sub	a4,t4,t3
   1b9f0:	00eeb633          	sltu	a2,t4,a4
   1b9f4:	40d587b3          	sub	a5,a1,a3
   1b9f8:	8f91                	sub	a5,a5,a2
   1b9fa:	00c79613          	slli	a2,a5,0xc
   1b9fe:	00065c63          	bgez	a2,1ba16 <__subtf3+0x5ae>
   1ba02:	41de0eb3          	sub	t4,t3,t4
   1ba06:	40b687b3          	sub	a5,a3,a1
   1ba0a:	01de36b3          	sltu	a3,t3,t4
   1ba0e:	40d785b3          	sub	a1,a5,a3
   1ba12:	841a                	mv	s0,t1
   1ba14:	b769                	j	1b99e <__subtf3+0x536>
   1ba16:	00f76eb3          	or	t4,a4,a5
   1ba1a:	1c0e9c63          	bnez	t4,1bbf2 <__subtf3+0x78a>
   1ba1e:	ffe48413          	addi	s0,s1,-2
   1ba22:	00143413          	seqz	s0,s0
   1ba26:	4581                	li	a1,0
   1ba28:	bf9d                	j	1b99e <__subtf3+0x536>
   1ba2a:	02c89f63          	bne	a7,a2,1ba68 <__subtf3+0x600>
   1ba2e:	240f0063          	beqz	t5,1bc6e <__subtf3+0x806>
   1ba32:	0325d793          	srli	a5,a1,0x32
   1ba36:	8b85                	andi	a5,a5,1
   1ba38:	0017b793          	seqz	a5,a5
   1ba3c:	0792                	slli	a5,a5,0x4
   1ba3e:	03181a63          	bne	a6,a7,1ba72 <__subtf3+0x60a>
   1ba42:	c511                	beqz	a0,1ba4e <__subtf3+0x5e6>
   1ba44:	00d69613          	slli	a2,a3,0xd
   1ba48:	00064363          	bltz	a2,1ba4e <__subtf3+0x5e6>
   1ba4c:	47c1                	li	a5,16
   1ba4e:	020f1263          	bnez	t5,1ba72 <__subtf3+0x60a>
   1ba52:	841a                	mv	s0,t1
   1ba54:	ce0516e3          	bnez	a0,1b740 <__subtf3+0x2d8>
   1ba58:	4685                	li	a3,1
   1ba5a:	69a1                	lui	s3,0x8
   1ba5c:	4e01                	li	t3,0
   1ba5e:	4401                	li	s0,0
   1ba60:	16ca                	slli	a3,a3,0x32
   1ba62:	19fd                	addi	s3,s3,-1
   1ba64:	47c1                	li	a5,16
   1ba66:	a831                	j	1ba82 <__subtf3+0x61a>
   1ba68:	4781                	li	a5,0
   1ba6a:	fec812e3          	bne	a6,a2,1ba4e <__subtf3+0x5e6>
   1ba6e:	4781                	li	a5,0
   1ba70:	bfc9                	j	1ba42 <__subtf3+0x5da>
   1ba72:	cc0505e3          	beqz	a0,1b73c <__subtf3+0x2d4>
   1ba76:	4685                	li	a3,1
   1ba78:	69a1                	lui	s3,0x8
   1ba7a:	4401                	li	s0,0
   1ba7c:	16ca                	slli	a3,a3,0x32
   1ba7e:	4e01                	li	t3,0
   1ba80:	19fd                	addi	s3,s3,-1
   1ba82:	00c69713          	slli	a4,a3,0xc
   1ba86:	00075c63          	bgez	a4,1ba9e <__subtf3+0x636>
   1ba8a:	6721                	lui	a4,0x8
   1ba8c:	0985                	addi	s3,s3,1
   1ba8e:	fff70613          	addi	a2,a4,-1 # 7fff <register_fini-0x80b1>
   1ba92:	1ac98c63          	beq	s3,a2,1bc4a <__subtf3+0x7e2>
   1ba96:	577d                	li	a4,-1
   1ba98:	174e                	slli	a4,a4,0x33
   1ba9a:	177d                	addi	a4,a4,-1
   1ba9c:	8ef9                	and	a3,a3,a4
   1ba9e:	6721                	lui	a4,0x8
   1baa0:	03d69513          	slli	a0,a3,0x3d
   1baa4:	003e5e13          	srli	t3,t3,0x3
   1baa8:	177d                	addi	a4,a4,-1
   1baaa:	01c56533          	or	a0,a0,t3
   1baae:	828d                	srli	a3,a3,0x3
   1bab0:	00e99963          	bne	s3,a4,1bac2 <__subtf3+0x65a>
   1bab4:	8d55                	or	a0,a0,a3
   1bab6:	4681                	li	a3,0
   1bab8:	c509                	beqz	a0,1bac2 <__subtf3+0x65a>
   1baba:	4685                	li	a3,1
   1babc:	16be                	slli	a3,a3,0x2f
   1babe:	4501                	li	a0,0
   1bac0:	4401                	li	s0,0
   1bac2:	06c2                	slli	a3,a3,0x10
   1bac4:	19c6                	slli	s3,s3,0x31
   1bac6:	0019d993          	srli	s3,s3,0x1
   1baca:	82c1                	srli	a3,a3,0x10
   1bacc:	03f41593          	slli	a1,s0,0x3f
   1bad0:	0136e6b3          	or	a3,a3,s3
   1bad4:	8dd5                	or	a1,a1,a3
   1bad6:	c399                	beqz	a5,1badc <__subtf3+0x674>
   1bad8:	0017a073          	csrs	fflags,a5
   1badc:	70a2                	ld	ra,40(sp)
   1bade:	7402                	ld	s0,32(sp)
   1bae0:	64e2                	ld	s1,24(sp)
   1bae2:	6942                	ld	s2,16(sp)
   1bae4:	69a2                	ld	s3,8(sp)
   1bae6:	6a02                	ld	s4,0(sp)
   1bae8:	6145                	addi	sp,sp,48
   1baea:	8082                	ret
   1baec:	41ce8a33          	sub	s4,t4,t3
   1baf0:	40d58933          	sub	s2,a1,a3
   1baf4:	014eb733          	sltu	a4,t4,s4
   1baf8:	40e90933          	sub	s2,s2,a4
   1bafc:	00c91793          	slli	a5,s2,0xc
   1bb00:	0607df63          	bgez	a5,1bb7e <__subtf3+0x716>
   1bb04:	41de0a33          	sub	s4,t3,t4
   1bb08:	40b687b3          	sub	a5,a3,a1
   1bb0c:	014e36b3          	sltu	a3,t3,s4
   1bb10:	40d78933          	sub	s2,a5,a3
   1bb14:	841a                	mv	s0,t1
   1bb16:	06090963          	beqz	s2,1bb88 <__subtf3+0x720>
   1bb1a:	854a                	mv	a0,s2
   1bb1c:	540000ef          	jal	ra,1c05c <__clzdi2>
   1bb20:	2501                	sext.w	a0,a0
   1bb22:	ff45061b          	addiw	a2,a0,-12
   1bb26:	03f00793          	li	a5,63
   1bb2a:	8eb2                	mv	t4,a2
   1bb2c:	06c7c463          	blt	a5,a2,1bb94 <__subtf3+0x72c>
   1bb30:	04000693          	li	a3,64
   1bb34:	9e91                	subw	a3,a3,a2
   1bb36:	00c91933          	sll	s2,s2,a2
   1bb3a:	00da56b3          	srl	a3,s4,a3
   1bb3e:	0126e733          	or	a4,a3,s2
   1bb42:	00ca1e33          	sll	t3,s4,a2
   1bb46:	09364263          	blt	a2,s3,1bbca <__subtf3+0x762>
   1bb4a:	413e89bb          	subw	s3,t4,s3
   1bb4e:	0019879b          	addiw	a5,s3,1
   1bb52:	03f00613          	li	a2,63
   1bb56:	04f64563          	blt	a2,a5,1bba0 <__subtf3+0x738>
   1bb5a:	04000613          	li	a2,64
   1bb5e:	9e1d                	subw	a2,a2,a5
   1bb60:	00c71eb3          	sll	t4,a4,a2
   1bb64:	00fe56b3          	srl	a3,t3,a5
   1bb68:	00ce1633          	sll	a2,t3,a2
   1bb6c:	00dee6b3          	or	a3,t4,a3
   1bb70:	00c03633          	snez	a2,a2
   1bb74:	00c6eeb3          	or	t4,a3,a2
   1bb78:	00f755b3          	srl	a1,a4,a5
   1bb7c:	b50d                	j	1b99e <__subtf3+0x536>
   1bb7e:	012a6eb3          	or	t4,s4,s2
   1bb82:	f80e9ae3          	bnez	t4,1bb16 <__subtf3+0x6ae>
   1bb86:	bd61                	j	1ba1e <__subtf3+0x5b6>
   1bb88:	8552                	mv	a0,s4
   1bb8a:	4d2000ef          	jal	ra,1c05c <__clzdi2>
   1bb8e:	0405051b          	addiw	a0,a0,64
   1bb92:	bf41                	j	1bb22 <__subtf3+0x6ba>
   1bb94:	fb45069b          	addiw	a3,a0,-76
   1bb98:	00da1733          	sll	a4,s4,a3
   1bb9c:	4e01                	li	t3,0
   1bb9e:	b765                	j	1bb46 <__subtf3+0x6de>
   1bba0:	fc198e9b          	addiw	t4,s3,-63
   1bba4:	04000593          	li	a1,64
   1bba8:	01d75eb3          	srl	t4,a4,t4
   1bbac:	4601                	li	a2,0
   1bbae:	00b78763          	beq	a5,a1,1bbbc <__subtf3+0x754>
   1bbb2:	08000613          	li	a2,128
   1bbb6:	9e1d                	subw	a2,a2,a5
   1bbb8:	00c71633          	sll	a2,a4,a2
   1bbbc:	00ce6633          	or	a2,t3,a2
   1bbc0:	00c03633          	snez	a2,a2
   1bbc4:	00ceeeb3          	or	t4,t4,a2
   1bbc8:	bdb9                	j	1ba26 <__subtf3+0x5be>
   1bbca:	56fd                	li	a3,-1
   1bbcc:	16ce                	slli	a3,a3,0x33
   1bbce:	16fd                	addi	a3,a3,-1
   1bbd0:	40c989b3          	sub	s3,s3,a2
   1bbd4:	8ef9                	and	a3,a3,a4
   1bbd6:	96099ce3          	bnez	s3,1b54e <__subtf3+0xe6>
   1bbda:	85b6                	mv	a1,a3
   1bbdc:	8ef2                	mv	t4,t3
   1bbde:	b3c1                	j	1b99e <__subtf3+0x536>
   1bbe0:	86ae                	mv	a3,a1
   1bbe2:	8e76                	mv	t3,t4
   1bbe4:	bfcd                	j	1bbd6 <__subtf3+0x76e>
   1bbe6:	89c2                	mv	s3,a6
   1bbe8:	841a                	mv	s0,t1
   1bbea:	b7f5                	j	1bbd6 <__subtf3+0x76e>
   1bbec:	85b6                	mv	a1,a3
   1bbee:	8ef2                	mv	t4,t3
   1bbf0:	b50d                	j	1ba12 <__subtf3+0x5aa>
   1bbf2:	85be                	mv	a1,a5
   1bbf4:	8eba                	mv	t4,a4
   1bbf6:	b365                	j	1b99e <__subtf3+0x536>
   1bbf8:	4785                	li	a5,1
   1bbfa:	de0410e3          	bnez	s0,1b9da <__subtf3+0x572>
   1bbfe:	ff863613          	sltiu	a2,a2,-8
   1bc02:	00164613          	xori	a2,a2,1
   1bc06:	9732                	add	a4,a4,a2
   1bc08:	bbc9                	j	1b9da <__subtf3+0x572>
   1bc0a:	4785                	li	a5,1
   1bc0c:	dc0407e3          	beqz	s0,1b9da <__subtf3+0x572>
   1bc10:	b7fd                	j	1bbfe <__subtf3+0x796>
   1bc12:	4681                	li	a3,0
   1bc14:	4e01                	li	t3,0
   1bc16:	4781                	li	a5,0
   1bc18:	b5ad                	j	1ba82 <__subtf3+0x61a>
   1bc1a:	4681                	li	a3,0
   1bc1c:	4e01                	li	t3,0
   1bc1e:	89c2                	mv	s3,a6
   1bc20:	bfdd                	j	1bc16 <__subtf3+0x7ae>
   1bc22:	4681                	li	a3,0
   1bc24:	bfcd                	j	1bc16 <__subtf3+0x7ae>
   1bc26:	4681                	li	a3,0
   1bc28:	4e01                	li	t3,0
   1bc2a:	89c2                	mv	s3,a6
   1bc2c:	841a                	mv	s0,t1
   1bc2e:	b7e5                	j	1bc16 <__subtf3+0x7ae>
   1bc30:	4681                	li	a3,0
   1bc32:	4981                	li	s3,0
   1bc34:	b7cd                	j	1bc16 <__subtf3+0x7ae>
   1bc36:	e409                	bnez	s0,1bc40 <__subtf3+0x7d8>
   1bc38:	008e0593          	addi	a1,t3,8
   1bc3c:	beb5                	j	1b7b8 <__subtf3+0x350>
   1bc3e:	fc6d                	bnez	s0,1bc38 <__subtf3+0x7d0>
   1bc40:	e40701e3          	beqz	a4,1ba82 <__subtf3+0x61a>
   1bc44:	0027e793          	ori	a5,a5,2
   1bc48:	bd2d                	j	1ba82 <__subtf3+0x61a>
   1bc4a:	4e01                	li	t3,0
   1bc4c:	cc89                	beqz	s1,1bc66 <__subtf3+0x7fe>
   1bc4e:	468d                	li	a3,3
   1bc50:	00d49763          	bne	s1,a3,1bc5e <__subtf3+0x7f6>
   1bc54:	c809                	beqz	s0,1bc66 <__subtf3+0x7fe>
   1bc56:	5e7d                	li	t3,-1
   1bc58:	ffe70993          	addi	s3,a4,-2 # 7ffe <register_fini-0x80b2>
   1bc5c:	a029                	j	1bc66 <__subtf3+0x7fe>
   1bc5e:	4689                	li	a3,2
   1bc60:	fed49be3          	bne	s1,a3,1bc56 <__subtf3+0x7ee>
   1bc64:	d86d                	beqz	s0,1bc56 <__subtf3+0x7ee>
   1bc66:	0057e793          	ori	a5,a5,5
   1bc6a:	86f2                	mv	a3,t3
   1bc6c:	bd0d                	j	1ba9e <__subtf3+0x636>
   1bc6e:	4781                	li	a5,0
   1bc70:	df1811e3          	bne	a6,a7,1ba52 <__subtf3+0x5ea>
   1bc74:	bbed                	j	1ba6e <__subtf3+0x606>
   1bc76:	ac0505e3          	beqz	a0,1b740 <__subtf3+0x2d8>
   1bc7a:	b4c9                	j	1b73c <__subtf3+0x2d4>
   1bc7c:	af181ce3          	bne	a6,a7,1b774 <__subtf3+0x30c>
   1bc80:	b4f1                	j	1b74c <__subtf3+0x2e4>

000000000001bc82 <__fixtfsi>:
   1bc82:	002027f3          	frrm	a5
   1bc86:	6611                	lui	a2,0x4
   1bc88:	00159693          	slli	a3,a1,0x1
   1bc8c:	01059793          	slli	a5,a1,0x10
   1bc90:	92c5                	srli	a3,a3,0x31
   1bc92:	ffe60713          	addi	a4,a2,-2 # 3ffe <register_fini-0xc0b2>
   1bc96:	83c1                	srli	a5,a5,0x10
   1bc98:	91fd                	srli	a1,a1,0x3f
   1bc9a:	00d74863          	blt	a4,a3,1bcaa <__fixtfsi+0x28>
   1bc9e:	e6a5                	bnez	a3,1bd06 <__fixtfsi+0x84>
   1bca0:	8fc9                	or	a5,a5,a0
   1bca2:	4701                	li	a4,0
   1bca4:	efb9                	bnez	a5,1bd02 <__fixtfsi+0x80>
   1bca6:	853a                	mv	a0,a4
   1bca8:	8082                	ret
   1bcaa:	01d60713          	addi	a4,a2,29
   1bcae:	02d75363          	bge	a4,a3,1bcd4 <__fixtfsi+0x52>
   1bcb2:	80000737          	lui	a4,0x80000
   1bcb6:	fff74713          	not	a4,a4
   1bcba:	9f2d                	addw	a4,a4,a1
   1bcbc:	c5b9                	beqz	a1,1bd0a <__fixtfsi+0x88>
   1bcbe:	01e60593          	addi	a1,a2,30
   1bcc2:	4641                	li	a2,16
   1bcc4:	04b69463          	bne	a3,a1,1bd0c <__fixtfsi+0x8a>
   1bcc8:	0117d693          	srli	a3,a5,0x11
   1bccc:	e2a1                	bnez	a3,1bd0c <__fixtfsi+0x8a>
   1bcce:	17be                	slli	a5,a5,0x2f
   1bcd0:	8fc9                	or	a5,a5,a0
   1bcd2:	bfc9                	j	1bca4 <__fixtfsi+0x22>
   1bcd4:	4705                	li	a4,1
   1bcd6:	1742                	slli	a4,a4,0x30
   1bcd8:	8fd9                	or	a5,a5,a4
   1bcda:	7771                	lui	a4,0xffffc
   1bcdc:	2681                	sext.w	a3,a3
   1bcde:	2745                	addiw	a4,a4,17
   1bce0:	9f35                	addw	a4,a4,a3
   1bce2:	00e79733          	sll	a4,a5,a4
   1bce6:	8d59                	or	a0,a0,a4
   1bce8:	6711                	lui	a4,0x4
   1bcea:	02f7071b          	addiw	a4,a4,47
   1bcee:	40d706bb          	subw	a3,a4,a3
   1bcf2:	00d7d7b3          	srl	a5,a5,a3
   1bcf6:	0007871b          	sext.w	a4,a5
   1bcfa:	c199                	beqz	a1,1bd00 <__fixtfsi+0x7e>
   1bcfc:	40e0073b          	negw	a4,a4
   1bd00:	d15d                	beqz	a0,1bca6 <__fixtfsi+0x24>
   1bd02:	4605                	li	a2,1
   1bd04:	a021                	j	1bd0c <__fixtfsi+0x8a>
   1bd06:	4701                	li	a4,0
   1bd08:	bfed                	j	1bd02 <__fixtfsi+0x80>
   1bd0a:	4641                	li	a2,16
   1bd0c:	00162073          	csrs	fflags,a2
   1bd10:	bf59                	j	1bca6 <__fixtfsi+0x24>

000000000001bd12 <__floatsitf>:
   1bd12:	1101                	addi	sp,sp,-32
   1bd14:	ec06                	sd	ra,24(sp)
   1bd16:	e822                	sd	s0,16(sp)
   1bd18:	e426                	sd	s1,8(sp)
   1bd1a:	c539                	beqz	a0,1bd68 <__floatsitf+0x56>
   1bd1c:	0005079b          	sext.w	a5,a0
   1bd20:	03f55493          	srli	s1,a0,0x3f
   1bd24:	00055463          	bgez	a0,1bd2c <__floatsitf+0x1a>
   1bd28:	40f007bb          	negw	a5,a5
   1bd2c:	02079413          	slli	s0,a5,0x20
   1bd30:	9001                	srli	s0,s0,0x20
   1bd32:	8522                	mv	a0,s0
   1bd34:	328000ef          	jal	ra,1c05c <__clzdi2>
   1bd38:	6711                	lui	a4,0x4
   1bd3a:	03e7079b          	addiw	a5,a4,62
   1bd3e:	40a785bb          	subw	a1,a5,a0
   1bd42:	02f7071b          	addiw	a4,a4,47
   1bd46:	40b7053b          	subw	a0,a4,a1
   1bd4a:	00a41533          	sll	a0,s0,a0
   1bd4e:	60e2                	ld	ra,24(sp)
   1bd50:	6442                	ld	s0,16(sp)
   1bd52:	0542                	slli	a0,a0,0x10
   1bd54:	15c6                	slli	a1,a1,0x31
   1bd56:	8141                	srli	a0,a0,0x10
   1bd58:	8185                	srli	a1,a1,0x1
   1bd5a:	14fe                	slli	s1,s1,0x3f
   1bd5c:	8dc9                	or	a1,a1,a0
   1bd5e:	8dc5                	or	a1,a1,s1
   1bd60:	4501                	li	a0,0
   1bd62:	64a2                	ld	s1,8(sp)
   1bd64:	6105                	addi	sp,sp,32
   1bd66:	8082                	ret
   1bd68:	4501                	li	a0,0
   1bd6a:	4581                	li	a1,0
   1bd6c:	4481                	li	s1,0
   1bd6e:	b7c5                	j	1bd4e <__floatsitf+0x3c>

000000000001bd70 <__extenddftf2>:
   1bd70:	1101                	addi	sp,sp,-32
   1bd72:	ec06                	sd	ra,24(sp)
   1bd74:	e822                	sd	s0,16(sp)
   1bd76:	e426                	sd	s1,8(sp)
   1bd78:	e20505d3          	fmv.x.d	a1,fa0
   1bd7c:	002027f3          	frrm	a5
   1bd80:	0345d513          	srli	a0,a1,0x34
   1bd84:	7ff57513          	andi	a0,a0,2047
   1bd88:	00150713          	addi	a4,a0,1
   1bd8c:	00c59413          	slli	s0,a1,0xc
   1bd90:	7fe77713          	andi	a4,a4,2046
   1bd94:	8031                	srli	s0,s0,0xc
   1bd96:	03f5d493          	srli	s1,a1,0x3f
   1bd9a:	cb11                	beqz	a4,1bdae <__extenddftf2+0x3e>
   1bd9c:	6711                	lui	a4,0x4
   1bd9e:	c0070713          	addi	a4,a4,-1024 # 3c00 <register_fini-0xc4b0>
   1bda2:	00445793          	srli	a5,s0,0x4
   1bda6:	953a                	add	a0,a0,a4
   1bda8:	1472                	slli	s0,s0,0x3c
   1bdaa:	4701                	li	a4,0
   1bdac:	a8b9                	j	1be0a <__extenddftf2+0x9a>
   1bdae:	ed1d                	bnez	a0,1bdec <__extenddftf2+0x7c>
   1bdb0:	4781                	li	a5,0
   1bdb2:	dc65                	beqz	s0,1bdaa <__extenddftf2+0x3a>
   1bdb4:	8522                	mv	a0,s0
   1bdb6:	2a6000ef          	jal	ra,1c05c <__clzdi2>
   1bdba:	0005071b          	sext.w	a4,a0
   1bdbe:	47b9                	li	a5,14
   1bdc0:	02e7c063          	blt	a5,a4,1bde0 <__extenddftf2+0x70>
   1bdc4:	47bd                	li	a5,15
   1bdc6:	9f89                	subw	a5,a5,a0
   1bdc8:	0315071b          	addiw	a4,a0,49
   1bdcc:	00f457b3          	srl	a5,s0,a5
   1bdd0:	00e41433          	sll	s0,s0,a4
   1bdd4:	6711                	lui	a4,0x4
   1bdd6:	c0c7071b          	addiw	a4,a4,-1012
   1bdda:	40a7053b          	subw	a0,a4,a0
   1bdde:	b7f1                	j	1bdaa <__extenddftf2+0x3a>
   1bde0:	ff15079b          	addiw	a5,a0,-15
   1bde4:	00f417b3          	sll	a5,s0,a5
   1bde8:	4401                	li	s0,0
   1bdea:	b7ed                	j	1bdd4 <__extenddftf2+0x64>
   1bdec:	c021                	beqz	s0,1be2c <__extenddftf2+0xbc>
   1bdee:	4685                	li	a3,1
   1bdf0:	03369713          	slli	a4,a3,0x33
   1bdf4:	8f61                	and	a4,a4,s0
   1bdf6:	00445793          	srli	a5,s0,0x4
   1bdfa:	00173713          	seqz	a4,a4
   1bdfe:	16be                	slli	a3,a3,0x2f
   1be00:	6521                	lui	a0,0x8
   1be02:	0712                	slli	a4,a4,0x4
   1be04:	8fd5                	or	a5,a5,a3
   1be06:	1472                	slli	s0,s0,0x3c
   1be08:	157d                	addi	a0,a0,-1
   1be0a:	07c2                	slli	a5,a5,0x10
   1be0c:	1546                	slli	a0,a0,0x31
   1be0e:	8105                	srli	a0,a0,0x1
   1be10:	83c1                	srli	a5,a5,0x10
   1be12:	03f49593          	slli	a1,s1,0x3f
   1be16:	8fc9                	or	a5,a5,a0
   1be18:	8ddd                	or	a1,a1,a5
   1be1a:	c319                	beqz	a4,1be20 <__extenddftf2+0xb0>
   1be1c:	00172073          	csrs	fflags,a4
   1be20:	8522                	mv	a0,s0
   1be22:	60e2                	ld	ra,24(sp)
   1be24:	6442                	ld	s0,16(sp)
   1be26:	64a2                	ld	s1,8(sp)
   1be28:	6105                	addi	sp,sp,32
   1be2a:	8082                	ret
   1be2c:	6521                	lui	a0,0x8
   1be2e:	4781                	li	a5,0
   1be30:	157d                	addi	a0,a0,-1
   1be32:	bfa5                	j	1bdaa <__extenddftf2+0x3a>

000000000001be34 <__trunctfdf2>:
   1be34:	00202673          	frrm	a2
   1be38:	68a1                	lui	a7,0x8
   1be3a:	0305d713          	srli	a4,a1,0x30
   1be3e:	fff88813          	addi	a6,a7,-1 # 7fff <register_fini-0x80b1>
   1be42:	03f5d693          	srli	a3,a1,0x3f
   1be46:	05c2                	slli	a1,a1,0x10
   1be48:	00d5d793          	srli	a5,a1,0xd
   1be4c:	01077733          	and	a4,a4,a6
   1be50:	03d55593          	srli	a1,a0,0x3d
   1be54:	8ddd                	or	a1,a1,a5
   1be56:	18f9                	addi	a7,a7,-2
   1be58:	00170793          	addi	a5,a4,1 # 4001 <register_fini-0xc0af>
   1be5c:	0117f8b3          	and	a7,a5,a7
   1be60:	2601                	sext.w	a2,a2
   1be62:	00351e93          	slli	t4,a0,0x3
   1be66:	16088c63          	beqz	a7,1bfde <__trunctfdf2+0x1aa>
   1be6a:	78f1                	lui	a7,0xffffc
   1be6c:	40088893          	addi	a7,a7,1024 # ffffffffffffc400 <__BSS_END__+0xfffffffffffdd460>
   1be70:	98ba                	add	a7,a7,a4
   1be72:	7fe00793          	li	a5,2046
   1be76:	0917dc63          	bge	a5,a7,1bf0e <__trunctfdf2+0xda>
   1be7a:	c229                	beqz	a2,1bebc <__trunctfdf2+0x88>
   1be7c:	478d                	li	a5,3
   1be7e:	02f61b63          	bne	a2,a5,1beb4 <__trunctfdf2+0x80>
   1be82:	ce8d                	beqz	a3,1bebc <__trunctfdf2+0x88>
   1be84:	57fd                	li	a5,-1
   1be86:	7fe00893          	li	a7,2046
   1be8a:	4701                	li	a4,0
   1be8c:	4315                	li	t1,5
   1be8e:	4589                	li	a1,2
   1be90:	00136313          	ori	t1,t1,1
   1be94:	1ab60063          	beq	a2,a1,1c034 <__trunctfdf2+0x200>
   1be98:	458d                	li	a1,3
   1be9a:	18b60963          	beq	a2,a1,1c02c <__trunctfdf2+0x1f8>
   1be9e:	e619                	bnez	a2,1beac <__trunctfdf2+0x78>
   1bea0:	00f7f593          	andi	a1,a5,15
   1bea4:	4511                	li	a0,4
   1bea6:	00a58363          	beq	a1,a0,1beac <__trunctfdf2+0x78>
   1beaa:	0791                	addi	a5,a5,4
   1beac:	cf01                	beqz	a4,1bec4 <__trunctfdf2+0x90>
   1beae:	00236313          	ori	t1,t1,2
   1beb2:	a809                	j	1bec4 <__trunctfdf2+0x90>
   1beb4:	4789                	li	a5,2
   1beb6:	fcf617e3          	bne	a2,a5,1be84 <__trunctfdf2+0x50>
   1beba:	d6e9                	beqz	a3,1be84 <__trunctfdf2+0x50>
   1bebc:	4781                	li	a5,0
   1bebe:	7ff00893          	li	a7,2047
   1bec2:	4315                	li	t1,5
   1bec4:	00879713          	slli	a4,a5,0x8
   1bec8:	00075b63          	bgez	a4,1bede <__trunctfdf2+0xaa>
   1becc:	0885                	addi	a7,a7,1
   1bece:	7ff00713          	li	a4,2047
   1bed2:	16e88463          	beq	a7,a4,1c03a <__trunctfdf2+0x206>
   1bed6:	567d                	li	a2,-1
   1bed8:	165e                	slli	a2,a2,0x37
   1beda:	167d                	addi	a2,a2,-1
   1bedc:	8ff1                	and	a5,a5,a2
   1bede:	7ff00713          	li	a4,2047
   1bee2:	838d                	srli	a5,a5,0x3
   1bee4:	00e89663          	bne	a7,a4,1bef0 <__trunctfdf2+0xbc>
   1bee8:	c781                	beqz	a5,1bef0 <__trunctfdf2+0xbc>
   1beea:	4785                	li	a5,1
   1beec:	17ce                	slli	a5,a5,0x33
   1beee:	4681                	li	a3,0
   1bef0:	07b2                	slli	a5,a5,0xc
   1bef2:	7ff8f713          	andi	a4,a7,2047
   1bef6:	1752                	slli	a4,a4,0x34
   1bef8:	83b1                	srli	a5,a5,0xc
   1befa:	16fe                	slli	a3,a3,0x3f
   1befc:	8fd9                	or	a5,a5,a4
   1befe:	8fd5                	or	a5,a5,a3
   1bf00:	00030463          	beqz	t1,1bf08 <__trunctfdf2+0xd4>
   1bf04:	00132073          	csrs	fflags,t1
   1bf08:	f2078553          	fmv.d.x	fa0,a5
   1bf0c:	8082                	ret
   1bf0e:	0b104363          	bgtz	a7,1bfb4 <__trunctfdf2+0x180>
   1bf12:	fcc00793          	li	a5,-52
   1bf16:	0ef8cf63          	blt	a7,a5,1c014 <__trunctfdf2+0x1e0>
   1bf1a:	4785                	li	a5,1
   1bf1c:	17ce                	slli	a5,a5,0x33
   1bf1e:	03d00e13          	li	t3,61
   1bf22:	8ddd                	or	a1,a1,a5
   1bf24:	411e0e33          	sub	t3,t3,a7
   1bf28:	03f00793          	li	a5,63
   1bf2c:	2881                	sext.w	a7,a7
   1bf2e:	05c7ce63          	blt	a5,t3,1bf8a <__trunctfdf2+0x156>
   1bf32:	0038851b          	addiw	a0,a7,3
   1bf36:	03d00713          	li	a4,61
   1bf3a:	4117073b          	subw	a4,a4,a7
   1bf3e:	00ae97b3          	sll	a5,t4,a0
   1bf42:	00eed733          	srl	a4,t4,a4
   1bf46:	00f037b3          	snez	a5,a5
   1bf4a:	8fd9                	or	a5,a5,a4
   1bf4c:	00a595b3          	sll	a1,a1,a0
   1bf50:	8fcd                	or	a5,a5,a1
   1bf52:	4881                	li	a7,0
   1bf54:	cbf1                	beqz	a5,1c028 <__trunctfdf2+0x1f4>
   1bf56:	00179713          	slli	a4,a5,0x1
   1bf5a:	00777593          	andi	a1,a4,7
   1bf5e:	4301                	li	t1,0
   1bf60:	cd99                	beqz	a1,1bf7e <__trunctfdf2+0x14a>
   1bf62:	4589                	li	a1,2
   1bf64:	0ab60d63          	beq	a2,a1,1c01e <__trunctfdf2+0x1ea>
   1bf68:	458d                	li	a1,3
   1bf6a:	4305                	li	t1,1
   1bf6c:	0ab60663          	beq	a2,a1,1c018 <__trunctfdf2+0x1e4>
   1bf70:	e619                	bnez	a2,1bf7e <__trunctfdf2+0x14a>
   1bf72:	00f77593          	andi	a1,a4,15
   1bf76:	4511                	li	a0,4
   1bf78:	00a58363          	beq	a1,a0,1bf7e <__trunctfdf2+0x14a>
   1bf7c:	0711                	addi	a4,a4,4
   1bf7e:	9361                	srli	a4,a4,0x38
   1bf80:	00174713          	xori	a4,a4,1
   1bf84:	8b05                	andi	a4,a4,1
   1bf86:	4881                	li	a7,0
   1bf88:	a091                	j	1bfcc <__trunctfdf2+0x198>
   1bf8a:	5375                	li	t1,-3
   1bf8c:	4113033b          	subw	t1,t1,a7
   1bf90:	04000793          	li	a5,64
   1bf94:	0065d333          	srl	t1,a1,t1
   1bf98:	4801                	li	a6,0
   1bf9a:	00fe0663          	beq	t3,a5,1bfa6 <__trunctfdf2+0x172>
   1bf9e:	0438871b          	addiw	a4,a7,67
   1bfa2:	00e59833          	sll	a6,a1,a4
   1bfa6:	01d86833          	or	a6,a6,t4
   1bfaa:	01003833          	snez	a6,a6
   1bfae:	010367b3          	or	a5,t1,a6
   1bfb2:	b745                	j	1bf52 <__trunctfdf2+0x11e>
   1bfb4:	00751793          	slli	a5,a0,0x7
   1bfb8:	00f037b3          	snez	a5,a5
   1bfbc:	03ced813          	srli	a6,t4,0x3c
   1bfc0:	0107e7b3          	or	a5,a5,a6
   1bfc4:	0592                	slli	a1,a1,0x4
   1bfc6:	8fcd                	or	a5,a5,a1
   1bfc8:	4701                	li	a4,0
   1bfca:	4301                	li	t1,0
   1bfcc:	0077f593          	andi	a1,a5,7
   1bfd0:	ea059fe3          	bnez	a1,1be8e <__trunctfdf2+0x5a>
   1bfd4:	ee0708e3          	beqz	a4,1bec4 <__trunctfdf2+0x90>
   1bfd8:	00137713          	andi	a4,t1,1
   1bfdc:	bdc1                	j	1beac <__trunctfdf2+0x78>
   1bfde:	01d5e7b3          	or	a5,a1,t4
   1bfe2:	e701                	bnez	a4,1bfea <__trunctfdf2+0x1b6>
   1bfe4:	00f037b3          	snez	a5,a5
   1bfe8:	b7ad                	j	1bf52 <__trunctfdf2+0x11e>
   1bfea:	cf8d                	beqz	a5,1c024 <__trunctfdf2+0x1f0>
   1bfec:	4301                	li	t1,0
   1bfee:	01071763          	bne	a4,a6,1bffc <__trunctfdf2+0x1c8>
   1bff2:	0325d313          	srli	t1,a1,0x32
   1bff6:	00133313          	seqz	t1,t1
   1bffa:	0312                	slli	t1,t1,0x4
   1bffc:	03ced793          	srli	a5,t4,0x3c
   1c000:	0592                	slli	a1,a1,0x4
   1c002:	8ddd                	or	a1,a1,a5
   1c004:	4785                	li	a5,1
   1c006:	99e1                	andi	a1,a1,-8
   1c008:	17da                	slli	a5,a5,0x36
   1c00a:	8fcd                	or	a5,a5,a1
   1c00c:	7ff00893          	li	a7,2047
   1c010:	4701                	li	a4,0
   1c012:	bf6d                	j	1bfcc <__trunctfdf2+0x198>
   1c014:	4785                	li	a5,1
   1c016:	b781                	j	1bf56 <__trunctfdf2+0x122>
   1c018:	f2bd                	bnez	a3,1bf7e <__trunctfdf2+0x14a>
   1c01a:	0721                	addi	a4,a4,8
   1c01c:	b78d                	j	1bf7e <__trunctfdf2+0x14a>
   1c01e:	4305                	li	t1,1
   1c020:	deb9                	beqz	a3,1bf7e <__trunctfdf2+0x14a>
   1c022:	bfe5                	j	1c01a <__trunctfdf2+0x1e6>
   1c024:	7ff00893          	li	a7,2047
   1c028:	4301                	li	t1,0
   1c02a:	bd69                	j	1bec4 <__trunctfdf2+0x90>
   1c02c:	e80690e3          	bnez	a3,1beac <__trunctfdf2+0x78>
   1c030:	07a1                	addi	a5,a5,8
   1c032:	bdad                	j	1beac <__trunctfdf2+0x78>
   1c034:	e6068ce3          	beqz	a3,1beac <__trunctfdf2+0x78>
   1c038:	bfe5                	j	1c030 <__trunctfdf2+0x1fc>
   1c03a:	4781                	li	a5,0
   1c03c:	ce09                	beqz	a2,1c056 <__trunctfdf2+0x222>
   1c03e:	470d                	li	a4,3
   1c040:	00e61763          	bne	a2,a4,1c04e <__trunctfdf2+0x21a>
   1c044:	ca89                	beqz	a3,1c056 <__trunctfdf2+0x222>
   1c046:	57fd                	li	a5,-1
   1c048:	7fe00893          	li	a7,2046
   1c04c:	a029                	j	1c056 <__trunctfdf2+0x222>
   1c04e:	4709                	li	a4,2
   1c050:	fee61be3          	bne	a2,a4,1c046 <__trunctfdf2+0x212>
   1c054:	daed                	beqz	a3,1c046 <__trunctfdf2+0x212>
   1c056:	00536313          	ori	t1,t1,5
   1c05a:	b551                	j	1bede <__trunctfdf2+0xaa>

000000000001c05c <__clzdi2>:
   1c05c:	03800793          	li	a5,56
   1c060:	00f55733          	srl	a4,a0,a5
   1c064:	0ff77713          	andi	a4,a4,255
   1c068:	e319                	bnez	a4,1c06e <__clzdi2+0x12>
   1c06a:	17e1                	addi	a5,a5,-8
   1c06c:	fbf5                	bnez	a5,1c060 <__clzdi2+0x4>
   1c06e:	04000713          	li	a4,64
   1c072:	8f1d                	sub	a4,a4,a5
   1c074:	00f557b3          	srl	a5,a0,a5
   1c078:	00001517          	auipc	a0,0x1
   1c07c:	c2050513          	addi	a0,a0,-992 # 1cc98 <__clz_tab>
   1c080:	97aa                	add	a5,a5,a0
   1c082:	0007c503          	lbu	a0,0(a5)
   1c086:	40a7053b          	subw	a0,a4,a0
   1c08a:	8082                	ret
