
hw:     file format elf64-littleriscv


Disassembly of section .text:

00000000000100b0 <register_fini>:
   100b0:	ffff0797          	auipc	a5,0xffff0
   100b4:	f5078793          	addi	a5,a5,-176 # 0 <register_fini-0x100b0>
   100b8:	c791                	beqz	a5,100c4 <register_fini+0x14>
   100ba:	00000517          	auipc	a0,0x0
   100be:	0e850513          	addi	a0,a0,232 # 101a2 <__libc_fini_array>
   100c2:	a855                	j	10176 <atexit>
   100c4:	8082                	ret

00000000000100c6 <_start>:
   100c6:	0000e197          	auipc	gp,0xe
   100ca:	6da18193          	addi	gp,gp,1754 # 1e7a0 <__global_pointer$>
   100ce:	77018513          	addi	a0,gp,1904 # 1ef10 <_edata>
   100d2:	0000f617          	auipc	a2,0xf
   100d6:	ece60613          	addi	a2,a2,-306 # 1efa0 <__BSS_END__>
   100da:	8e09                	sub	a2,a2,a0
   100dc:	4581                	li	a1,0
   100de:	166000ef          	jal	ra,10244 <memset>
   100e2:	00000517          	auipc	a0,0x0
   100e6:	0c050513          	addi	a0,a0,192 # 101a2 <__libc_fini_array>
   100ea:	08c000ef          	jal	ra,10176 <atexit>
   100ee:	0ec000ef          	jal	ra,101da <__libc_init_array>
   100f2:	4502                	lw	a0,0(sp)
   100f4:	002c                	addi	a1,sp,8
   100f6:	4601                	li	a2,0
   100f8:	060000ef          	jal	ra,10158 <main>
   100fc:	a059                	j	10182 <exit>

00000000000100fe <__do_global_dtors_aux>:
   100fe:	7981c783          	lbu	a5,1944(gp) # 1ef38 <completed.5470>
   10102:	eb95                	bnez	a5,10136 <__do_global_dtors_aux+0x38>
   10104:	ffff0797          	auipc	a5,0xffff0
   10108:	efc78793          	addi	a5,a5,-260 # 0 <register_fini-0x100b0>
   1010c:	c38d                	beqz	a5,1012e <__do_global_dtors_aux+0x30>
   1010e:	1141                	addi	sp,sp,-16
   10110:	0000e517          	auipc	a0,0xe
   10114:	c8850513          	addi	a0,a0,-888 # 1dd98 <__FRAME_END__>
   10118:	e406                	sd	ra,8(sp)
   1011a:	00000097          	auipc	ra,0x0
   1011e:	000000e7          	jalr	zero # 0 <register_fini-0x100b0>
   10122:	60a2                	ld	ra,8(sp)
   10124:	4785                	li	a5,1
   10126:	78f18c23          	sb	a5,1944(gp) # 1ef38 <completed.5470>
   1012a:	0141                	addi	sp,sp,16
   1012c:	8082                	ret
   1012e:	4785                	li	a5,1
   10130:	78f18c23          	sb	a5,1944(gp) # 1ef38 <completed.5470>
   10134:	8082                	ret
   10136:	8082                	ret

0000000000010138 <frame_dummy>:
   10138:	ffff0797          	auipc	a5,0xffff0
   1013c:	ec878793          	addi	a5,a5,-312 # 0 <register_fini-0x100b0>
   10140:	cb99                	beqz	a5,10156 <frame_dummy+0x1e>
   10142:	7a018593          	addi	a1,gp,1952 # 1ef40 <object.5475>
   10146:	0000e517          	auipc	a0,0xe
   1014a:	c5250513          	addi	a0,a0,-942 # 1dd98 <__FRAME_END__>
   1014e:	00000317          	auipc	t1,0x0
   10152:	00000067          	jr	zero # 0 <register_fini-0x100b0>
   10156:	8082                	ret

0000000000010158 <main>:
   10158:	1141                	addi	sp,sp,-16
   1015a:	e406                	sd	ra,8(sp)
   1015c:	e022                	sd	s0,0(sp)
   1015e:	0800                	addi	s0,sp,16
   10160:	67f1                	lui	a5,0x1c
   10162:	09078513          	addi	a0,a5,144 # 1c090 <__clzdi2+0x34>
   10166:	1ac000ef          	jal	ra,10312 <printf>
   1016a:	4781                	li	a5,0
   1016c:	853e                	mv	a0,a5
   1016e:	60a2                	ld	ra,8(sp)
   10170:	6402                	ld	s0,0(sp)
   10172:	0141                	addi	sp,sp,16
   10174:	8082                	ret

0000000000010176 <atexit>:
   10176:	85aa                	mv	a1,a0
   10178:	4681                	li	a3,0
   1017a:	4601                	li	a2,0
   1017c:	4501                	li	a0,0
   1017e:	75d0106f          	j	120da <__register_exitproc>

0000000000010182 <exit>:
   10182:	1141                	addi	sp,sp,-16
   10184:	4581                	li	a1,0
   10186:	e022                	sd	s0,0(sp)
   10188:	e406                	sd	ra,8(sp)
   1018a:	842a                	mv	s0,a0
   1018c:	7c7010ef          	jal	ra,12152 <__call_exitprocs>
   10190:	74818793          	addi	a5,gp,1864 # 1eee8 <_global_impure_ptr>
   10194:	6388                	ld	a0,0(a5)
   10196:	6d3c                	ld	a5,88(a0)
   10198:	c391                	beqz	a5,1019c <exit+0x1a>
   1019a:	9782                	jalr	a5
   1019c:	8522                	mv	a0,s0
   1019e:	0d10a0ef          	jal	ra,1aa6e <_exit>

00000000000101a2 <__libc_fini_array>:
   101a2:	1101                	addi	sp,sp,-32
   101a4:	e822                	sd	s0,16(sp)
   101a6:	0000e797          	auipc	a5,0xe
   101aa:	c1278793          	addi	a5,a5,-1006 # 1ddb8 <__fini_array_end>
   101ae:	0000e417          	auipc	s0,0xe
   101b2:	c0240413          	addi	s0,s0,-1022 # 1ddb0 <__init_array_end>
   101b6:	8f81                	sub	a5,a5,s0
   101b8:	e426                	sd	s1,8(sp)
   101ba:	ec06                	sd	ra,24(sp)
   101bc:	4037d493          	srai	s1,a5,0x3
   101c0:	c881                	beqz	s1,101d0 <__libc_fini_array+0x2e>
   101c2:	17e1                	addi	a5,a5,-8
   101c4:	943e                	add	s0,s0,a5
   101c6:	601c                	ld	a5,0(s0)
   101c8:	14fd                	addi	s1,s1,-1
   101ca:	1461                	addi	s0,s0,-8
   101cc:	9782                	jalr	a5
   101ce:	fce5                	bnez	s1,101c6 <__libc_fini_array+0x24>
   101d0:	60e2                	ld	ra,24(sp)
   101d2:	6442                	ld	s0,16(sp)
   101d4:	64a2                	ld	s1,8(sp)
   101d6:	6105                	addi	sp,sp,32
   101d8:	8082                	ret

00000000000101da <__libc_init_array>:
   101da:	1101                	addi	sp,sp,-32
   101dc:	e822                	sd	s0,16(sp)
   101de:	e04a                	sd	s2,0(sp)
   101e0:	0000e417          	auipc	s0,0xe
   101e4:	bbc40413          	addi	s0,s0,-1092 # 1dd9c <__preinit_array_end>
   101e8:	0000e917          	auipc	s2,0xe
   101ec:	bb490913          	addi	s2,s2,-1100 # 1dd9c <__preinit_array_end>
   101f0:	40890933          	sub	s2,s2,s0
   101f4:	ec06                	sd	ra,24(sp)
   101f6:	e426                	sd	s1,8(sp)
   101f8:	40395913          	srai	s2,s2,0x3
   101fc:	00090963          	beqz	s2,1020e <__libc_init_array+0x34>
   10200:	4481                	li	s1,0
   10202:	601c                	ld	a5,0(s0)
   10204:	0485                	addi	s1,s1,1
   10206:	0421                	addi	s0,s0,8
   10208:	9782                	jalr	a5
   1020a:	fe991ce3          	bne	s2,s1,10202 <__libc_init_array+0x28>
   1020e:	0000e417          	auipc	s0,0xe
   10212:	b9240413          	addi	s0,s0,-1134 # 1dda0 <__init_array_start>
   10216:	0000e917          	auipc	s2,0xe
   1021a:	b9a90913          	addi	s2,s2,-1126 # 1ddb0 <__init_array_end>
   1021e:	40890933          	sub	s2,s2,s0
   10222:	40395913          	srai	s2,s2,0x3
   10226:	00090963          	beqz	s2,10238 <__libc_init_array+0x5e>
   1022a:	4481                	li	s1,0
   1022c:	601c                	ld	a5,0(s0)
   1022e:	0485                	addi	s1,s1,1
   10230:	0421                	addi	s0,s0,8
   10232:	9782                	jalr	a5
   10234:	fe991ce3          	bne	s2,s1,1022c <__libc_init_array+0x52>
   10238:	60e2                	ld	ra,24(sp)
   1023a:	6442                	ld	s0,16(sp)
   1023c:	64a2                	ld	s1,8(sp)
   1023e:	6902                	ld	s2,0(sp)
   10240:	6105                	addi	sp,sp,32
   10242:	8082                	ret

0000000000010244 <memset>:
   10244:	433d                	li	t1,15
   10246:	872a                	mv	a4,a0
   10248:	02c37163          	bgeu	t1,a2,1026a <memset+0x26>
   1024c:	00f77793          	andi	a5,a4,15
   10250:	e3c1                	bnez	a5,102d0 <memset+0x8c>
   10252:	e1bd                	bnez	a1,102b8 <memset+0x74>
   10254:	ff067693          	andi	a3,a2,-16
   10258:	8a3d                	andi	a2,a2,15
   1025a:	96ba                	add	a3,a3,a4
   1025c:	e30c                	sd	a1,0(a4)
   1025e:	e70c                	sd	a1,8(a4)
   10260:	0741                	addi	a4,a4,16
   10262:	fed76de3          	bltu	a4,a3,1025c <memset+0x18>
   10266:	e211                	bnez	a2,1026a <memset+0x26>
   10268:	8082                	ret
   1026a:	40c306b3          	sub	a3,t1,a2
   1026e:	068a                	slli	a3,a3,0x2
   10270:	00000297          	auipc	t0,0x0
   10274:	9696                	add	a3,a3,t0
   10276:	00a68067          	jr	10(a3)
   1027a:	00b70723          	sb	a1,14(a4)
   1027e:	00b706a3          	sb	a1,13(a4)
   10282:	00b70623          	sb	a1,12(a4)
   10286:	00b705a3          	sb	a1,11(a4)
   1028a:	00b70523          	sb	a1,10(a4)
   1028e:	00b704a3          	sb	a1,9(a4)
   10292:	00b70423          	sb	a1,8(a4)
   10296:	00b703a3          	sb	a1,7(a4)
   1029a:	00b70323          	sb	a1,6(a4)
   1029e:	00b702a3          	sb	a1,5(a4)
   102a2:	00b70223          	sb	a1,4(a4)
   102a6:	00b701a3          	sb	a1,3(a4)
   102aa:	00b70123          	sb	a1,2(a4)
   102ae:	00b700a3          	sb	a1,1(a4)
   102b2:	00b70023          	sb	a1,0(a4)
   102b6:	8082                	ret
   102b8:	0ff5f593          	andi	a1,a1,255
   102bc:	00859693          	slli	a3,a1,0x8
   102c0:	8dd5                	or	a1,a1,a3
   102c2:	01059693          	slli	a3,a1,0x10
   102c6:	8dd5                	or	a1,a1,a3
   102c8:	02059693          	slli	a3,a1,0x20
   102cc:	8dd5                	or	a1,a1,a3
   102ce:	b759                	j	10254 <memset+0x10>
   102d0:	00279693          	slli	a3,a5,0x2
   102d4:	00000297          	auipc	t0,0x0
   102d8:	9696                	add	a3,a3,t0
   102da:	8286                	mv	t0,ra
   102dc:	fa2680e7          	jalr	-94(a3)
   102e0:	8096                	mv	ra,t0
   102e2:	17c1                	addi	a5,a5,-16
   102e4:	8f1d                	sub	a4,a4,a5
   102e6:	963e                	add	a2,a2,a5
   102e8:	f8c371e3          	bgeu	t1,a2,1026a <memset+0x26>
   102ec:	b79d                	j	10252 <memset+0xe>

00000000000102ee <_printf_r>:
   102ee:	715d                	addi	sp,sp,-80
   102f0:	f032                	sd	a2,32(sp)
   102f2:	f436                	sd	a3,40(sp)
   102f4:	fc3e                	sd	a5,56(sp)
   102f6:	f83a                	sd	a4,48(sp)
   102f8:	e0c2                	sd	a6,64(sp)
   102fa:	e4c6                	sd	a7,72(sp)
   102fc:	862e                	mv	a2,a1
   102fe:	690c                	ld	a1,16(a0)
   10300:	101c                	addi	a5,sp,32
   10302:	86be                	mv	a3,a5
   10304:	ec06                	sd	ra,24(sp)
   10306:	e43e                	sd	a5,8(sp)
   10308:	03c000ef          	jal	ra,10344 <_vfprintf_r>
   1030c:	60e2                	ld	ra,24(sp)
   1030e:	6161                	addi	sp,sp,80
   10310:	8082                	ret

0000000000010312 <printf>:
   10312:	75818313          	addi	t1,gp,1880 # 1eef8 <_impure_ptr>
   10316:	00033303          	ld	t1,0(t1) # 1014e <frame_dummy+0x16>
   1031a:	711d                	addi	sp,sp,-96
   1031c:	f832                	sd	a2,48(sp)
   1031e:	fc36                	sd	a3,56(sp)
   10320:	e4be                	sd	a5,72(sp)
   10322:	f42e                	sd	a1,40(sp)
   10324:	e0ba                	sd	a4,64(sp)
   10326:	e8c2                	sd	a6,80(sp)
   10328:	ecc6                	sd	a7,88(sp)
   1032a:	01033583          	ld	a1,16(t1)
   1032e:	103c                	addi	a5,sp,40
   10330:	862a                	mv	a2,a0
   10332:	86be                	mv	a3,a5
   10334:	851a                	mv	a0,t1
   10336:	ec06                	sd	ra,24(sp)
   10338:	e43e                	sd	a5,8(sp)
   1033a:	00a000ef          	jal	ra,10344 <_vfprintf_r>
   1033e:	60e2                	ld	ra,24(sp)
   10340:	6125                	addi	sp,sp,96
   10342:	8082                	ret

0000000000010344 <_vfprintf_r>:
   10344:	d8010113          	addi	sp,sp,-640
   10348:	26113c23          	sd	ra,632(sp)
   1034c:	25413823          	sd	s4,592(sp)
   10350:	25513423          	sd	s5,584(sp)
   10354:	23a13023          	sd	s10,544(sp)
   10358:	8a2e                	mv	s4,a1
   1035a:	8d32                	mv	s10,a2
   1035c:	e836                	sd	a3,16(sp)
   1035e:	26813823          	sd	s0,624(sp)
   10362:	26913423          	sd	s1,616(sp)
   10366:	27213023          	sd	s2,608(sp)
   1036a:	25313c23          	sd	s3,600(sp)
   1036e:	25613023          	sd	s6,576(sp)
   10372:	23713c23          	sd	s7,568(sp)
   10376:	23813823          	sd	s8,560(sp)
   1037a:	23913423          	sd	s9,552(sp)
   1037e:	21b13c23          	sd	s11,536(sp)
   10382:	8aaa                	mv	s5,a0
   10384:	7e4040ef          	jal	ra,14b68 <_localeconv_r>
   10388:	611c                	ld	a5,0(a0)
   1038a:	853e                	mv	a0,a5
   1038c:	e13e                	sd	a5,128(sp)
   1038e:	7bd050ef          	jal	ra,1634a <strlen>
   10392:	fcaa                	sd	a0,120(sp)
   10394:	e202                	sd	zero,256(sp)
   10396:	e602                	sd	zero,264(sp)
   10398:	000a8663          	beqz	s5,103a4 <_vfprintf_r+0x60>
   1039c:	050aa783          	lw	a5,80(s5)
   103a0:	1c0789e3          	beqz	a5,10d72 <_vfprintf_r+0xa2e>
   103a4:	010a1683          	lh	a3,16(s4)
   103a8:	03069793          	slli	a5,a3,0x30
   103ac:	93c1                	srli	a5,a5,0x30
   103ae:	03279713          	slli	a4,a5,0x32
   103b2:	00074f63          	bltz	a4,103d0 <_vfprintf_r+0x8c>
   103b6:	0aca2603          	lw	a2,172(s4)
   103ba:	6789                	lui	a5,0x2
   103bc:	8fd5                	or	a5,a5,a3
   103be:	76f9                	lui	a3,0xffffe
   103c0:	16fd                	addi	a3,a3,-1
   103c2:	8ef1                	and	a3,a3,a2
   103c4:	00fa1823          	sh	a5,16(s4)
   103c8:	17c2                	slli	a5,a5,0x30
   103ca:	0ada2623          	sw	a3,172(s4)
   103ce:	93c1                	srli	a5,a5,0x30
   103d0:	0087f693          	andi	a3,a5,8
   103d4:	c2fd                	beqz	a3,104ba <_vfprintf_r+0x176>
   103d6:	018a3683          	ld	a3,24(s4)
   103da:	c2e5                	beqz	a3,104ba <_vfprintf_r+0x176>
   103dc:	8be9                	andi	a5,a5,26
   103de:	46a9                	li	a3,10
   103e0:	0ed78a63          	beq	a5,a3,104d4 <_vfprintf_r+0x190>
   103e4:	000d4783          	lbu	a5,0(s10)
   103e8:	19010b13          	addi	s6,sp,400
   103ec:	ea5a                	sd	s6,272(sp)
   103ee:	f202                	sd	zero,288(sp)
   103f0:	10012c23          	sw	zero,280(sp)
   103f4:	f402                	sd	zero,40(sp)
   103f6:	f802                	sd	zero,48(sp)
   103f8:	e902                	sd	zero,144(sp)
   103fa:	f882                	sd	zero,112(sp)
   103fc:	e502                	sd	zero,136(sp)
   103fe:	ed02                	sd	zero,152(sp)
   10400:	e402                	sd	zero,8(sp)
   10402:	835a                	mv	t1,s6
   10404:	4dc1                	li	s11,16
   10406:	0000c917          	auipc	s2,0xc
   1040a:	e1a90913          	addi	s2,s2,-486 # 1c220 <zeroes.4541>
   1040e:	74078d63          	beqz	a5,10b68 <_vfprintf_r+0x824>
   10412:	02500693          	li	a3,37
   10416:	00d79463          	bne	a5,a3,1041e <_vfprintf_r+0xda>
   1041a:	09a0106f          	j	114b4 <_vfprintf_r+0x1170>
   1041e:	846a                	mv	s0,s10
   10420:	a021                	j	10428 <_vfprintf_r+0xe4>
   10422:	0cd78563          	beq	a5,a3,104ec <_vfprintf_r+0x1a8>
   10426:	844e                	mv	s0,s3
   10428:	00144783          	lbu	a5,1(s0)
   1042c:	00140993          	addi	s3,s0,1
   10430:	fbed                	bnez	a5,10422 <_vfprintf_r+0xde>
   10432:	41a984bb          	subw	s1,s3,s10
   10436:	72048963          	beqz	s1,10b68 <_vfprintf_r+0x824>
   1043a:	7692                	ld	a3,288(sp)
   1043c:	11812783          	lw	a5,280(sp)
   10440:	01a33023          	sd	s10,0(t1)
   10444:	96a6                	add	a3,a3,s1
   10446:	2785                	addiw	a5,a5,1
   10448:	00933423          	sd	s1,8(t1)
   1044c:	f236                	sd	a3,288(sp)
   1044e:	10f12c23          	sw	a5,280(sp)
   10452:	0007869b          	sext.w	a3,a5
   10456:	479d                	li	a5,7
   10458:	0341                	addi	t1,t1,16
   1045a:	08d7cd63          	blt	a5,a3,104f4 <_vfprintf_r+0x1b0>
   1045e:	6722                	ld	a4,8(sp)
   10460:	00144783          	lbu	a5,1(s0)
   10464:	9f25                	addw	a4,a4,s1
   10466:	e43a                	sd	a4,8(sp)
   10468:	70078063          	beqz	a5,10b68 <_vfprintf_r+0x824>
   1046c:	00198493          	addi	s1,s3,1
   10470:	0019cf03          	lbu	t5,1(s3)
   10474:	0c010fa3          	sb	zero,223(sp)
   10478:	5efd                	li	t4,-1
   1047a:	4b81                	li	s7,0
   1047c:	4401                	li	s0,0
   1047e:	49a5                	li	s3,9
   10480:	02a00c13          	li	s8,42
   10484:	0485                	addi	s1,s1,1
   10486:	000f0c9b          	sext.w	s9,t5
   1048a:	05a00613          	li	a2,90
   1048e:	fe0c879b          	addiw	a5,s9,-32
   10492:	0007869b          	sext.w	a3,a5
   10496:	18d66763          	bltu	a2,a3,10624 <_vfprintf_r+0x2e0>
   1049a:	1782                	slli	a5,a5,0x20
   1049c:	0000c717          	auipc	a4,0xc
   104a0:	c0470713          	addi	a4,a4,-1020 # 1c0a0 <__clzdi2+0x44>
   104a4:	83f9                	srli	a5,a5,0x1e
   104a6:	97ba                	add	a5,a5,a4
   104a8:	439c                	lw	a5,0(a5)
   104aa:	97ba                	add	a5,a5,a4
   104ac:	8782                	jr	a5
   104ae:	01046413          	ori	s0,s0,16
   104b2:	2401                	sext.w	s0,s0
   104b4:	0004cf03          	lbu	t5,0(s1)
   104b8:	b7f1                	j	10484 <_vfprintf_r+0x140>
   104ba:	85d2                	mv	a1,s4
   104bc:	8556                	mv	a0,s5
   104be:	329010ef          	jal	ra,11fe6 <__swsetup_r>
   104c2:	c119                	beqz	a0,104c8 <_vfprintf_r+0x184>
   104c4:	7cc0106f          	j	11c90 <_vfprintf_r+0x194c>
   104c8:	010a5783          	lhu	a5,16(s4)
   104cc:	46a9                	li	a3,10
   104ce:	8be9                	andi	a5,a5,26
   104d0:	f0d79ae3          	bne	a5,a3,103e4 <_vfprintf_r+0xa0>
   104d4:	012a1783          	lh	a5,18(s4)
   104d8:	f007c6e3          	bltz	a5,103e4 <_vfprintf_r+0xa0>
   104dc:	66c2                	ld	a3,16(sp)
   104de:	866a                	mv	a2,s10
   104e0:	85d2                	mv	a1,s4
   104e2:	8556                	mv	a0,s5
   104e4:	26f010ef          	jal	ra,11f52 <__sbprintf>
   104e8:	e42a                	sd	a0,8(sp)
   104ea:	a089                	j	1052c <_vfprintf_r+0x1e8>
   104ec:	41a984bb          	subw	s1,s3,s10
   104f0:	dcb5                	beqz	s1,1046c <_vfprintf_r+0x128>
   104f2:	b7a1                	j	1043a <_vfprintf_r+0xf6>
   104f4:	0a10                	addi	a2,sp,272
   104f6:	85d2                	mv	a1,s4
   104f8:	8556                	mv	a0,s5
   104fa:	3d3070ef          	jal	ra,180cc <__sprint_r>
   104fe:	e105                	bnez	a0,1051e <_vfprintf_r+0x1da>
   10500:	835a                	mv	t1,s6
   10502:	bfb1                	j	1045e <_vfprintf_r+0x11a>
   10504:	0a10                	addi	a2,sp,272
   10506:	85d2                	mv	a1,s4
   10508:	8556                	mv	a0,s5
   1050a:	3c3070ef          	jal	ra,180cc <__sprint_r>
   1050e:	62050f63          	beqz	a0,10b4c <_vfprintf_r+0x808>
   10512:	7782                	ld	a5,32(sp)
   10514:	c789                	beqz	a5,1051e <_vfprintf_r+0x1da>
   10516:	85be                	mv	a1,a5
   10518:	8556                	mv	a0,s5
   1051a:	238020ef          	jal	ra,12752 <_free_r>
   1051e:	010a5783          	lhu	a5,16(s4)
   10522:	0407f793          	andi	a5,a5,64
   10526:	c399                	beqz	a5,1052c <_vfprintf_r+0x1e8>
   10528:	7680106f          	j	11c90 <_vfprintf_r+0x194c>
   1052c:	27813083          	ld	ra,632(sp)
   10530:	27013403          	ld	s0,624(sp)
   10534:	6522                	ld	a0,8(sp)
   10536:	26813483          	ld	s1,616(sp)
   1053a:	26013903          	ld	s2,608(sp)
   1053e:	25813983          	ld	s3,600(sp)
   10542:	25013a03          	ld	s4,592(sp)
   10546:	24813a83          	ld	s5,584(sp)
   1054a:	24013b03          	ld	s6,576(sp)
   1054e:	23813b83          	ld	s7,568(sp)
   10552:	23013c03          	ld	s8,560(sp)
   10556:	22813c83          	ld	s9,552(sp)
   1055a:	22013d03          	ld	s10,544(sp)
   1055e:	21813d83          	ld	s11,536(sp)
   10562:	28010113          	addi	sp,sp,640
   10566:	8082                	ret
   10568:	66c2                	ld	a3,16(sp)
   1056a:	0000c797          	auipc	a5,0xc
   1056e:	d1678793          	addi	a5,a5,-746 # 1c280 <zeroes.4541+0x60>
   10572:	f83e                	sd	a5,48(sp)
   10574:	02047793          	andi	a5,s0,32
   10578:	00868713          	addi	a4,a3,8 # ffffffffffffe008 <__BSS_END__+0xfffffffffffdf068>
   1057c:	cbf1                	beqz	a5,10650 <_vfprintf_r+0x30c>
   1057e:	0006b983          	ld	s3,0(a3)
   10582:	00147793          	andi	a5,s0,1
   10586:	cf81                	beqz	a5,1059e <_vfprintf_r+0x25a>
   10588:	00098b63          	beqz	s3,1059e <_vfprintf_r+0x25a>
   1058c:	00246413          	ori	s0,s0,2
   10590:	03000793          	li	a5,48
   10594:	0ef10023          	sb	a5,224(sp)
   10598:	0f9100a3          	sb	s9,225(sp)
   1059c:	2401                	sext.w	s0,s0
   1059e:	bff47693          	andi	a3,s0,-1025
   105a2:	2681                	sext.w	a3,a3
   105a4:	e83a                	sd	a4,16(sp)
   105a6:	4789                	li	a5,2
   105a8:	0c010fa3          	sb	zero,223(sp)
   105ac:	577d                	li	a4,-1
   105ae:	46ee8063          	beq	t4,a4,10a0e <_vfprintf_r+0x6ca>
   105b2:	f7f6f413          	andi	s0,a3,-129
   105b6:	2401                	sext.w	s0,s0
   105b8:	2c099be3          	bnez	s3,1108e <_vfprintf_r+0xd4a>
   105bc:	400e98e3          	bnez	t4,111cc <_vfprintf_r+0xe88>
   105c0:	3c079163          	bnez	a5,10982 <_vfprintf_r+0x63e>
   105c4:	0016fc13          	andi	s8,a3,1
   105c8:	18c10d13          	addi	s10,sp,396
   105cc:	5c0c12e3          	bnez	s8,11390 <_vfprintf_r+0x104c>
   105d0:	000c099b          	sext.w	s3,s8
   105d4:	01dc5463          	bge	s8,t4,105dc <_vfprintf_r+0x298>
   105d8:	000e899b          	sext.w	s3,t4
   105dc:	0df14783          	lbu	a5,223(sp)
   105e0:	f002                	sd	zero,32(sp)
   105e2:	ec82                	sd	zero,88(sp)
   105e4:	f482                	sd	zero,104(sp)
   105e6:	f082                	sd	zero,96(sp)
   105e8:	48078b63          	beqz	a5,10a7e <_vfprintf_r+0x73a>
   105ec:	2985                	addiw	s3,s3,1
   105ee:	a941                	j	10a7e <_vfprintf_r+0x73a>
   105f0:	4b81                	li	s7,0
   105f2:	0485                	addi	s1,s1,1
   105f4:	fff4c683          	lbu	a3,-1(s1)
   105f8:	002b979b          	slliw	a5,s7,0x2
   105fc:	01778bbb          	addw	s7,a5,s7
   10600:	fd0c8f1b          	addiw	t5,s9,-48
   10604:	001b9b9b          	slliw	s7,s7,0x1
   10608:	fd06879b          	addiw	a5,a3,-48
   1060c:	017f0bbb          	addw	s7,t5,s7
   10610:	00068c9b          	sext.w	s9,a3
   10614:	fcf9ffe3          	bgeu	s3,a5,105f2 <_vfprintf_r+0x2ae>
   10618:	fe0c879b          	addiw	a5,s9,-32
   1061c:	0007869b          	sext.w	a3,a5
   10620:	e6d67de3          	bgeu	a2,a3,1049a <_vfprintf_r+0x156>
   10624:	540c8263          	beqz	s9,10b68 <_vfprintf_r+0x824>
   10628:	13910423          	sb	s9,296(sp)
   1062c:	0c010fa3          	sb	zero,223(sp)
   10630:	4985                	li	s3,1
   10632:	4c05                	li	s8,1
   10634:	12810d13          	addi	s10,sp,296
   10638:	a935                	j	10a74 <_vfprintf_r+0x730>
   1063a:	66c2                	ld	a3,16(sp)
   1063c:	0000c797          	auipc	a5,0xc
   10640:	c5c78793          	addi	a5,a5,-932 # 1c298 <zeroes.4541+0x78>
   10644:	f83e                	sd	a5,48(sp)
   10646:	02047793          	andi	a5,s0,32
   1064a:	00868713          	addi	a4,a3,8
   1064e:	fb85                	bnez	a5,1057e <_vfprintf_r+0x23a>
   10650:	01047793          	andi	a5,s0,16
   10654:	560799e3          	bnez	a5,113c6 <_vfprintf_r+0x1082>
   10658:	66c2                	ld	a3,16(sp)
   1065a:	04047793          	andi	a5,s0,64
   1065e:	0006a983          	lw	s3,0(a3)
   10662:	e399                	bnez	a5,10668 <_vfprintf_r+0x324>
   10664:	78f0006f          	j	115f2 <_vfprintf_r+0x12ae>
   10668:	19c2                	slli	s3,s3,0x30
   1066a:	0309d993          	srli	s3,s3,0x30
   1066e:	bf11                	j	10582 <_vfprintf_r+0x23e>
   10670:	0004cf03          	lbu	t5,0(s1)
   10674:	00446413          	ori	s0,s0,4
   10678:	2401                	sext.w	s0,s0
   1067a:	b529                	j	10484 <_vfprintf_r+0x140>
   1067c:	0004cf03          	lbu	t5,0(s1)
   10680:	06800793          	li	a5,104
   10684:	58ff0de3          	beq	t5,a5,1141e <_vfprintf_r+0x10da>
   10688:	04046413          	ori	s0,s0,64
   1068c:	2401                	sext.w	s0,s0
   1068e:	bbdd                	j	10484 <_vfprintf_r+0x140>
   10690:	00847793          	andi	a5,s0,8
   10694:	50079be3          	bnez	a5,113aa <_vfprintf_r+0x1066>
   10698:	67c2                	ld	a5,16(sp)
   1069a:	f01a                	sd	t1,32(sp)
   1069c:	ec76                	sd	t4,24(sp)
   1069e:	2388                	fld	fa0,0(a5)
   106a0:	07a1                	addi	a5,a5,8
   106a2:	e83e                	sd	a5,16(sp)
   106a4:	6cc0b0ef          	jal	ra,1bd70 <__extenddftf2>
   106a8:	7302                	ld	t1,32(sp)
   106aa:	6ee2                	ld	t4,24(sp)
   106ac:	e22a                	sd	a0,256(sp)
   106ae:	e62e                	sd	a1,264(sp)
   106b0:	0208                	addi	a0,sp,256
   106b2:	f01a                	sd	t1,32(sp)
   106b4:	ec76                	sd	t4,24(sp)
   106b6:	476040ef          	jal	ra,14b2c <_ldcheck>
   106ba:	d5aa                	sw	a0,232(sp)
   106bc:	4789                	li	a5,2
   106be:	6ee2                	ld	t4,24(sp)
   106c0:	7302                	ld	t1,32(sp)
   106c2:	6af50ae3          	beq	a0,a5,11576 <_vfprintf_r+0x1232>
   106c6:	4785                	li	a5,1
   106c8:	76f50de3          	beq	a0,a5,11642 <_vfprintf_r+0x12fe>
   106cc:	06100793          	li	a5,97
   106d0:	00fc9463          	bne	s9,a5,106d8 <_vfprintf_r+0x394>
   106d4:	65a0106f          	j	11d2e <_vfprintf_r+0x19ea>
   106d8:	04100793          	li	a5,65
   106dc:	00fc9463          	bne	s9,a5,106e4 <_vfprintf_r+0x3a0>
   106e0:	1f80106f          	j	118d8 <_vfprintf_r+0x1594>
   106e4:	fdfcf713          	andi	a4,s9,-33
   106e8:	57fd                	li	a5,-1
   106ea:	f53a                	sd	a4,168(sp)
   106ec:	00fe9463          	bne	t4,a5,106f4 <_vfprintf_r+0x3b0>
   106f0:	6e00106f          	j	11dd0 <_vfprintf_r+0x1a8c>
   106f4:	04700793          	li	a5,71
   106f8:	00f71463          	bne	a4,a5,10700 <_vfprintf_r+0x3bc>
   106fc:	6be0106f          	j	11dba <_vfprintf_r+0x1a76>
   10700:	6c32                	ld	s8,264(sp)
   10702:	10046793          	ori	a5,s0,256
   10706:	f922                	sd	s0,176(sp)
   10708:	2781                	sext.w	a5,a5
   1070a:	6f92                	ld	t6,256(sp)
   1070c:	000c5463          	bgez	s8,10714 <_vfprintf_r+0x3d0>
   10710:	4840106f          	j	11b94 <_vfprintf_r+0x1850>
   10714:	e582                	sd	zero,200(sp)
   10716:	843e                	mv	s0,a5
   10718:	f002                	sd	zero,32(sp)
   1071a:	772a                	ld	a4,168(sp)
   1071c:	04600793          	li	a5,70
   10720:	00f71463          	bne	a4,a5,10728 <_vfprintf_r+0x3e4>
   10724:	38a0106f          	j	11aae <_vfprintf_r+0x176a>
   10728:	04500793          	li	a5,69
   1072c:	fc1a                	sd	t1,56(sp)
   1072e:	00f71463          	bne	a4,a5,10736 <_vfprintf_r+0x3f2>
   10732:	65c0106f          	j	11d8e <_vfprintf_r+0x1a4a>
   10736:	8776                	mv	a4,t4
   10738:	11bc                	addi	a5,sp,232
   1073a:	85fe                	mv	a1,t6
   1073c:	0f810893          	addi	a7,sp,248
   10740:	0ec10813          	addi	a6,sp,236
   10744:	4689                	li	a3,2
   10746:	8662                	mv	a2,s8
   10748:	8556                	mv	a0,s5
   1074a:	f476                	sd	t4,40(sp)
   1074c:	ec7e                	sd	t6,24(sp)
   1074e:	516030ef          	jal	ra,13c64 <_ldtoa_r>
   10752:	772a                	ld	a4,168(sp)
   10754:	04700793          	li	a5,71
   10758:	8d2a                	mv	s10,a0
   1075a:	6fe2                	ld	t6,24(sp)
   1075c:	7ea2                	ld	t4,40(sp)
   1075e:	7362                	ld	t1,56(sp)
   10760:	00f70463          	beq	a4,a5,10768 <_vfprintf_r+0x424>
   10764:	7d00106f          	j	11f34 <_vfprintf_r+0x1bf0>
   10768:	77ca                	ld	a5,176(sp)
   1076a:	01d509b3          	add	s3,a0,t4
   1076e:	8b85                	andi	a5,a5,1
   10770:	c399                	beqz	a5,10776 <_vfprintf_r+0x432>
   10772:	3960106f          	j	11b08 <_vfprintf_r+0x17c4>
   10776:	77ee                	ld	a5,248(sp)
   10778:	572e                	lw	a4,232(sp)
   1077a:	41a787bb          	subw	a5,a5,s10
   1077e:	f43e                	sd	a5,40(sp)
   10780:	f0ba                	sd	a4,96(sp)
   10782:	772a                	ld	a4,168(sp)
   10784:	04700793          	li	a5,71
   10788:	00f71463          	bne	a4,a5,10790 <_vfprintf_r+0x44c>
   1078c:	30a0106f          	j	11a96 <_vfprintf_r+0x1752>
   10790:	772a                	ld	a4,168(sp)
   10792:	04600793          	li	a5,70
   10796:	00f71463          	bne	a4,a5,1079e <_vfprintf_r+0x45a>
   1079a:	4740106f          	j	11c0e <_vfprintf_r+0x18ca>
   1079e:	7786                	ld	a5,96(sp)
   107a0:	772a                	ld	a4,168(sp)
   107a2:	04100593          	li	a1,65
   107a6:	37fd                	addiw	a5,a5,-1
   107a8:	d5be                	sw	a5,232(sp)
   107aa:	0ffcf693          	andi	a3,s9,255
   107ae:	4601                	li	a2,0
   107b0:	00b71663          	bne	a4,a1,107bc <_vfprintf_r+0x478>
   107b4:	26bd                	addiw	a3,a3,15
   107b6:	0ff6f693          	andi	a3,a3,255
   107ba:	4605                	li	a2,1
   107bc:	0ed10823          	sb	a3,240(sp)
   107c0:	02b00693          	li	a3,43
   107c4:	0007d763          	bgez	a5,107d2 <_vfprintf_r+0x48e>
   107c8:	7706                	ld	a4,96(sp)
   107ca:	4785                	li	a5,1
   107cc:	02d00693          	li	a3,45
   107d0:	9f99                	subw	a5,a5,a4
   107d2:	0ed108a3          	sb	a3,241(sp)
   107d6:	46a5                	li	a3,9
   107d8:	00f6c463          	blt	a3,a5,107e0 <_vfprintf_r+0x49c>
   107dc:	6c00106f          	j	11e9c <_vfprintf_r+0x1b58>
   107e0:	0ff10513          	addi	a0,sp,255
   107e4:	85aa                	mv	a1,a0
   107e6:	4829                	li	a6,10
   107e8:	06300893          	li	a7,99
   107ec:	a019                	j	107f2 <_vfprintf_r+0x4ae>
   107ee:	85b2                	mv	a1,a2
   107f0:	87b6                	mv	a5,a3
   107f2:	0307e6bb          	remw	a3,a5,a6
   107f6:	fff58613          	addi	a2,a1,-1
   107fa:	0306869b          	addiw	a3,a3,48
   107fe:	fed58fa3          	sb	a3,-1(a1)
   10802:	0307c6bb          	divw	a3,a5,a6
   10806:	fef8c4e3          	blt	a7,a5,107ee <_vfprintf_r+0x4aa>
   1080a:	0306879b          	addiw	a5,a3,48
   1080e:	0ff7f793          	andi	a5,a5,255
   10812:	ffe58693          	addi	a3,a1,-2
   10816:	fef60fa3          	sb	a5,-1(a2)
   1081a:	00a6e463          	bltu	a3,a0,10822 <_vfprintf_r+0x4de>
   1081e:	71c0106f          	j	11f3a <_vfprintf_r+0x1bf6>
   10822:	0f210613          	addi	a2,sp,242
   10826:	a019                	j	1082c <_vfprintf_r+0x4e8>
   10828:	0006c783          	lbu	a5,0(a3)
   1082c:	0605                	addi	a2,a2,1
   1082e:	0685                	addi	a3,a3,1
   10830:	fef60fa3          	sb	a5,-1(a2)
   10834:	fea69ae3          	bne	a3,a0,10828 <_vfprintf_r+0x4e4>
   10838:	10110793          	addi	a5,sp,257
   1083c:	8f8d                	sub	a5,a5,a1
   1083e:	0f210713          	addi	a4,sp,242
   10842:	97ba                	add	a5,a5,a4
   10844:	1994                	addi	a3,sp,240
   10846:	9f95                	subw	a5,a5,a3
   10848:	e93e                	sd	a5,144(sp)
   1084a:	67ca                	ld	a5,144(sp)
   1084c:	7722                	ld	a4,40(sp)
   1084e:	4685                	li	a3,1
   10850:	00f70c3b          	addw	s8,a4,a5
   10854:	87e2                	mv	a5,s8
   10856:	00e6c463          	blt	a3,a4,1085e <_vfprintf_r+0x51a>
   1085a:	66c0106f          	j	11ec6 <_vfprintf_r+0x1b82>
   1085e:	7766                	ld	a4,120(sp)
   10860:	00e78c3b          	addw	s8,a5,a4
   10864:	77ca                	ld	a5,176(sp)
   10866:	fffc4993          	not	s3,s8
   1086a:	43f9d993          	srai	s3,s3,0x3f
   1086e:	bff7f413          	andi	s0,a5,-1025
   10872:	2401                	sext.w	s0,s0
   10874:	013c79b3          	and	s3,s8,s3
   10878:	10046413          	ori	s0,s0,256
   1087c:	2981                	sext.w	s3,s3
   1087e:	ec82                	sd	zero,88(sp)
   10880:	f482                	sd	zero,104(sp)
   10882:	f082                	sd	zero,96(sp)
   10884:	67ae                	ld	a5,200(sp)
   10886:	e399                	bnez	a5,1088c <_vfprintf_r+0x548>
   10888:	2fc0106f          	j	11b84 <_vfprintf_r+0x1840>
   1088c:	02d00793          	li	a5,45
   10890:	0cf10fa3          	sb	a5,223(sp)
   10894:	4e81                	li	t4,0
   10896:	2985                	addiw	s3,s3,1
   10898:	a2dd                	j	10a7e <_vfprintf_r+0x73a>
   1089a:	67c2                	ld	a5,16(sp)
   1089c:	01046693          	ori	a3,s0,16
   108a0:	2681                	sext.w	a3,a3
   108a2:	00878713          	addi	a4,a5,8
   108a6:	67c2                	ld	a5,16(sp)
   108a8:	0007b983          	ld	s3,0(a5)
   108ac:	4785                	li	a5,1
   108ae:	e83a                	sd	a4,16(sp)
   108b0:	b9e5                	j	105a8 <_vfprintf_r+0x264>
   108b2:	67c2                	ld	a5,16(sp)
   108b4:	0c010fa3          	sb	zero,223(sp)
   108b8:	0007bd03          	ld	s10,0(a5)
   108bc:	00878693          	addi	a3,a5,8
   108c0:	380d09e3          	beqz	s10,11452 <_vfprintf_r+0x110e>
   108c4:	57fd                	li	a5,-1
   108c6:	4efe8be3          	beq	t4,a5,115bc <_vfprintf_r+0x1278>
   108ca:	8676                	mv	a2,t4
   108cc:	4581                	li	a1,0
   108ce:	856a                	mv	a0,s10
   108d0:	fc36                	sd	a3,56(sp)
   108d2:	ec1a                	sd	t1,24(sp)
   108d4:	e876                	sd	t4,16(sp)
   108d6:	2f1040ef          	jal	ra,153c6 <memchr>
   108da:	f02a                	sd	a0,32(sp)
   108dc:	6ec2                	ld	t4,16(sp)
   108de:	6362                	ld	t1,24(sp)
   108e0:	76e2                	ld	a3,56(sp)
   108e2:	e119                	bnez	a0,108e8 <_vfprintf_r+0x5a4>
   108e4:	30e0106f          	j	11bf2 <_vfprintf_r+0x18ae>
   108e8:	7782                	ld	a5,32(sp)
   108ea:	e836                	sd	a3,16(sp)
   108ec:	f002                	sd	zero,32(sp)
   108ee:	41a78c3b          	subw	s8,a5,s10
   108f2:	fffc4993          	not	s3,s8
   108f6:	0df14783          	lbu	a5,223(sp)
   108fa:	43f9d993          	srai	s3,s3,0x3f
   108fe:	013c79b3          	and	s3,s8,s3
   10902:	ec82                	sd	zero,88(sp)
   10904:	f482                	sd	zero,104(sp)
   10906:	f082                	sd	zero,96(sp)
   10908:	2981                	sext.w	s3,s3
   1090a:	4e81                	li	t4,0
   1090c:	ce0790e3          	bnez	a5,105ec <_vfprintf_r+0x2a8>
   10910:	a2bd                	j	10a7e <_vfprintf_r+0x73a>
   10912:	6742                	ld	a4,16(sp)
   10914:	01046693          	ori	a3,s0,16
   10918:	0006841b          	sext.w	s0,a3
   1091c:	0721                	addi	a4,a4,8
   1091e:	67c2                	ld	a5,16(sp)
   10920:	0007b983          	ld	s3,0(a5)
   10924:	e83a                	sd	a4,16(sp)
   10926:	bff47693          	andi	a3,s0,-1025
   1092a:	2681                	sext.w	a3,a3
   1092c:	4781                	li	a5,0
   1092e:	b9ad                	j	105a8 <_vfprintf_r+0x264>
   10930:	00846413          	ori	s0,s0,8
   10934:	2401                	sext.w	s0,s0
   10936:	0004cf03          	lbu	t5,0(s1)
   1093a:	b6a9                	j	10484 <_vfprintf_r+0x140>
   1093c:	6742                	ld	a4,16(sp)
   1093e:	02047793          	andi	a5,s0,32
   10942:	0721                	addi	a4,a4,8
   10944:	26079ee3          	bnez	a5,113c0 <_vfprintf_r+0x107c>
   10948:	01047793          	andi	a5,s0,16
   1094c:	26079ae3          	bnez	a5,113c0 <_vfprintf_r+0x107c>
   10950:	04047793          	andi	a5,s0,64
   10954:	4c078be3          	beqz	a5,1162a <_vfprintf_r+0x12e6>
   10958:	67c2                	ld	a5,16(sp)
   1095a:	86a2                	mv	a3,s0
   1095c:	e83a                	sd	a4,16(sp)
   1095e:	00079983          	lh	s3,0(a5)
   10962:	87ce                	mv	a5,s3
   10964:	0807cb63          	bltz	a5,109fa <_vfprintf_r+0x6b6>
   10968:	57fd                	li	a5,-1
   1096a:	40fe8a63          	beq	t4,a5,10d7e <_vfprintf_r+0xa3a>
   1096e:	f7f6f693          	andi	a3,a3,-129
   10972:	0006841b          	sext.w	s0,a3
   10976:	40099363          	bnez	s3,10d7c <_vfprintf_r+0xa38>
   1097a:	000e8463          	beqz	t4,10982 <_vfprintf_r+0x63e>
   1097e:	1020106f          	j	11a80 <_vfprintf_r+0x173c>
   10982:	4e81                	li	t4,0
   10984:	4c01                	li	s8,0
   10986:	18c10d13          	addi	s10,sp,396
   1098a:	b199                	j	105d0 <_vfprintf_r+0x28c>
   1098c:	02b00793          	li	a5,43
   10990:	0cf10fa3          	sb	a5,223(sp)
   10994:	0004cf03          	lbu	t5,0(s1)
   10998:	b4f5                	j	10484 <_vfprintf_r+0x140>
   1099a:	08046413          	ori	s0,s0,128
   1099e:	2401                	sext.w	s0,s0
   109a0:	0004cf03          	lbu	t5,0(s1)
   109a4:	b4c5                	j	10484 <_vfprintf_r+0x140>
   109a6:	0004cc83          	lbu	s9,0(s1)
   109aa:	00148793          	addi	a5,s1,1
   109ae:	018c9463          	bne	s9,s8,109b6 <_vfprintf_r+0x672>
   109b2:	5580106f          	j	11f0a <_vfprintf_r+0x1bc6>
   109b6:	fd0c869b          	addiw	a3,s9,-48
   109ba:	84be                	mv	s1,a5
   109bc:	4e81                	li	t4,0
   109be:	acd9e8e3          	bltu	s3,a3,1048e <_vfprintf_r+0x14a>
   109c2:	0485                	addi	s1,s1,1
   109c4:	002e979b          	slliw	a5,t4,0x2
   109c8:	fff4cc83          	lbu	s9,-1(s1)
   109cc:	01d78ebb          	addw	t4,a5,t4
   109d0:	001e9e9b          	slliw	t4,t4,0x1
   109d4:	00de8ebb          	addw	t4,t4,a3
   109d8:	fd0c869b          	addiw	a3,s9,-48
   109dc:	fed9f3e3          	bgeu	s3,a3,109c2 <_vfprintf_r+0x67e>
   109e0:	b47d                	j	1048e <_vfprintf_r+0x14a>
   109e2:	67c2                	ld	a5,16(sp)
   109e4:	01046693          	ori	a3,s0,16
   109e8:	2681                	sext.w	a3,a3
   109ea:	00878713          	addi	a4,a5,8
   109ee:	67c2                	ld	a5,16(sp)
   109f0:	639c                	ld	a5,0(a5)
   109f2:	e83a                	sd	a4,16(sp)
   109f4:	89be                	mv	s3,a5
   109f6:	f607d9e3          	bgez	a5,10968 <_vfprintf_r+0x624>
   109fa:	02d00793          	li	a5,45
   109fe:	0cf10fa3          	sb	a5,223(sp)
   10a02:	577d                	li	a4,-1
   10a04:	413009b3          	neg	s3,s3
   10a08:	4785                	li	a5,1
   10a0a:	baee94e3          	bne	t4,a4,105b2 <_vfprintf_r+0x26e>
   10a0e:	4705                	li	a4,1
   10a10:	36e78763          	beq	a5,a4,10d7e <_vfprintf_r+0xa3a>
   10a14:	4709                	li	a4,2
   10a16:	7ce78263          	beq	a5,a4,111da <_vfprintf_r+0xe96>
   10a1a:	18c10c13          	addi	s8,sp,396
   10a1e:	8662                	mv	a2,s8
   10a20:	a011                	j	10a24 <_vfprintf_r+0x6e0>
   10a22:	866a                	mv	a2,s10
   10a24:	0079f793          	andi	a5,s3,7
   10a28:	03078793          	addi	a5,a5,48
   10a2c:	fef60fa3          	sb	a5,-1(a2)
   10a30:	0039d993          	srli	s3,s3,0x3
   10a34:	fff60d13          	addi	s10,a2,-1
   10a38:	fe0995e3          	bnez	s3,10a22 <_vfprintf_r+0x6de>
   10a3c:	0016f593          	andi	a1,a3,1
   10a40:	3a058263          	beqz	a1,10de4 <_vfprintf_r+0xaa0>
   10a44:	03000593          	li	a1,48
   10a48:	38b78e63          	beq	a5,a1,10de4 <_vfprintf_r+0xaa0>
   10a4c:	1679                	addi	a2,a2,-2
   10a4e:	febd0fa3          	sb	a1,-1(s10)
   10a52:	40cc0c3b          	subw	s8,s8,a2
   10a56:	8436                	mv	s0,a3
   10a58:	8d32                	mv	s10,a2
   10a5a:	be9d                	j	105d0 <_vfprintf_r+0x28c>
   10a5c:	6742                	ld	a4,16(sp)
   10a5e:	0c010fa3          	sb	zero,223(sp)
   10a62:	4985                	li	s3,1
   10a64:	431c                	lw	a5,0(a4)
   10a66:	0721                	addi	a4,a4,8
   10a68:	e83a                	sd	a4,16(sp)
   10a6a:	12f10423          	sb	a5,296(sp)
   10a6e:	4c05                	li	s8,1
   10a70:	12810d13          	addi	s10,sp,296
   10a74:	f002                	sd	zero,32(sp)
   10a76:	4e81                	li	t4,0
   10a78:	ec82                	sd	zero,88(sp)
   10a7a:	f482                	sd	zero,104(sp)
   10a7c:	f082                	sd	zero,96(sp)
   10a7e:	00247893          	andi	a7,s0,2
   10a82:	2881                	sext.w	a7,a7
   10a84:	00088363          	beqz	a7,10a8a <_vfprintf_r+0x746>
   10a88:	2989                	addiw	s3,s3,2
   10a8a:	08447293          	andi	t0,s0,132
   10a8e:	7792                	ld	a5,288(sp)
   10a90:	00029663          	bnez	t0,10a9c <_vfprintf_r+0x758>
   10a94:	413b883b          	subw	a6,s7,s3
   10a98:	5f004d63          	bgtz	a6,11092 <_vfprintf_r+0xd4e>
   10a9c:	0df14683          	lbu	a3,223(sp)
   10aa0:	c68d                	beqz	a3,10aca <_vfprintf_r+0x786>
   10aa2:	11812683          	lw	a3,280(sp)
   10aa6:	0df10613          	addi	a2,sp,223
   10aaa:	00c33023          	sd	a2,0(t1)
   10aae:	2685                	addiw	a3,a3,1
   10ab0:	4605                	li	a2,1
   10ab2:	0785                	addi	a5,a5,1
   10ab4:	00c33423          	sd	a2,8(t1)
   10ab8:	10d12c23          	sw	a3,280(sp)
   10abc:	0006861b          	sext.w	a2,a3
   10ac0:	f23e                	sd	a5,288(sp)
   10ac2:	469d                	li	a3,7
   10ac4:	0341                	addi	t1,t1,16
   10ac6:	0ac6ca63          	blt	a3,a2,10b7a <_vfprintf_r+0x836>
   10aca:	02088563          	beqz	a7,10af4 <_vfprintf_r+0x7b0>
   10ace:	11812683          	lw	a3,280(sp)
   10ad2:	1190                	addi	a2,sp,224
   10ad4:	00c33023          	sd	a2,0(t1)
   10ad8:	2685                	addiw	a3,a3,1
   10ada:	4609                	li	a2,2
   10adc:	0789                	addi	a5,a5,2
   10ade:	00c33423          	sd	a2,8(t1)
   10ae2:	10d12c23          	sw	a3,280(sp)
   10ae6:	0006861b          	sext.w	a2,a3
   10aea:	f23e                	sd	a5,288(sp)
   10aec:	469d                	li	a3,7
   10aee:	0341                	addi	t1,t1,16
   10af0:	64c6c163          	blt	a3,a2,11132 <_vfprintf_r+0xdee>
   10af4:	08000693          	li	a3,128
   10af8:	3cd28463          	beq	t0,a3,10ec0 <_vfprintf_r+0xb7c>
   10afc:	418e8ebb          	subw	t4,t4,s8
   10b00:	45d04663          	bgtz	t4,10f4c <_vfprintf_r+0xc08>
   10b04:	10047693          	andi	a3,s0,256
   10b08:	2e069363          	bnez	a3,10dee <_vfprintf_r+0xaaa>
   10b0c:	11812703          	lw	a4,280(sp)
   10b10:	97e2                	add	a5,a5,s8
   10b12:	01a33023          	sd	s10,0(t1)
   10b16:	0017069b          	addiw	a3,a4,1
   10b1a:	8736                	mv	a4,a3
   10b1c:	01833423          	sd	s8,8(t1)
   10b20:	10e12c23          	sw	a4,280(sp)
   10b24:	f23e                	sd	a5,288(sp)
   10b26:	471d                	li	a4,7
   10b28:	0cd74963          	blt	a4,a3,10bfa <_vfprintf_r+0x8b6>
   10b2c:	0341                	addi	t1,t1,16
   10b2e:	8811                	andi	s0,s0,4
   10b30:	c409                	beqz	s0,10b3a <_vfprintf_r+0x7f6>
   10b32:	413b843b          	subw	s0,s7,s3
   10b36:	60804c63          	bgtz	s0,1114e <_vfprintf_r+0xe0a>
   10b3a:	875e                	mv	a4,s7
   10b3c:	013bd363          	bge	s7,s3,10b42 <_vfprintf_r+0x7fe>
   10b40:	874e                	mv	a4,s3
   10b42:	66a2                	ld	a3,8(sp)
   10b44:	9f35                	addw	a4,a4,a3
   10b46:	e43a                	sd	a4,8(sp)
   10b48:	9a079ee3          	bnez	a5,10504 <_vfprintf_r+0x1c0>
   10b4c:	7782                	ld	a5,32(sp)
   10b4e:	10012c23          	sw	zero,280(sp)
   10b52:	c789                	beqz	a5,10b5c <_vfprintf_r+0x818>
   10b54:	7582                	ld	a1,32(sp)
   10b56:	8556                	mv	a0,s5
   10b58:	3fb010ef          	jal	ra,12752 <_free_r>
   10b5c:	835a                	mv	t1,s6
   10b5e:	8d26                	mv	s10,s1
   10b60:	000d4783          	lbu	a5,0(s10)
   10b64:	8a0797e3          	bnez	a5,10412 <_vfprintf_r+0xce>
   10b68:	7792                	ld	a5,288(sp)
   10b6a:	9a078ae3          	beqz	a5,1051e <_vfprintf_r+0x1da>
   10b6e:	0a10                	addi	a2,sp,272
   10b70:	85d2                	mv	a1,s4
   10b72:	8556                	mv	a0,s5
   10b74:	558070ef          	jal	ra,180cc <__sprint_r>
   10b78:	b25d                	j	1051e <_vfprintf_r+0x1da>
   10b7a:	0a10                	addi	a2,sp,272
   10b7c:	85d2                	mv	a1,s4
   10b7e:	8556                	mv	a0,s5
   10b80:	e0f6                	sd	t4,64(sp)
   10b82:	fc16                	sd	t0,56(sp)
   10b84:	ec46                	sd	a7,24(sp)
   10b86:	546070ef          	jal	ra,180cc <__sprint_r>
   10b8a:	980514e3          	bnez	a0,10512 <_vfprintf_r+0x1ce>
   10b8e:	7792                	ld	a5,288(sp)
   10b90:	835a                	mv	t1,s6
   10b92:	6e86                	ld	t4,64(sp)
   10b94:	72e2                	ld	t0,56(sp)
   10b96:	68e2                	ld	a7,24(sp)
   10b98:	bf0d                	j	10aca <_vfprintf_r+0x786>
   10b9a:	11812603          	lw	a2,280(sp)
   10b9e:	7766                	ld	a4,120(sp)
   10ba0:	668a                	ld	a3,128(sp)
   10ba2:	0341                	addi	t1,t1,16
   10ba4:	97ba                	add	a5,a5,a4
   10ba6:	fed33823          	sd	a3,-16(t1)
   10baa:	0016069b          	addiw	a3,a2,1
   10bae:	fee33c23          	sd	a4,-8(t1)
   10bb2:	f23e                	sd	a5,288(sp)
   10bb4:	10d12c23          	sw	a3,280(sp)
   10bb8:	461d                	li	a2,7
   10bba:	00d65e63          	bge	a2,a3,10bd6 <_vfprintf_r+0x892>
   10bbe:	0a10                	addi	a2,sp,272
   10bc0:	85d2                	mv	a1,s4
   10bc2:	8556                	mv	a0,s5
   10bc4:	508070ef          	jal	ra,180cc <__sprint_r>
   10bc8:	940515e3          	bnez	a0,10512 <_vfprintf_r+0x1ce>
   10bcc:	55ae                	lw	a1,232(sp)
   10bce:	7792                	ld	a5,288(sp)
   10bd0:	11812683          	lw	a3,280(sp)
   10bd4:	835a                	mv	t1,s6
   10bd6:	0005d463          	bgez	a1,10bde <_vfprintf_r+0x89a>
   10bda:	0be0106f          	j	11c98 <_vfprintf_r+0x1954>
   10bde:	7722                	ld	a4,40(sp)
   10be0:	0016861b          	addiw	a2,a3,1
   10be4:	01a33023          	sd	s10,0(t1)
   10be8:	97ba                	add	a5,a5,a4
   10bea:	00e33423          	sd	a4,8(t1)
   10bee:	f23e                	sd	a5,288(sp)
   10bf0:	10c12c23          	sw	a2,280(sp)
   10bf4:	471d                	li	a4,7
   10bf6:	f2c75be3          	bge	a4,a2,10b2c <_vfprintf_r+0x7e8>
   10bfa:	0a10                	addi	a2,sp,272
   10bfc:	85d2                	mv	a1,s4
   10bfe:	8556                	mv	a0,s5
   10c00:	4cc070ef          	jal	ra,180cc <__sprint_r>
   10c04:	900517e3          	bnez	a0,10512 <_vfprintf_r+0x1ce>
   10c08:	7792                	ld	a5,288(sp)
   10c0a:	835a                	mv	t1,s6
   10c0c:	b70d                	j	10b2e <_vfprintf_r+0x7ea>
   10c0e:	67c2                	ld	a5,16(sp)
   10c10:	0004cf03          	lbu	t5,0(s1)
   10c14:	0007ab83          	lw	s7,0(a5)
   10c18:	07a1                	addi	a5,a5,8
   10c1a:	e83e                	sd	a5,16(sp)
   10c1c:	860bd4e3          	bgez	s7,10484 <_vfprintf_r+0x140>
   10c20:	41700bbb          	negw	s7,s7
   10c24:	bc81                	j	10674 <_vfprintf_r+0x330>
   10c26:	8556                	mv	a0,s5
   10c28:	f01a                	sd	t1,32(sp)
   10c2a:	ec76                	sd	t4,24(sp)
   10c2c:	73d030ef          	jal	ra,14b68 <_localeconv_r>
   10c30:	651c                	ld	a5,8(a0)
   10c32:	853e                	mv	a0,a5
   10c34:	ed3e                	sd	a5,152(sp)
   10c36:	714050ef          	jal	ra,1634a <strlen>
   10c3a:	e52a                	sd	a0,136(sp)
   10c3c:	8caa                	mv	s9,a0
   10c3e:	8556                	mv	a0,s5
   10c40:	729030ef          	jal	ra,14b68 <_localeconv_r>
   10c44:	6918                	ld	a4,16(a0)
   10c46:	6ee2                	ld	t4,24(sp)
   10c48:	7302                	ld	t1,32(sp)
   10c4a:	f8ba                	sd	a4,112(sp)
   10c4c:	0004cf03          	lbu	t5,0(s1)
   10c50:	820c8ae3          	beqz	s9,10484 <_vfprintf_r+0x140>
   10c54:	820708e3          	beqz	a4,10484 <_vfprintf_r+0x140>
   10c58:	00074783          	lbu	a5,0(a4)
   10c5c:	820784e3          	beqz	a5,10484 <_vfprintf_r+0x140>
   10c60:	40046413          	ori	s0,s0,1024
   10c64:	2401                	sext.w	s0,s0
   10c66:	81fff06f          	j	10484 <_vfprintf_r+0x140>
   10c6a:	00146413          	ori	s0,s0,1
   10c6e:	2401                	sext.w	s0,s0
   10c70:	0004cf03          	lbu	t5,0(s1)
   10c74:	811ff06f          	j	10484 <_vfprintf_r+0x140>
   10c78:	0df14783          	lbu	a5,223(sp)
   10c7c:	0004cf03          	lbu	t5,0(s1)
   10c80:	800792e3          	bnez	a5,10484 <_vfprintf_r+0x140>
   10c84:	02000793          	li	a5,32
   10c88:	0cf10fa3          	sb	a5,223(sp)
   10c8c:	ff8ff06f          	j	10484 <_vfprintf_r+0x140>
   10c90:	6742                	ld	a4,16(sp)
   10c92:	02047793          	andi	a5,s0,32
   10c96:	0721                	addi	a4,a4,8
   10c98:	72079c63          	bnez	a5,113d0 <_vfprintf_r+0x108c>
   10c9c:	01047793          	andi	a5,s0,16
   10ca0:	72079863          	bnez	a5,113d0 <_vfprintf_r+0x108c>
   10ca4:	66c2                	ld	a3,16(sp)
   10ca6:	04047793          	andi	a5,s0,64
   10caa:	0006a983          	lw	s3,0(a3)
   10cae:	14078ae3          	beqz	a5,11602 <_vfprintf_r+0x12be>
   10cb2:	19c2                	slli	s3,s3,0x30
   10cb4:	0309d993          	srli	s3,s3,0x30
   10cb8:	e83a                	sd	a4,16(sp)
   10cba:	86a2                	mv	a3,s0
   10cbc:	4785                	li	a5,1
   10cbe:	b0ed                	j	105a8 <_vfprintf_r+0x264>
   10cc0:	02046413          	ori	s0,s0,32
   10cc4:	2401                	sext.w	s0,s0
   10cc6:	0004cf03          	lbu	t5,0(s1)
   10cca:	fbaff06f          	j	10484 <_vfprintf_r+0x140>
   10cce:	6742                	ld	a4,16(sp)
   10cd0:	77e1                	lui	a5,0xffff8
   10cd2:	8307c793          	xori	a5,a5,-2000
   10cd6:	0ef11023          	sh	a5,224(sp)
   10cda:	00870793          	addi	a5,a4,8
   10cde:	00246693          	ori	a3,s0,2
   10ce2:	e83e                	sd	a5,16(sp)
   10ce4:	0000b797          	auipc	a5,0xb
   10ce8:	59c78793          	addi	a5,a5,1436 # 1c280 <zeroes.4541+0x60>
   10cec:	f83e                	sd	a5,48(sp)
   10cee:	00073983          	ld	s3,0(a4)
   10cf2:	2681                	sext.w	a3,a3
   10cf4:	4789                	li	a5,2
   10cf6:	07800c93          	li	s9,120
   10cfa:	b07d                	j	105a8 <_vfprintf_r+0x264>
   10cfc:	6742                	ld	a4,16(sp)
   10cfe:	02047793          	andi	a5,s0,32
   10d02:	0721                	addi	a4,a4,8
   10d04:	c0079de3          	bnez	a5,1091e <_vfprintf_r+0x5da>
   10d08:	01047793          	andi	a5,s0,16
   10d0c:	c00799e3          	bnez	a5,1091e <_vfprintf_r+0x5da>
   10d10:	66c2                	ld	a3,16(sp)
   10d12:	04047793          	andi	a5,s0,64
   10d16:	0006a983          	lw	s3,0(a3)
   10d1a:	0e078fe3          	beqz	a5,11618 <_vfprintf_r+0x12d4>
   10d1e:	19c2                	slli	s3,s3,0x30
   10d20:	0309d993          	srli	s3,s3,0x30
   10d24:	e83a                	sd	a4,16(sp)
   10d26:	b101                	j	10926 <_vfprintf_r+0x5e2>
   10d28:	66c2                	ld	a3,16(sp)
   10d2a:	02047793          	andi	a5,s0,32
   10d2e:	6298                	ld	a4,0(a3)
   10d30:	06a1                	addi	a3,a3,8
   10d32:	e836                	sd	a3,16(sp)
   10d34:	66079663          	bnez	a5,113a0 <_vfprintf_r+0x105c>
   10d38:	01047793          	andi	a5,s0,16
   10d3c:	66079263          	bnez	a5,113a0 <_vfprintf_r+0x105c>
   10d40:	04047793          	andi	a5,s0,64
   10d44:	34079ce3          	bnez	a5,1189c <_vfprintf_r+0x1558>
   10d48:	20047413          	andi	s0,s0,512
   10d4c:	67a2                	ld	a5,8(sp)
   10d4e:	e019                	bnez	s0,10d54 <_vfprintf_r+0xa10>
   10d50:	0780106f          	j	11dc8 <_vfprintf_r+0x1a84>
   10d54:	00f70023          	sb	a5,0(a4)
   10d58:	8d26                	mv	s10,s1
   10d5a:	b519                	j	10b60 <_vfprintf_r+0x81c>
   10d5c:	0004cf03          	lbu	t5,0(s1)
   10d60:	06c00793          	li	a5,108
   10d64:	6cff0f63          	beq	t5,a5,11442 <_vfprintf_r+0x10fe>
   10d68:	01046413          	ori	s0,s0,16
   10d6c:	2401                	sext.w	s0,s0
   10d6e:	f16ff06f          	j	10484 <_vfprintf_r+0x140>
   10d72:	8556                	mv	a0,s5
   10d74:	0d7010ef          	jal	ra,1264a <__sinit>
   10d78:	e2cff06f          	j	103a4 <_vfprintf_r+0x60>
   10d7c:	86a2                	mv	a3,s0
   10d7e:	47a5                	li	a5,9
   10d80:	0137eb63          	bltu	a5,s3,10d96 <_vfprintf_r+0xa52>
   10d84:	0309899b          	addiw	s3,s3,48
   10d88:	193105a3          	sb	s3,395(sp)
   10d8c:	8436                	mv	s0,a3
   10d8e:	4c05                	li	s8,1
   10d90:	18b10d13          	addi	s10,sp,395
   10d94:	b835                	j	105d0 <_vfprintf_r+0x28c>
   10d96:	4006f793          	andi	a5,a3,1024
   10d9a:	18c10c13          	addi	s8,sp,396
   10d9e:	2781                	sext.w	a5,a5
   10da0:	f402                	sd	zero,40(sp)
   10da2:	85e2                	mv	a1,s8
   10da4:	4429                	li	s0,10
   10da6:	4825                	li	a6,9
   10da8:	0ff00893          	li	a7,255
   10dac:	a039                	j	10dba <_vfprintf_r+0xa76>
   10dae:	0289d633          	divu	a2,s3,s0
   10db2:	03387963          	bgeu	a6,s3,10de4 <_vfprintf_r+0xaa0>
   10db6:	89b2                	mv	s3,a2
   10db8:	85ea                	mv	a1,s10
   10dba:	7722                	ld	a4,40(sp)
   10dbc:	fff58d13          	addi	s10,a1,-1
   10dc0:	2705                	addiw	a4,a4,1
   10dc2:	f43a                	sd	a4,40(sp)
   10dc4:	0289f633          	remu	a2,s3,s0
   10dc8:	0306061b          	addiw	a2,a2,48
   10dcc:	fec58fa3          	sb	a2,-1(a1)
   10dd0:	dff9                	beqz	a5,10dae <_vfprintf_r+0xa6a>
   10dd2:	7646                	ld	a2,112(sp)
   10dd4:	00064603          	lbu	a2,0(a2)
   10dd8:	fcc71be3          	bne	a4,a2,10dae <_vfprintf_r+0xa6a>
   10ddc:	fd1609e3          	beq	a2,a7,10dae <_vfprintf_r+0xa6a>
   10de0:	25386ae3          	bltu	a6,s3,11834 <_vfprintf_r+0x14f0>
   10de4:	41ac0c3b          	subw	s8,s8,s10
   10de8:	8436                	mv	s0,a3
   10dea:	fe6ff06f          	j	105d0 <_vfprintf_r+0x28c>
   10dee:	06500693          	li	a3,101
   10df2:	1d96db63          	bge	a3,s9,10fc8 <_vfprintf_r+0xc84>
   10df6:	6512                	ld	a0,256(sp)
   10df8:	65b2                	ld	a1,264(sp)
   10dfa:	4601                	li	a2,0
   10dfc:	4681                	li	a3,0
   10dfe:	fc3e                	sd	a5,56(sp)
   10e00:	ec1a                	sd	t1,24(sp)
   10e02:	669090ef          	jal	ra,1ac6a <__eqtf2>
   10e06:	6362                	ld	t1,24(sp)
   10e08:	77e2                	ld	a5,56(sp)
   10e0a:	3e051d63          	bnez	a0,11204 <_vfprintf_r+0xec0>
   10e0e:	11812703          	lw	a4,280(sp)
   10e12:	0000b697          	auipc	a3,0xb
   10e16:	4a668693          	addi	a3,a3,1190 # 1c2b8 <zeroes.4541+0x98>
   10e1a:	0785                	addi	a5,a5,1
   10e1c:	2705                	addiw	a4,a4,1
   10e1e:	00d33023          	sd	a3,0(t1)
   10e22:	4685                	li	a3,1
   10e24:	00d33423          	sd	a3,8(t1)
   10e28:	f23e                	sd	a5,288(sp)
   10e2a:	0007069b          	sext.w	a3,a4
   10e2e:	10e12c23          	sw	a4,280(sp)
   10e32:	479d                	li	a5,7
   10e34:	0341                	addi	t1,t1,16
   10e36:	70d7ce63          	blt	a5,a3,11552 <_vfprintf_r+0x120e>
   10e3a:	57ae                	lw	a5,232(sp)
   10e3c:	7722                	ld	a4,40(sp)
   10e3e:	00e7c763          	blt	a5,a4,10e4c <_vfprintf_r+0xb08>
   10e42:	00147793          	andi	a5,s0,1
   10e46:	e399                	bnez	a5,10e4c <_vfprintf_r+0xb08>
   10e48:	7792                	ld	a5,288(sp)
   10e4a:	b1d5                	j	10b2e <_vfprintf_r+0x7ea>
   10e4c:	678a                	ld	a5,128(sp)
   10e4e:	76e6                	ld	a3,120(sp)
   10e50:	11812703          	lw	a4,280(sp)
   10e54:	00f33023          	sd	a5,0(t1)
   10e58:	7792                	ld	a5,288(sp)
   10e5a:	2705                	addiw	a4,a4,1
   10e5c:	00d33423          	sd	a3,8(t1)
   10e60:	97b6                	add	a5,a5,a3
   10e62:	10e12c23          	sw	a4,280(sp)
   10e66:	0007069b          	sext.w	a3,a4
   10e6a:	f23e                	sd	a5,288(sp)
   10e6c:	471d                	li	a4,7
   10e6e:	0341                	addi	t1,t1,16
   10e70:	5ad74f63          	blt	a4,a3,1142e <_vfprintf_r+0x10ea>
   10e74:	7722                	ld	a4,40(sp)
   10e76:	fff70c1b          	addiw	s8,a4,-1
   10e7a:	cb805ae3          	blez	s8,10b2e <_vfprintf_r+0x7ea>
   10e7e:	11812703          	lw	a4,280(sp)
   10e82:	6f8dd263          	bge	s11,s8,11566 <_vfprintf_r+0x1222>
   10e86:	4c9d                	li	s9,7
   10e88:	a021                	j	10e90 <_vfprintf_r+0xb4c>
   10e8a:	3c41                	addiw	s8,s8,-16
   10e8c:	6d8ddd63          	bge	s11,s8,11566 <_vfprintf_r+0x1222>
   10e90:	2705                	addiw	a4,a4,1
   10e92:	07c1                	addi	a5,a5,16
   10e94:	01233023          	sd	s2,0(t1)
   10e98:	01b33423          	sd	s11,8(t1)
   10e9c:	f23e                	sd	a5,288(sp)
   10e9e:	10e12c23          	sw	a4,280(sp)
   10ea2:	0341                	addi	t1,t1,16
   10ea4:	feecd3e3          	bge	s9,a4,10e8a <_vfprintf_r+0xb46>
   10ea8:	0a10                	addi	a2,sp,272
   10eaa:	85d2                	mv	a1,s4
   10eac:	8556                	mv	a0,s5
   10eae:	21e070ef          	jal	ra,180cc <__sprint_r>
   10eb2:	e6051063          	bnez	a0,10512 <_vfprintf_r+0x1ce>
   10eb6:	7792                	ld	a5,288(sp)
   10eb8:	11812703          	lw	a4,280(sp)
   10ebc:	835a                	mv	t1,s6
   10ebe:	b7f1                	j	10e8a <_vfprintf_r+0xb46>
   10ec0:	413b883b          	subw	a6,s7,s3
   10ec4:	c3005ce3          	blez	a6,10afc <_vfprintf_r+0x7b8>
   10ec8:	11812683          	lw	a3,280(sp)
   10ecc:	050dd663          	bge	s11,a6,10f18 <_vfprintf_r+0xbd4>
   10ed0:	489d                	li	a7,7
   10ed2:	a021                	j	10eda <_vfprintf_r+0xb96>
   10ed4:	3841                	addiw	a6,a6,-16
   10ed6:	050dd163          	bge	s11,a6,10f18 <_vfprintf_r+0xbd4>
   10eda:	2685                	addiw	a3,a3,1
   10edc:	07c1                	addi	a5,a5,16
   10ede:	01233023          	sd	s2,0(t1)
   10ee2:	01b33423          	sd	s11,8(t1)
   10ee6:	f23e                	sd	a5,288(sp)
   10ee8:	10d12c23          	sw	a3,280(sp)
   10eec:	0341                	addi	t1,t1,16
   10eee:	fed8d3e3          	bge	a7,a3,10ed4 <_vfprintf_r+0xb90>
   10ef2:	0a10                	addi	a2,sp,272
   10ef4:	85d2                	mv	a1,s4
   10ef6:	8556                	mv	a0,s5
   10ef8:	fc42                	sd	a6,56(sp)
   10efa:	ec76                	sd	t4,24(sp)
   10efc:	1d0070ef          	jal	ra,180cc <__sprint_r>
   10f00:	e0051963          	bnez	a0,10512 <_vfprintf_r+0x1ce>
   10f04:	7862                	ld	a6,56(sp)
   10f06:	7792                	ld	a5,288(sp)
   10f08:	11812683          	lw	a3,280(sp)
   10f0c:	3841                	addiw	a6,a6,-16
   10f0e:	835a                	mv	t1,s6
   10f10:	489d                	li	a7,7
   10f12:	6ee2                	ld	t4,24(sp)
   10f14:	fd0dc3e3          	blt	s11,a6,10eda <_vfprintf_r+0xb96>
   10f18:	0016861b          	addiw	a2,a3,1
   10f1c:	97c2                	add	a5,a5,a6
   10f1e:	01233023          	sd	s2,0(t1)
   10f22:	01033423          	sd	a6,8(t1)
   10f26:	f23e                	sd	a5,288(sp)
   10f28:	10c12c23          	sw	a2,280(sp)
   10f2c:	469d                	li	a3,7
   10f2e:	0341                	addi	t1,t1,16
   10f30:	bcc6d6e3          	bge	a3,a2,10afc <_vfprintf_r+0x7b8>
   10f34:	0a10                	addi	a2,sp,272
   10f36:	85d2                	mv	a1,s4
   10f38:	8556                	mv	a0,s5
   10f3a:	ec76                	sd	t4,24(sp)
   10f3c:	190070ef          	jal	ra,180cc <__sprint_r>
   10f40:	dc051963          	bnez	a0,10512 <_vfprintf_r+0x1ce>
   10f44:	7792                	ld	a5,288(sp)
   10f46:	835a                	mv	t1,s6
   10f48:	6ee2                	ld	t4,24(sp)
   10f4a:	be4d                	j	10afc <_vfprintf_r+0x7b8>
   10f4c:	11812683          	lw	a3,280(sp)
   10f50:	05ddd463          	bge	s11,t4,10f98 <_vfprintf_r+0xc54>
   10f54:	481d                	li	a6,7
   10f56:	a021                	j	10f5e <_vfprintf_r+0xc1a>
   10f58:	3ec1                	addiw	t4,t4,-16
   10f5a:	03dddf63          	bge	s11,t4,10f98 <_vfprintf_r+0xc54>
   10f5e:	2685                	addiw	a3,a3,1
   10f60:	07c1                	addi	a5,a5,16
   10f62:	01233023          	sd	s2,0(t1)
   10f66:	01b33423          	sd	s11,8(t1)
   10f6a:	f23e                	sd	a5,288(sp)
   10f6c:	10d12c23          	sw	a3,280(sp)
   10f70:	0341                	addi	t1,t1,16
   10f72:	fed853e3          	bge	a6,a3,10f58 <_vfprintf_r+0xc14>
   10f76:	0a10                	addi	a2,sp,272
   10f78:	85d2                	mv	a1,s4
   10f7a:	8556                	mv	a0,s5
   10f7c:	ec76                	sd	t4,24(sp)
   10f7e:	14e070ef          	jal	ra,180cc <__sprint_r>
   10f82:	d8051863          	bnez	a0,10512 <_vfprintf_r+0x1ce>
   10f86:	6ee2                	ld	t4,24(sp)
   10f88:	7792                	ld	a5,288(sp)
   10f8a:	11812683          	lw	a3,280(sp)
   10f8e:	3ec1                	addiw	t4,t4,-16
   10f90:	835a                	mv	t1,s6
   10f92:	481d                	li	a6,7
   10f94:	fdddc5e3          	blt	s11,t4,10f5e <_vfprintf_r+0xc1a>
   10f98:	0016861b          	addiw	a2,a3,1
   10f9c:	97f6                	add	a5,a5,t4
   10f9e:	01233023          	sd	s2,0(t1)
   10fa2:	01d33423          	sd	t4,8(t1)
   10fa6:	f23e                	sd	a5,288(sp)
   10fa8:	10c12c23          	sw	a2,280(sp)
   10fac:	469d                	li	a3,7
   10fae:	0341                	addi	t1,t1,16
   10fb0:	b4c6dae3          	bge	a3,a2,10b04 <_vfprintf_r+0x7c0>
   10fb4:	0a10                	addi	a2,sp,272
   10fb6:	85d2                	mv	a1,s4
   10fb8:	8556                	mv	a0,s5
   10fba:	112070ef          	jal	ra,180cc <__sprint_r>
   10fbe:	d4051a63          	bnez	a0,10512 <_vfprintf_r+0x1ce>
   10fc2:	7792                	ld	a5,288(sp)
   10fc4:	835a                	mv	t1,s6
   10fc6:	be3d                	j	10b04 <_vfprintf_r+0x7c0>
   10fc8:	11812f03          	lw	t5,280(sp)
   10fcc:	7722                	ld	a4,40(sp)
   10fce:	4585                	li	a1,1
   10fd0:	001f069b          	addiw	a3,t5,1
   10fd4:	01a33023          	sd	s10,0(t1)
   10fd8:	0785                	addi	a5,a5,1
   10fda:	8636                	mv	a2,a3
   10fdc:	01030c13          	addi	s8,t1,16
   10fe0:	34e5d163          	bge	a1,a4,11322 <_vfprintf_r+0xfde>
   10fe4:	4585                	li	a1,1
   10fe6:	10c12c23          	sw	a2,280(sp)
   10fea:	00b33423          	sd	a1,8(t1)
   10fee:	f23e                	sd	a5,288(sp)
   10ff0:	461d                	li	a2,7
   10ff2:	4cd64463          	blt	a2,a3,114ba <_vfprintf_r+0x1176>
   10ff6:	7766                	ld	a4,120(sp)
   10ff8:	660a                	ld	a2,128(sp)
   10ffa:	0016881b          	addiw	a6,a3,1
   10ffe:	97ba                	add	a5,a5,a4
   11000:	00cc3023          	sd	a2,0(s8)
   11004:	00ec3423          	sd	a4,8(s8)
   11008:	f23e                	sd	a5,288(sp)
   1100a:	11012c23          	sw	a6,280(sp)
   1100e:	469d                	li	a3,7
   11010:	0c41                	addi	s8,s8,16
   11012:	4d06c163          	blt	a3,a6,114d4 <_vfprintf_r+0x1190>
   11016:	e4be                	sd	a5,72(sp)
   11018:	77a2                	ld	a5,40(sp)
   1101a:	6512                	ld	a0,256(sp)
   1101c:	65b2                	ld	a1,264(sp)
   1101e:	00180e9b          	addiw	t4,a6,1
   11022:	fff7889b          	addiw	a7,a5,-1
   11026:	010c0313          	addi	t1,s8,16
   1102a:	4601                	li	a2,0
   1102c:	4681                	li	a3,0
   1102e:	000e8c9b          	sext.w	s9,t4
   11032:	e0f6                	sd	t4,64(sp)
   11034:	fc1a                	sd	t1,56(sp)
   11036:	ec46                	sd	a7,24(sp)
   11038:	e8c2                	sd	a6,80(sp)
   1103a:	431090ef          	jal	ra,1ac6a <__eqtf2>
   1103e:	68e2                	ld	a7,24(sp)
   11040:	7362                	ld	t1,56(sp)
   11042:	6e86                	ld	t4,64(sp)
   11044:	67a6                	ld	a5,72(sp)
   11046:	2e050f63          	beqz	a0,11344 <_vfprintf_r+0x1000>
   1104a:	001d0713          	addi	a4,s10,1
   1104e:	97c6                	add	a5,a5,a7
   11050:	00ec3023          	sd	a4,0(s8)
   11054:	011c3423          	sd	a7,8(s8)
   11058:	f23e                	sd	a5,288(sp)
   1105a:	11d12c23          	sw	t4,280(sp)
   1105e:	471d                	li	a4,7
   11060:	39974f63          	blt	a4,s9,113fe <_vfprintf_r+0x10ba>
   11064:	6846                	ld	a6,80(sp)
   11066:	020c0713          	addi	a4,s8,32
   1106a:	8c1a                	mv	s8,t1
   1106c:	00280c9b          	addiw	s9,a6,2
   11070:	833a                	mv	t1,a4
   11072:	66ca                	ld	a3,144(sp)
   11074:	1998                	addi	a4,sp,240
   11076:	00ec3023          	sd	a4,0(s8)
   1107a:	97b6                	add	a5,a5,a3
   1107c:	00dc3423          	sd	a3,8(s8)
   11080:	f23e                	sd	a5,288(sp)
   11082:	11912c23          	sw	s9,280(sp)
   11086:	471d                	li	a4,7
   11088:	ab9753e3          	bge	a4,s9,10b2e <_vfprintf_r+0x7ea>
   1108c:	b6bd                	j	10bfa <_vfprintf_r+0x8b6>
   1108e:	86a2                	mv	a3,s0
   11090:	babd                	j	10a0e <_vfprintf_r+0x6ca>
   11092:	11812683          	lw	a3,280(sp)
   11096:	0000bf97          	auipc	t6,0xb
   1109a:	17af8f93          	addi	t6,t6,378 # 1c210 <blanks.4540>
   1109e:	439d                	li	t2,7
   110a0:	010dc663          	blt	s11,a6,110ac <_vfprintf_r+0xd68>
   110a4:	a889                	j	110f6 <_vfprintf_r+0xdb2>
   110a6:	3841                	addiw	a6,a6,-16
   110a8:	050dd763          	bge	s11,a6,110f6 <_vfprintf_r+0xdb2>
   110ac:	2685                	addiw	a3,a3,1
   110ae:	07c1                	addi	a5,a5,16
   110b0:	01f33023          	sd	t6,0(t1)
   110b4:	01b33423          	sd	s11,8(t1)
   110b8:	f23e                	sd	a5,288(sp)
   110ba:	10d12c23          	sw	a3,280(sp)
   110be:	0341                	addi	t1,t1,16
   110c0:	fed3d3e3          	bge	t2,a3,110a6 <_vfprintf_r+0xd62>
   110c4:	0a10                	addi	a2,sp,272
   110c6:	85d2                	mv	a1,s4
   110c8:	8556                	mv	a0,s5
   110ca:	e8fe                	sd	t6,80(sp)
   110cc:	e4c2                	sd	a6,72(sp)
   110ce:	e0f6                	sd	t4,64(sp)
   110d0:	fc16                	sd	t0,56(sp)
   110d2:	ec46                	sd	a7,24(sp)
   110d4:	7f9060ef          	jal	ra,180cc <__sprint_r>
   110d8:	c2051d63          	bnez	a0,10512 <_vfprintf_r+0x1ce>
   110dc:	6826                	ld	a6,72(sp)
   110de:	7792                	ld	a5,288(sp)
   110e0:	11812683          	lw	a3,280(sp)
   110e4:	3841                	addiw	a6,a6,-16
   110e6:	835a                	mv	t1,s6
   110e8:	6fc6                	ld	t6,80(sp)
   110ea:	439d                	li	t2,7
   110ec:	6e86                	ld	t4,64(sp)
   110ee:	72e2                	ld	t0,56(sp)
   110f0:	68e2                	ld	a7,24(sp)
   110f2:	fb0dcde3          	blt	s11,a6,110ac <_vfprintf_r+0xd68>
   110f6:	0016861b          	addiw	a2,a3,1
   110fa:	97c2                	add	a5,a5,a6
   110fc:	01f33023          	sd	t6,0(t1)
   11100:	01033423          	sd	a6,8(t1)
   11104:	f23e                	sd	a5,288(sp)
   11106:	10c12c23          	sw	a2,280(sp)
   1110a:	469d                	li	a3,7
   1110c:	0341                	addi	t1,t1,16
   1110e:	98c6d7e3          	bge	a3,a2,10a9c <_vfprintf_r+0x758>
   11112:	0a10                	addi	a2,sp,272
   11114:	85d2                	mv	a1,s4
   11116:	8556                	mv	a0,s5
   11118:	e0f6                	sd	t4,64(sp)
   1111a:	fc16                	sd	t0,56(sp)
   1111c:	ec46                	sd	a7,24(sp)
   1111e:	7af060ef          	jal	ra,180cc <__sprint_r>
   11122:	be051863          	bnez	a0,10512 <_vfprintf_r+0x1ce>
   11126:	7792                	ld	a5,288(sp)
   11128:	835a                	mv	t1,s6
   1112a:	6e86                	ld	t4,64(sp)
   1112c:	72e2                	ld	t0,56(sp)
   1112e:	68e2                	ld	a7,24(sp)
   11130:	b2b5                	j	10a9c <_vfprintf_r+0x758>
   11132:	0a10                	addi	a2,sp,272
   11134:	85d2                	mv	a1,s4
   11136:	8556                	mv	a0,s5
   11138:	fc76                	sd	t4,56(sp)
   1113a:	ec16                	sd	t0,24(sp)
   1113c:	791060ef          	jal	ra,180cc <__sprint_r>
   11140:	bc051963          	bnez	a0,10512 <_vfprintf_r+0x1ce>
   11144:	7792                	ld	a5,288(sp)
   11146:	835a                	mv	t1,s6
   11148:	7ee2                	ld	t4,56(sp)
   1114a:	62e2                	ld	t0,24(sp)
   1114c:	b265                	j	10af4 <_vfprintf_r+0x7b0>
   1114e:	11812703          	lw	a4,280(sp)
   11152:	0000bf97          	auipc	t6,0xb
   11156:	0bef8f93          	addi	t6,t6,190 # 1c210 <blanks.4540>
   1115a:	4c1d                	li	s8,7
   1115c:	008dc663          	blt	s11,s0,11168 <_vfprintf_r+0xe24>
   11160:	a081                	j	111a0 <_vfprintf_r+0xe5c>
   11162:	3441                	addiw	s0,s0,-16
   11164:	028dde63          	bge	s11,s0,111a0 <_vfprintf_r+0xe5c>
   11168:	2705                	addiw	a4,a4,1
   1116a:	07c1                	addi	a5,a5,16
   1116c:	01f33023          	sd	t6,0(t1)
   11170:	01b33423          	sd	s11,8(t1)
   11174:	f23e                	sd	a5,288(sp)
   11176:	10e12c23          	sw	a4,280(sp)
   1117a:	0341                	addi	t1,t1,16
   1117c:	feec53e3          	bge	s8,a4,11162 <_vfprintf_r+0xe1e>
   11180:	0a10                	addi	a2,sp,272
   11182:	85d2                	mv	a1,s4
   11184:	8556                	mv	a0,s5
   11186:	ec7e                	sd	t6,24(sp)
   11188:	745060ef          	jal	ra,180cc <__sprint_r>
   1118c:	b8051363          	bnez	a0,10512 <_vfprintf_r+0x1ce>
   11190:	3441                	addiw	s0,s0,-16
   11192:	7792                	ld	a5,288(sp)
   11194:	11812703          	lw	a4,280(sp)
   11198:	835a                	mv	t1,s6
   1119a:	6fe2                	ld	t6,24(sp)
   1119c:	fc8dc6e3          	blt	s11,s0,11168 <_vfprintf_r+0xe24>
   111a0:	0017069b          	addiw	a3,a4,1
   111a4:	97a2                	add	a5,a5,s0
   111a6:	01f33023          	sd	t6,0(t1)
   111aa:	00833423          	sd	s0,8(t1)
   111ae:	f23e                	sd	a5,288(sp)
   111b0:	10d12c23          	sw	a3,280(sp)
   111b4:	471d                	li	a4,7
   111b6:	98d752e3          	bge	a4,a3,10b3a <_vfprintf_r+0x7f6>
   111ba:	0a10                	addi	a2,sp,272
   111bc:	85d2                	mv	a1,s4
   111be:	8556                	mv	a0,s5
   111c0:	70d060ef          	jal	ra,180cc <__sprint_r>
   111c4:	b4051763          	bnez	a0,10512 <_vfprintf_r+0x1ce>
   111c8:	7792                	ld	a5,288(sp)
   111ca:	ba85                	j	10b3a <_vfprintf_r+0x7f6>
   111cc:	4705                	li	a4,1
   111ce:	0ae789e3          	beq	a5,a4,11a80 <_vfprintf_r+0x173c>
   111d2:	4709                	li	a4,2
   111d4:	86a2                	mv	a3,s0
   111d6:	84e792e3          	bne	a5,a4,10a1a <_vfprintf_r+0x6d6>
   111da:	18c10c13          	addi	s8,sp,396
   111de:	8d62                	mv	s10,s8
   111e0:	7742                	ld	a4,48(sp)
   111e2:	00f9f793          	andi	a5,s3,15
   111e6:	1d7d                	addi	s10,s10,-1
   111e8:	97ba                	add	a5,a5,a4
   111ea:	0007c783          	lbu	a5,0(a5)
   111ee:	0049d993          	srli	s3,s3,0x4
   111f2:	00fd0023          	sb	a5,0(s10)
   111f6:	fe0995e3          	bnez	s3,111e0 <_vfprintf_r+0xe9c>
   111fa:	41ac0c3b          	subw	s8,s8,s10
   111fe:	8436                	mv	s0,a3
   11200:	bd0ff06f          	j	105d0 <_vfprintf_r+0x28c>
   11204:	55ae                	lw	a1,232(sp)
   11206:	2eb05463          	blez	a1,114ee <_vfprintf_r+0x11aa>
   1120a:	7722                	ld	a4,40(sp)
   1120c:	7686                	ld	a3,96(sp)
   1120e:	00070c1b          	sext.w	s8,a4
   11212:	1ce6c263          	blt	a3,a4,113d6 <_vfprintf_r+0x1092>
   11216:	03805263          	blez	s8,1123a <_vfprintf_r+0xef6>
   1121a:	11812683          	lw	a3,280(sp)
   1121e:	97e2                	add	a5,a5,s8
   11220:	01a33023          	sd	s10,0(t1)
   11224:	0016861b          	addiw	a2,a3,1
   11228:	01833423          	sd	s8,8(t1)
   1122c:	f23e                	sd	a5,288(sp)
   1122e:	10c12c23          	sw	a2,280(sp)
   11232:	469d                	li	a3,7
   11234:	0341                	addi	t1,t1,16
   11236:	5ec6c263          	blt	a3,a2,1181a <_vfprintf_r+0x14d6>
   1123a:	fffc4693          	not	a3,s8
   1123e:	7706                	ld	a4,96(sp)
   11240:	96fd                	srai	a3,a3,0x3f
   11242:	00dc7c33          	and	s8,s8,a3
   11246:	41870c3b          	subw	s8,a4,s8
   1124a:	23804363          	bgtz	s8,11470 <_vfprintf_r+0x112c>
   1124e:	7706                	ld	a4,96(sp)
   11250:	40047693          	andi	a3,s0,1024
   11254:	00ed0c33          	add	s8,s10,a4
   11258:	44069063          	bnez	a3,11698 <_vfprintf_r+0x1354>
   1125c:	56ae                	lw	a3,232(sp)
   1125e:	7722                	ld	a4,40(sp)
   11260:	00e6c663          	blt	a3,a4,1126c <_vfprintf_r+0xf28>
   11264:	00147613          	andi	a2,s0,1
   11268:	60060563          	beqz	a2,11872 <_vfprintf_r+0x152e>
   1126c:	660a                	ld	a2,128(sp)
   1126e:	7766                	ld	a4,120(sp)
   11270:	0341                	addi	t1,t1,16
   11272:	fec33823          	sd	a2,-16(t1)
   11276:	11812603          	lw	a2,280(sp)
   1127a:	97ba                	add	a5,a5,a4
   1127c:	fee33c23          	sd	a4,-8(t1)
   11280:	0016059b          	addiw	a1,a2,1
   11284:	f23e                	sd	a5,288(sp)
   11286:	10b12c23          	sw	a1,280(sp)
   1128a:	461d                	li	a2,7
   1128c:	14b641e3          	blt	a2,a1,11bce <_vfprintf_r+0x188a>
   11290:	7722                	ld	a4,40(sp)
   11292:	40d7063b          	subw	a2,a4,a3
   11296:	976a                	add	a4,a4,s10
   11298:	4187073b          	subw	a4,a4,s8
   1129c:	86b2                	mv	a3,a2
   1129e:	00c75363          	bge	a4,a2,112a4 <_vfprintf_r+0xf60>
   112a2:	86ba                	mv	a3,a4
   112a4:	00068c9b          	sext.w	s9,a3
   112a8:	03905263          	blez	s9,112cc <_vfprintf_r+0xf88>
   112ac:	11812703          	lw	a4,280(sp)
   112b0:	97e6                	add	a5,a5,s9
   112b2:	01833023          	sd	s8,0(t1)
   112b6:	0017059b          	addiw	a1,a4,1
   112ba:	01933423          	sd	s9,8(t1)
   112be:	f23e                	sd	a5,288(sp)
   112c0:	10b12c23          	sw	a1,280(sp)
   112c4:	471d                	li	a4,7
   112c6:	0341                	addi	t1,t1,16
   112c8:	1ab744e3          	blt	a4,a1,11c70 <_vfprintf_r+0x192c>
   112cc:	fffccc13          	not	s8,s9
   112d0:	43fc5c13          	srai	s8,s8,0x3f
   112d4:	018cfc33          	and	s8,s9,s8
   112d8:	41860c3b          	subw	s8,a2,s8
   112dc:	858059e3          	blez	s8,10b2e <_vfprintf_r+0x7ea>
   112e0:	11812703          	lw	a4,280(sp)
   112e4:	298dd163          	bge	s11,s8,11566 <_vfprintf_r+0x1222>
   112e8:	4c9d                	li	s9,7
   112ea:	a021                	j	112f2 <_vfprintf_r+0xfae>
   112ec:	3c41                	addiw	s8,s8,-16
   112ee:	278ddc63          	bge	s11,s8,11566 <_vfprintf_r+0x1222>
   112f2:	2705                	addiw	a4,a4,1
   112f4:	07c1                	addi	a5,a5,16
   112f6:	01233023          	sd	s2,0(t1)
   112fa:	01b33423          	sd	s11,8(t1)
   112fe:	f23e                	sd	a5,288(sp)
   11300:	10e12c23          	sw	a4,280(sp)
   11304:	0341                	addi	t1,t1,16
   11306:	feecd3e3          	bge	s9,a4,112ec <_vfprintf_r+0xfa8>
   1130a:	0a10                	addi	a2,sp,272
   1130c:	85d2                	mv	a1,s4
   1130e:	8556                	mv	a0,s5
   11310:	5bd060ef          	jal	ra,180cc <__sprint_r>
   11314:	9e051f63          	bnez	a0,10512 <_vfprintf_r+0x1ce>
   11318:	7792                	ld	a5,288(sp)
   1131a:	11812703          	lw	a4,280(sp)
   1131e:	835a                	mv	t1,s6
   11320:	b7f1                	j	112ec <_vfprintf_r+0xfa8>
   11322:	00147513          	andi	a0,s0,1
   11326:	ca051fe3          	bnez	a0,10fe4 <_vfprintf_r+0xca0>
   1132a:	00b33423          	sd	a1,8(t1)
   1132e:	f23e                	sd	a5,288(sp)
   11330:	10d12c23          	sw	a3,280(sp)
   11334:	471d                	li	a4,7
   11336:	0cd74463          	blt	a4,a3,113fe <_vfprintf_r+0x10ba>
   1133a:	002f0c9b          	addiw	s9,t5,2
   1133e:	02030313          	addi	t1,t1,32
   11342:	bb05                	j	11072 <_vfprintf_r+0xd2e>
   11344:	d31057e3          	blez	a7,11072 <_vfprintf_r+0xd2e>
   11348:	391dd7e3          	bge	s11,a7,11ed6 <_vfprintf_r+0x1b92>
   1134c:	4c9d                	li	s9,7
   1134e:	a031                	j	1135a <_vfprintf_r+0x1016>
   11350:	38c1                	addiw	a7,a7,-16
   11352:	091dd763          	bge	s11,a7,113e0 <_vfprintf_r+0x109c>
   11356:	00180e9b          	addiw	t4,a6,1
   1135a:	07c1                	addi	a5,a5,16
   1135c:	012c3023          	sd	s2,0(s8)
   11360:	01bc3423          	sd	s11,8(s8)
   11364:	f23e                	sd	a5,288(sp)
   11366:	000e881b          	sext.w	a6,t4
   1136a:	11d12c23          	sw	t4,280(sp)
   1136e:	0c41                	addi	s8,s8,16
   11370:	ff0cd0e3          	bge	s9,a6,11350 <_vfprintf_r+0x100c>
   11374:	0a10                	addi	a2,sp,272
   11376:	85d2                	mv	a1,s4
   11378:	8556                	mv	a0,s5
   1137a:	ec46                	sd	a7,24(sp)
   1137c:	551060ef          	jal	ra,180cc <__sprint_r>
   11380:	98051963          	bnez	a0,10512 <_vfprintf_r+0x1ce>
   11384:	7792                	ld	a5,288(sp)
   11386:	11812803          	lw	a6,280(sp)
   1138a:	8c5a                	mv	s8,s6
   1138c:	68e2                	ld	a7,24(sp)
   1138e:	b7c9                	j	11350 <_vfprintf_r+0x100c>
   11390:	03000793          	li	a5,48
   11394:	18f105a3          	sb	a5,395(sp)
   11398:	18b10d13          	addi	s10,sp,395
   1139c:	a34ff06f          	j	105d0 <_vfprintf_r+0x28c>
   113a0:	67a2                	ld	a5,8(sp)
   113a2:	8d26                	mv	s10,s1
   113a4:	e31c                	sd	a5,0(a4)
   113a6:	fbaff06f          	j	10b60 <_vfprintf_r+0x81c>
   113aa:	67c2                	ld	a5,16(sp)
   113ac:	07bd                	addi	a5,a5,15
   113ae:	9bc1                	andi	a5,a5,-16
   113b0:	6394                	ld	a3,0(a5)
   113b2:	6798                	ld	a4,8(a5)
   113b4:	07c1                	addi	a5,a5,16
   113b6:	e83e                	sd	a5,16(sp)
   113b8:	e236                	sd	a3,256(sp)
   113ba:	e63a                	sd	a4,264(sp)
   113bc:	af4ff06f          	j	106b0 <_vfprintf_r+0x36c>
   113c0:	86a2                	mv	a3,s0
   113c2:	e2cff06f          	j	109ee <_vfprintf_r+0x6aa>
   113c6:	67c2                	ld	a5,16(sp)
   113c8:	0007b983          	ld	s3,0(a5)
   113cc:	9b6ff06f          	j	10582 <_vfprintf_r+0x23e>
   113d0:	86a2                	mv	a3,s0
   113d2:	cd4ff06f          	j	108a6 <_vfprintf_r+0x562>
   113d6:	00068c1b          	sext.w	s8,a3
   113da:	e58040e3          	bgtz	s8,1121a <_vfprintf_r+0xed6>
   113de:	bdb1                	j	1123a <_vfprintf_r+0xef6>
   113e0:	00180c9b          	addiw	s9,a6,1
   113e4:	010c0713          	addi	a4,s8,16
   113e8:	97c6                	add	a5,a5,a7
   113ea:	012c3023          	sd	s2,0(s8)
   113ee:	011c3423          	sd	a7,8(s8)
   113f2:	f23e                	sd	a5,288(sp)
   113f4:	11912c23          	sw	s9,280(sp)
   113f8:	469d                	li	a3,7
   113fa:	3f96da63          	bge	a3,s9,117ee <_vfprintf_r+0x14aa>
   113fe:	0a10                	addi	a2,sp,272
   11400:	85d2                	mv	a1,s4
   11402:	8556                	mv	a0,s5
   11404:	4c9060ef          	jal	ra,180cc <__sprint_r>
   11408:	90051563          	bnez	a0,10512 <_vfprintf_r+0x1ce>
   1140c:	11812f03          	lw	t5,280(sp)
   11410:	7792                	ld	a5,288(sp)
   11412:	1a010313          	addi	t1,sp,416
   11416:	001f0c9b          	addiw	s9,t5,1
   1141a:	8c5a                	mv	s8,s6
   1141c:	b999                	j	11072 <_vfprintf_r+0xd2e>
   1141e:	20046413          	ori	s0,s0,512
   11422:	0014cf03          	lbu	t5,1(s1)
   11426:	2401                	sext.w	s0,s0
   11428:	0485                	addi	s1,s1,1
   1142a:	85aff06f          	j	10484 <_vfprintf_r+0x140>
   1142e:	0a10                	addi	a2,sp,272
   11430:	85d2                	mv	a1,s4
   11432:	8556                	mv	a0,s5
   11434:	499060ef          	jal	ra,180cc <__sprint_r>
   11438:	8c051d63          	bnez	a0,10512 <_vfprintf_r+0x1ce>
   1143c:	7792                	ld	a5,288(sp)
   1143e:	835a                	mv	t1,s6
   11440:	bc15                	j	10e74 <_vfprintf_r+0xb30>
   11442:	02046413          	ori	s0,s0,32
   11446:	0014cf03          	lbu	t5,1(s1)
   1144a:	2401                	sext.w	s0,s0
   1144c:	0485                	addi	s1,s1,1
   1144e:	836ff06f          	j	10484 <_vfprintf_r+0x140>
   11452:	000e871b          	sext.w	a4,t4
   11456:	4799                	li	a5,6
   11458:	3ce7ec63          	bltu	a5,a4,11830 <_vfprintf_r+0x14ec>
   1145c:	000e8c1b          	sext.w	s8,t4
   11460:	89e2                	mv	s3,s8
   11462:	e836                	sd	a3,16(sp)
   11464:	0000bd17          	auipc	s10,0xb
   11468:	e4cd0d13          	addi	s10,s10,-436 # 1c2b0 <zeroes.4541+0x90>
   1146c:	e08ff06f          	j	10a74 <_vfprintf_r+0x730>
   11470:	11812683          	lw	a3,280(sp)
   11474:	1f8dd963          	bge	s11,s8,11666 <_vfprintf_r+0x1322>
   11478:	4c9d                	li	s9,7
   1147a:	a021                	j	11482 <_vfprintf_r+0x113e>
   1147c:	3c41                	addiw	s8,s8,-16
   1147e:	1f8dd463          	bge	s11,s8,11666 <_vfprintf_r+0x1322>
   11482:	2685                	addiw	a3,a3,1
   11484:	07c1                	addi	a5,a5,16
   11486:	01233023          	sd	s2,0(t1)
   1148a:	01b33423          	sd	s11,8(t1)
   1148e:	f23e                	sd	a5,288(sp)
   11490:	10d12c23          	sw	a3,280(sp)
   11494:	0341                	addi	t1,t1,16
   11496:	fedcd3e3          	bge	s9,a3,1147c <_vfprintf_r+0x1138>
   1149a:	0a10                	addi	a2,sp,272
   1149c:	85d2                	mv	a1,s4
   1149e:	8556                	mv	a0,s5
   114a0:	42d060ef          	jal	ra,180cc <__sprint_r>
   114a4:	c119                	beqz	a0,114aa <_vfprintf_r+0x1166>
   114a6:	86cff06f          	j	10512 <_vfprintf_r+0x1ce>
   114aa:	7792                	ld	a5,288(sp)
   114ac:	11812683          	lw	a3,280(sp)
   114b0:	835a                	mv	t1,s6
   114b2:	b7e9                	j	1147c <_vfprintf_r+0x1138>
   114b4:	89ea                	mv	s3,s10
   114b6:	fb7fe06f          	j	1046c <_vfprintf_r+0x128>
   114ba:	0a10                	addi	a2,sp,272
   114bc:	85d2                	mv	a1,s4
   114be:	8556                	mv	a0,s5
   114c0:	40d060ef          	jal	ra,180cc <__sprint_r>
   114c4:	c119                	beqz	a0,114ca <_vfprintf_r+0x1186>
   114c6:	84cff06f          	j	10512 <_vfprintf_r+0x1ce>
   114ca:	7792                	ld	a5,288(sp)
   114cc:	11812683          	lw	a3,280(sp)
   114d0:	8c5a                	mv	s8,s6
   114d2:	b615                	j	10ff6 <_vfprintf_r+0xcb2>
   114d4:	0a10                	addi	a2,sp,272
   114d6:	85d2                	mv	a1,s4
   114d8:	8556                	mv	a0,s5
   114da:	3f3060ef          	jal	ra,180cc <__sprint_r>
   114de:	c119                	beqz	a0,114e4 <_vfprintf_r+0x11a0>
   114e0:	832ff06f          	j	10512 <_vfprintf_r+0x1ce>
   114e4:	7792                	ld	a5,288(sp)
   114e6:	11812803          	lw	a6,280(sp)
   114ea:	8c5a                	mv	s8,s6
   114ec:	b62d                	j	11016 <_vfprintf_r+0xcd2>
   114ee:	11812683          	lw	a3,280(sp)
   114f2:	0000b617          	auipc	a2,0xb
   114f6:	dc660613          	addi	a2,a2,-570 # 1c2b8 <zeroes.4541+0x98>
   114fa:	00c33023          	sd	a2,0(t1)
   114fe:	2685                	addiw	a3,a3,1
   11500:	4605                	li	a2,1
   11502:	0785                	addi	a5,a5,1
   11504:	00c33423          	sd	a2,8(t1)
   11508:	10d12c23          	sw	a3,280(sp)
   1150c:	0006861b          	sext.w	a2,a3
   11510:	f23e                	sd	a5,288(sp)
   11512:	469d                	li	a3,7
   11514:	0341                	addi	t1,t1,16
   11516:	2ec6c163          	blt	a3,a2,117f8 <_vfprintf_r+0x14b4>
   1151a:	e8059063          	bnez	a1,10b9a <_vfprintf_r+0x856>
   1151e:	7722                	ld	a4,40(sp)
   11520:	00147693          	andi	a3,s0,1
   11524:	8ed9                	or	a3,a3,a4
   11526:	e0068463          	beqz	a3,10b2e <_vfprintf_r+0x7ea>
   1152a:	11812603          	lw	a2,280(sp)
   1152e:	7766                	ld	a4,120(sp)
   11530:	668a                	ld	a3,128(sp)
   11532:	97ba                	add	a5,a5,a4
   11534:	00d33023          	sd	a3,0(t1)
   11538:	0016069b          	addiw	a3,a2,1
   1153c:	00e33423          	sd	a4,8(t1)
   11540:	f23e                	sd	a5,288(sp)
   11542:	10d12c23          	sw	a3,280(sp)
   11546:	461d                	li	a2,7
   11548:	e6d64b63          	blt	a2,a3,10bbe <_vfprintf_r+0x87a>
   1154c:	0341                	addi	t1,t1,16
   1154e:	e90ff06f          	j	10bde <_vfprintf_r+0x89a>
   11552:	0a10                	addi	a2,sp,272
   11554:	85d2                	mv	a1,s4
   11556:	8556                	mv	a0,s5
   11558:	375060ef          	jal	ra,180cc <__sprint_r>
   1155c:	c119                	beqz	a0,11562 <_vfprintf_r+0x121e>
   1155e:	fb5fe06f          	j	10512 <_vfprintf_r+0x1ce>
   11562:	835a                	mv	t1,s6
   11564:	b8d9                	j	10e3a <_vfprintf_r+0xaf6>
   11566:	0017069b          	addiw	a3,a4,1
   1156a:	8736                	mv	a4,a3
   1156c:	97e2                	add	a5,a5,s8
   1156e:	01233023          	sd	s2,0(t1)
   11572:	daaff06f          	j	10b1c <_vfprintf_r+0x7d8>
   11576:	6512                	ld	a0,256(sp)
   11578:	65b2                	ld	a1,264(sp)
   1157a:	4601                	li	a2,0
   1157c:	4681                	li	a3,0
   1157e:	ec1a                	sd	t1,24(sp)
   11580:	035090ef          	jal	ra,1adb4 <__letf2>
   11584:	6362                	ld	t1,24(sp)
   11586:	66054163          	bltz	a0,11be8 <_vfprintf_r+0x18a4>
   1158a:	0df14783          	lbu	a5,223(sp)
   1158e:	04700693          	li	a3,71
   11592:	0000bd17          	auipc	s10,0xb
   11596:	cced0d13          	addi	s10,s10,-818 # 1c260 <zeroes.4541+0x40>
   1159a:	2796cb63          	blt	a3,s9,11810 <_vfprintf_r+0x14cc>
   1159e:	f7f47413          	andi	s0,s0,-129
   115a2:	f002                	sd	zero,32(sp)
   115a4:	ec82                	sd	zero,88(sp)
   115a6:	f482                	sd	zero,104(sp)
   115a8:	f082                	sd	zero,96(sp)
   115aa:	2401                	sext.w	s0,s0
   115ac:	498d                	li	s3,3
   115ae:	4c0d                	li	s8,3
   115b0:	4e81                	li	t4,0
   115b2:	c399                	beqz	a5,115b8 <_vfprintf_r+0x1274>
   115b4:	838ff06f          	j	105ec <_vfprintf_r+0x2a8>
   115b8:	cc6ff06f          	j	10a7e <_vfprintf_r+0x73a>
   115bc:	856a                	mv	a0,s10
   115be:	ec1a                	sd	t1,24(sp)
   115c0:	e836                	sd	a3,16(sp)
   115c2:	589040ef          	jal	ra,1634a <strlen>
   115c6:	00050c1b          	sext.w	s8,a0
   115ca:	fffc4993          	not	s3,s8
   115ce:	0df14783          	lbu	a5,223(sp)
   115d2:	43f9d993          	srai	s3,s3,0x3f
   115d6:	013c79b3          	and	s3,s8,s3
   115da:	f002                	sd	zero,32(sp)
   115dc:	ec82                	sd	zero,88(sp)
   115de:	f482                	sd	zero,104(sp)
   115e0:	f082                	sd	zero,96(sp)
   115e2:	2981                	sext.w	s3,s3
   115e4:	4e81                	li	t4,0
   115e6:	6362                	ld	t1,24(sp)
   115e8:	c399                	beqz	a5,115ee <_vfprintf_r+0x12aa>
   115ea:	802ff06f          	j	105ec <_vfprintf_r+0x2a8>
   115ee:	c90ff06f          	j	10a7e <_vfprintf_r+0x73a>
   115f2:	20047793          	andi	a5,s0,512
   115f6:	2c078163          	beqz	a5,118b8 <_vfprintf_r+0x1574>
   115fa:	0ff9f993          	andi	s3,s3,255
   115fe:	f85fe06f          	j	10582 <_vfprintf_r+0x23e>
   11602:	20047793          	andi	a5,s0,512
   11606:	2a078163          	beqz	a5,118a8 <_vfprintf_r+0x1564>
   1160a:	0ff9f993          	andi	s3,s3,255
   1160e:	e83a                	sd	a4,16(sp)
   11610:	86a2                	mv	a3,s0
   11612:	4785                	li	a5,1
   11614:	f95fe06f          	j	105a8 <_vfprintf_r+0x264>
   11618:	20047793          	andi	a5,s0,512
   1161c:	2a078363          	beqz	a5,118c2 <_vfprintf_r+0x157e>
   11620:	0ff9f993          	andi	s3,s3,255
   11624:	e83a                	sd	a4,16(sp)
   11626:	b00ff06f          	j	10926 <_vfprintf_r+0x5e2>
   1162a:	20047793          	andi	a5,s0,512
   1162e:	24078f63          	beqz	a5,1188c <_vfprintf_r+0x1548>
   11632:	67c2                	ld	a5,16(sp)
   11634:	86a2                	mv	a3,s0
   11636:	e83a                	sd	a4,16(sp)
   11638:	00078983          	lb	s3,0(a5)
   1163c:	87ce                	mv	a5,s3
   1163e:	b26ff06f          	j	10964 <_vfprintf_r+0x620>
   11642:	67b2                	ld	a5,264(sp)
   11644:	2807c563          	bltz	a5,118ce <_vfprintf_r+0x158a>
   11648:	0df14783          	lbu	a5,223(sp)
   1164c:	04700693          	li	a3,71
   11650:	0000bd17          	auipc	s10,0xb
   11654:	c20d0d13          	addi	s10,s10,-992 # 1c270 <zeroes.4541+0x50>
   11658:	f596d3e3          	bge	a3,s9,1159e <_vfprintf_r+0x125a>
   1165c:	0000bd17          	auipc	s10,0xb
   11660:	c1cd0d13          	addi	s10,s10,-996 # 1c278 <zeroes.4541+0x58>
   11664:	bf2d                	j	1159e <_vfprintf_r+0x125a>
   11666:	0016861b          	addiw	a2,a3,1
   1166a:	97e2                	add	a5,a5,s8
   1166c:	01233023          	sd	s2,0(t1)
   11670:	01833423          	sd	s8,8(t1)
   11674:	f23e                	sd	a5,288(sp)
   11676:	10c12c23          	sw	a2,280(sp)
   1167a:	469d                	li	a3,7
   1167c:	0341                	addi	t1,t1,16
   1167e:	bcc6d8e3          	bge	a3,a2,1124e <_vfprintf_r+0xf0a>
   11682:	0a10                	addi	a2,sp,272
   11684:	85d2                	mv	a1,s4
   11686:	8556                	mv	a0,s5
   11688:	245060ef          	jal	ra,180cc <__sprint_r>
   1168c:	c119                	beqz	a0,11692 <_vfprintf_r+0x134e>
   1168e:	e85fe06f          	j	10512 <_vfprintf_r+0x1ce>
   11692:	7792                	ld	a5,288(sp)
   11694:	835a                	mv	t1,s6
   11696:	be65                	j	1124e <_vfprintf_r+0xf0a>
   11698:	7722                	ld	a4,40(sp)
   1169a:	4c9d                	li	s9,7
   1169c:	976a                	add	a4,a4,s10
   1169e:	fc3a                	sd	a4,56(sp)
   116a0:	7726                	ld	a4,104(sp)
   116a2:	cb51                	beqz	a4,11736 <_vfprintf_r+0x13f2>
   116a4:	6766                	ld	a4,88(sp)
   116a6:	eb59                	bnez	a4,1173c <_vfprintf_r+0x13f8>
   116a8:	7746                	ld	a4,112(sp)
   116aa:	177d                	addi	a4,a4,-1
   116ac:	f8ba                	sd	a4,112(sp)
   116ae:	7726                	ld	a4,104(sp)
   116b0:	377d                	addiw	a4,a4,-1
   116b2:	f4ba                	sd	a4,104(sp)
   116b4:	66ea                	ld	a3,152(sp)
   116b6:	672a                	ld	a4,136(sp)
   116b8:	0341                	addi	t1,t1,16
   116ba:	fed33823          	sd	a3,-16(t1)
   116be:	11812683          	lw	a3,280(sp)
   116c2:	97ba                	add	a5,a5,a4
   116c4:	fee33c23          	sd	a4,-8(t1)
   116c8:	0016861b          	addiw	a2,a3,1
   116cc:	f23e                	sd	a5,288(sp)
   116ce:	10c12c23          	sw	a2,280(sp)
   116d2:	0eccc163          	blt	s9,a2,117b4 <_vfprintf_r+0x1470>
   116d6:	7746                	ld	a4,112(sp)
   116d8:	00074603          	lbu	a2,0(a4)
   116dc:	7762                	ld	a4,56(sp)
   116de:	0006069b          	sext.w	a3,a2
   116e2:	418705bb          	subw	a1,a4,s8
   116e6:	0006881b          	sext.w	a6,a3
   116ea:	00d5d463          	bge	a1,a3,116f2 <_vfprintf_r+0x13ae>
   116ee:	0005881b          	sext.w	a6,a1
   116f2:	03005663          	blez	a6,1171e <_vfprintf_r+0x13da>
   116f6:	11812683          	lw	a3,280(sp)
   116fa:	97c2                	add	a5,a5,a6
   116fc:	01833023          	sd	s8,0(t1)
   11700:	0016861b          	addiw	a2,a3,1
   11704:	01033423          	sd	a6,8(t1)
   11708:	f23e                	sd	a5,288(sp)
   1170a:	10c12c23          	sw	a2,280(sp)
   1170e:	0accce63          	blt	s9,a2,117ca <_vfprintf_r+0x1486>
   11712:	7746                	ld	a4,112(sp)
   11714:	0341                	addi	t1,t1,16
   11716:	00074603          	lbu	a2,0(a4)
   1171a:	0006069b          	sext.w	a3,a2
   1171e:	fff84593          	not	a1,a6
   11722:	95fd                	srai	a1,a1,0x3f
   11724:	00b87833          	and	a6,a6,a1
   11728:	410686bb          	subw	a3,a3,a6
   1172c:	00d04c63          	bgtz	a3,11744 <_vfprintf_r+0x1400>
   11730:	9c32                	add	s8,s8,a2
   11732:	7726                	ld	a4,104(sp)
   11734:	fb25                	bnez	a4,116a4 <_vfprintf_r+0x1360>
   11736:	6766                	ld	a4,88(sp)
   11738:	34070763          	beqz	a4,11a86 <_vfprintf_r+0x1742>
   1173c:	6766                	ld	a4,88(sp)
   1173e:	377d                	addiw	a4,a4,-1
   11740:	ecba                	sd	a4,88(sp)
   11742:	bf8d                	j	116b4 <_vfprintf_r+0x1370>
   11744:	11812603          	lw	a2,280(sp)
   11748:	00ddc663          	blt	s11,a3,11754 <_vfprintf_r+0x1410>
   1174c:	a089                	j	1178e <_vfprintf_r+0x144a>
   1174e:	36c1                	addiw	a3,a3,-16
   11750:	02dddf63          	bge	s11,a3,1178e <_vfprintf_r+0x144a>
   11754:	2605                	addiw	a2,a2,1
   11756:	07c1                	addi	a5,a5,16
   11758:	01233023          	sd	s2,0(t1)
   1175c:	01b33423          	sd	s11,8(t1)
   11760:	f23e                	sd	a5,288(sp)
   11762:	10c12c23          	sw	a2,280(sp)
   11766:	0341                	addi	t1,t1,16
   11768:	feccd3e3          	bge	s9,a2,1174e <_vfprintf_r+0x140a>
   1176c:	0a10                	addi	a2,sp,272
   1176e:	85d2                	mv	a1,s4
   11770:	8556                	mv	a0,s5
   11772:	ec36                	sd	a3,24(sp)
   11774:	159060ef          	jal	ra,180cc <__sprint_r>
   11778:	c119                	beqz	a0,1177e <_vfprintf_r+0x143a>
   1177a:	d99fe06f          	j	10512 <_vfprintf_r+0x1ce>
   1177e:	66e2                	ld	a3,24(sp)
   11780:	7792                	ld	a5,288(sp)
   11782:	11812603          	lw	a2,280(sp)
   11786:	36c1                	addiw	a3,a3,-16
   11788:	835a                	mv	t1,s6
   1178a:	fcddc5e3          	blt	s11,a3,11754 <_vfprintf_r+0x1410>
   1178e:	2605                	addiw	a2,a2,1
   11790:	97b6                	add	a5,a5,a3
   11792:	00d33423          	sd	a3,8(t1)
   11796:	01233023          	sd	s2,0(t1)
   1179a:	f23e                	sd	a5,288(sp)
   1179c:	0006069b          	sext.w	a3,a2
   117a0:	10c12c23          	sw	a2,280(sp)
   117a4:	40dcc263          	blt	s9,a3,11ba8 <_vfprintf_r+0x1864>
   117a8:	7746                	ld	a4,112(sp)
   117aa:	0341                	addi	t1,t1,16
   117ac:	00074603          	lbu	a2,0(a4)
   117b0:	9c32                	add	s8,s8,a2
   117b2:	b741                	j	11732 <_vfprintf_r+0x13ee>
   117b4:	0a10                	addi	a2,sp,272
   117b6:	85d2                	mv	a1,s4
   117b8:	8556                	mv	a0,s5
   117ba:	113060ef          	jal	ra,180cc <__sprint_r>
   117be:	c119                	beqz	a0,117c4 <_vfprintf_r+0x1480>
   117c0:	d53fe06f          	j	10512 <_vfprintf_r+0x1ce>
   117c4:	7792                	ld	a5,288(sp)
   117c6:	835a                	mv	t1,s6
   117c8:	b739                	j	116d6 <_vfprintf_r+0x1392>
   117ca:	0a10                	addi	a2,sp,272
   117cc:	85d2                	mv	a1,s4
   117ce:	8556                	mv	a0,s5
   117d0:	ec42                	sd	a6,24(sp)
   117d2:	0fb060ef          	jal	ra,180cc <__sprint_r>
   117d6:	c119                	beqz	a0,117dc <_vfprintf_r+0x1498>
   117d8:	d3bfe06f          	j	10512 <_vfprintf_r+0x1ce>
   117dc:	77c6                	ld	a5,112(sp)
   117de:	835a                	mv	t1,s6
   117e0:	6862                	ld	a6,24(sp)
   117e2:	0007c603          	lbu	a2,0(a5)
   117e6:	7792                	ld	a5,288(sp)
   117e8:	0006069b          	sext.w	a3,a2
   117ec:	bf0d                	j	1171e <_vfprintf_r+0x13da>
   117ee:	2c85                	addiw	s9,s9,1
   117f0:	01070313          	addi	t1,a4,16
   117f4:	8c3a                	mv	s8,a4
   117f6:	b8b5                	j	11072 <_vfprintf_r+0xd2e>
   117f8:	0a10                	addi	a2,sp,272
   117fa:	85d2                	mv	a1,s4
   117fc:	8556                	mv	a0,s5
   117fe:	0cf060ef          	jal	ra,180cc <__sprint_r>
   11802:	c119                	beqz	a0,11808 <_vfprintf_r+0x14c4>
   11804:	d0ffe06f          	j	10512 <_vfprintf_r+0x1ce>
   11808:	55ae                	lw	a1,232(sp)
   1180a:	7792                	ld	a5,288(sp)
   1180c:	835a                	mv	t1,s6
   1180e:	b331                	j	1151a <_vfprintf_r+0x11d6>
   11810:	0000bd17          	auipc	s10,0xb
   11814:	a58d0d13          	addi	s10,s10,-1448 # 1c268 <zeroes.4541+0x48>
   11818:	b359                	j	1159e <_vfprintf_r+0x125a>
   1181a:	0a10                	addi	a2,sp,272
   1181c:	85d2                	mv	a1,s4
   1181e:	8556                	mv	a0,s5
   11820:	0ad060ef          	jal	ra,180cc <__sprint_r>
   11824:	c119                	beqz	a0,1182a <_vfprintf_r+0x14e6>
   11826:	cedfe06f          	j	10512 <_vfprintf_r+0x1ce>
   1182a:	7792                	ld	a5,288(sp)
   1182c:	835a                	mv	t1,s6
   1182e:	b431                	j	1123a <_vfprintf_r+0xef6>
   11830:	4e99                	li	t4,6
   11832:	b12d                	j	1145c <_vfprintf_r+0x1118>
   11834:	e0be                	sd	a5,64(sp)
   11836:	67aa                	ld	a5,136(sp)
   11838:	65ea                	ld	a1,152(sp)
   1183a:	fc1a                	sd	t1,56(sp)
   1183c:	40fd0d33          	sub	s10,s10,a5
   11840:	863e                	mv	a2,a5
   11842:	856a                	mv	a0,s10
   11844:	f076                	sd	t4,32(sp)
   11846:	ec36                	sd	a3,24(sp)
   11848:	39b040ef          	jal	ra,163e2 <strncpy>
   1184c:	77c6                	ld	a5,112(sp)
   1184e:	0289d633          	divu	a2,s3,s0
   11852:	f402                	sd	zero,40(sp)
   11854:	0017c583          	lbu	a1,1(a5)
   11858:	66e2                	ld	a3,24(sp)
   1185a:	7e82                	ld	t4,32(sp)
   1185c:	00b035b3          	snez	a1,a1
   11860:	97ae                	add	a5,a5,a1
   11862:	f8be                	sd	a5,112(sp)
   11864:	7362                	ld	t1,56(sp)
   11866:	6786                	ld	a5,64(sp)
   11868:	4825                	li	a6,9
   1186a:	0ff00893          	li	a7,255
   1186e:	d48ff06f          	j	10db6 <_vfprintf_r+0xa72>
   11872:	7622                	ld	a2,40(sp)
   11874:	00cd0733          	add	a4,s10,a2
   11878:	41870ebb          	subw	t4,a4,s8
   1187c:	9e15                	subw	a2,a2,a3
   1187e:	8c76                	mv	s8,t4
   11880:	01d65363          	bge	a2,t4,11886 <_vfprintf_r+0x1542>
   11884:	8c32                	mv	s8,a2
   11886:	000c0c9b          	sext.w	s9,s8
   1188a:	b489                	j	112cc <_vfprintf_r+0xf88>
   1188c:	67c2                	ld	a5,16(sp)
   1188e:	86a2                	mv	a3,s0
   11890:	e83a                	sd	a4,16(sp)
   11892:	0007a983          	lw	s3,0(a5)
   11896:	87ce                	mv	a5,s3
   11898:	8ccff06f          	j	10964 <_vfprintf_r+0x620>
   1189c:	67a2                	ld	a5,8(sp)
   1189e:	8d26                	mv	s10,s1
   118a0:	00f71023          	sh	a5,0(a4)
   118a4:	abcff06f          	j	10b60 <_vfprintf_r+0x81c>
   118a8:	1982                	slli	s3,s3,0x20
   118aa:	0209d993          	srli	s3,s3,0x20
   118ae:	e83a                	sd	a4,16(sp)
   118b0:	86a2                	mv	a3,s0
   118b2:	4785                	li	a5,1
   118b4:	cf5fe06f          	j	105a8 <_vfprintf_r+0x264>
   118b8:	1982                	slli	s3,s3,0x20
   118ba:	0209d993          	srli	s3,s3,0x20
   118be:	cc5fe06f          	j	10582 <_vfprintf_r+0x23e>
   118c2:	1982                	slli	s3,s3,0x20
   118c4:	0209d993          	srli	s3,s3,0x20
   118c8:	e83a                	sd	a4,16(sp)
   118ca:	85cff06f          	j	10926 <_vfprintf_r+0x5e2>
   118ce:	02d00793          	li	a5,45
   118d2:	0cf10fa3          	sb	a5,223(sp)
   118d6:	bb9d                	j	1164c <_vfprintf_r+0x1308>
   118d8:	03000793          	li	a5,48
   118dc:	0ef10023          	sb	a5,224(sp)
   118e0:	05800713          	li	a4,88
   118e4:	00246793          	ori	a5,s0,2
   118e8:	2781                	sext.w	a5,a5
   118ea:	0ee100a3          	sb	a4,225(sp)
   118ee:	06300693          	li	a3,99
   118f2:	f93e                	sd	a5,176(sp)
   118f4:	f002                	sd	zero,32(sp)
   118f6:	12810d13          	addi	s10,sp,296
   118fa:	41d6cc63          	blt	a3,t4,11d12 <_vfprintf_r+0x19ce>
   118fe:	6c32                	ld	s8,264(sp)
   11900:	fdfcf793          	andi	a5,s9,-33
   11904:	10246413          	ori	s0,s0,258
   11908:	f53e                	sd	a5,168(sp)
   1190a:	e582                	sd	zero,200(sp)
   1190c:	2401                	sext.w	s0,s0
   1190e:	6f92                	ld	t6,256(sp)
   11910:	280c4463          	bltz	s8,11b98 <_vfprintf_r+0x1854>
   11914:	06100793          	li	a5,97
   11918:	52fc8d63          	beq	s9,a5,11e52 <_vfprintf_r+0x1b0e>
   1191c:	04100793          	li	a5,65
   11920:	00fc8463          	beq	s9,a5,11928 <_vfprintf_r+0x15e4>
   11924:	df7fe06f          	j	1071a <_vfprintf_r+0x3d6>
   11928:	857e                	mv	a0,t6
   1192a:	85e2                	mv	a1,s8
   1192c:	fc1a                	sd	t1,56(sp)
   1192e:	f476                	sd	t4,40(sp)
   11930:	5040a0ef          	jal	ra,1be34 <__trunctfdf2>
   11934:	11a8                	addi	a0,sp,232
   11936:	69c040ef          	jal	ra,15fd2 <frexp>
   1193a:	4360a0ef          	jal	ra,1bd70 <__extenddftf2>
   1193e:	0000b797          	auipc	a5,0xb
   11942:	91278793          	addi	a5,a5,-1774 # 1c250 <zeroes.4541+0x30>
   11946:	6794                	ld	a3,8(a5)
   11948:	4601                	li	a2,0
   1194a:	518090ef          	jal	ra,1ae62 <__multf3>
   1194e:	4601                	li	a2,0
   11950:	4681                	li	a3,0
   11952:	8c2a                	mv	s8,a0
   11954:	ec2e                	sd	a1,24(sp)
   11956:	314090ef          	jal	ra,1ac6a <__eqtf2>
   1195a:	62e2                	ld	t0,24(sp)
   1195c:	7ea2                	ld	t4,40(sp)
   1195e:	7362                	ld	t1,56(sp)
   11960:	e119                	bnez	a0,11966 <_vfprintf_r+0x1622>
   11962:	4785                	li	a5,1
   11964:	d5be                	sw	a5,232(sp)
   11966:	0000b797          	auipc	a5,0xb
   1196a:	93278793          	addi	a5,a5,-1742 # 1c298 <zeroes.4541+0x78>
   1196e:	f0be                	sd	a5,96(sp)
   11970:	000e869b          	sext.w	a3,t4
   11974:	02069793          	slli	a5,a3,0x20
   11978:	9381                	srli	a5,a5,0x20
   1197a:	0785                	addi	a5,a5,1
   1197c:	97ea                	add	a5,a5,s10
   1197e:	f13e                	sd	a5,160(sp)
   11980:	00dd07bb          	addw	a5,s10,a3
   11984:	df3e                	sw	a5,188(sp)
   11986:	0000b797          	auipc	a5,0xb
   1198a:	8aa78793          	addi	a5,a5,-1878 # 1c230 <zeroes.4541+0x10>
   1198e:	679c                	ld	a5,8(a5)
   11990:	ec6a                	sd	s10,24(sp)
   11992:	e1be                	sd	a5,192(sp)
   11994:	a839                	j	119b2 <_vfprintf_r+0x166e>
   11996:	4601                	li	a2,0
   11998:	4681                	li	a3,0
   1199a:	ecae                	sd	a1,88(sp)
   1199c:	e8aa                	sd	a0,80(sp)
   1199e:	2cc090ef          	jal	ra,1ac6a <__eqtf2>
   119a2:	7ee2                	ld	t4,56(sp)
   119a4:	6306                	ld	t1,64(sp)
   119a6:	6fc6                	ld	t6,80(sp)
   119a8:	68e6                	ld	a7,88(sp)
   119aa:	77a2                	ld	a5,40(sp)
   119ac:	62a6                	ld	t0,72(sp)
   119ae:	c135                	beqz	a0,11a12 <_vfprintf_r+0x16ce>
   119b0:	ec3e                	sd	a5,24(sp)
   119b2:	668e                	ld	a3,192(sp)
   119b4:	4601                	li	a2,0
   119b6:	8596                	mv	a1,t0
   119b8:	8562                	mv	a0,s8
   119ba:	e09a                	sd	t1,64(sp)
   119bc:	fc76                	sd	t4,56(sp)
   119be:	4a4090ef          	jal	ra,1ae62 <__multf3>
   119c2:	8c2e                	mv	s8,a1
   119c4:	f42a                	sd	a0,40(sp)
   119c6:	2bc0a0ef          	jal	ra,1bc82 <__fixtfsi>
   119ca:	0005099b          	sext.w	s3,a0
   119ce:	854e                	mv	a0,s3
   119d0:	3420a0ef          	jal	ra,1bd12 <__floatsitf>
   119d4:	7822                	ld	a6,40(sp)
   119d6:	86ae                	mv	a3,a1
   119d8:	862a                	mv	a2,a0
   119da:	85e2                	mv	a1,s8
   119dc:	8542                	mv	a0,a6
   119de:	28b090ef          	jal	ra,1b468 <__subtf3>
   119e2:	7786                	ld	a5,96(sp)
   119e4:	577a                	lw	a4,188(sp)
   119e6:	e4ae                	sd	a1,72(sp)
   119e8:	97ce                	add	a5,a5,s3
   119ea:	0007c683          	lbu	a3,0(a5)
   119ee:	67e2                	ld	a5,24(sp)
   119f0:	8faa                	mv	t6,a0
   119f2:	88ae                	mv	a7,a1
   119f4:	00d78023          	sb	a3,0(a5)
   119f8:	0785                	addi	a5,a5,1
   119fa:	9f1d                	subw	a4,a4,a5
   119fc:	f4ba                	sd	a4,104(sp)
   119fe:	770a                	ld	a4,160(sp)
   11a00:	f43e                	sd	a5,40(sp)
   11a02:	8c2a                	mv	s8,a0
   11a04:	7ee2                	ld	t4,56(sp)
   11a06:	6306                	ld	t1,64(sp)
   11a08:	f8e797e3          	bne	a5,a4,11996 <_vfprintf_r+0x1652>
   11a0c:	778a                	ld	a5,160(sp)
   11a0e:	577d                	li	a4,-1
   11a10:	f4ba                	sd	a4,104(sp)
   11a12:	0000b697          	auipc	a3,0xb
   11a16:	82e68693          	addi	a3,a3,-2002 # 1c240 <zeroes.4541+0x20>
   11a1a:	e4be                	sd	a5,72(sp)
   11a1c:	669c                	ld	a5,8(a3)
   11a1e:	4601                	li	a2,0
   11a20:	857e                	mv	a0,t6
   11a22:	86be                	mv	a3,a5
   11a24:	85c6                	mv	a1,a7
   11a26:	e09a                	sd	t1,64(sp)
   11a28:	fc76                	sd	t4,56(sp)
   11a2a:	f43e                	sd	a5,40(sp)
   11a2c:	ecfe                	sd	t6,88(sp)
   11a2e:	e8c6                	sd	a7,80(sp)
   11a30:	2d6090ef          	jal	ra,1ad06 <__getf2>
   11a34:	7ee2                	ld	t4,56(sp)
   11a36:	6306                	ld	t1,64(sp)
   11a38:	67a6                	ld	a5,72(sp)
   11a3a:	30a04163          	bgtz	a0,11d3c <_vfprintf_r+0x19f8>
   11a3e:	6fe6                	ld	t6,88(sp)
   11a40:	68c6                	ld	a7,80(sp)
   11a42:	76a2                	ld	a3,40(sp)
   11a44:	4601                	li	a2,0
   11a46:	857e                	mv	a0,t6
   11a48:	85c6                	mv	a1,a7
   11a4a:	220090ef          	jal	ra,1ac6a <__eqtf2>
   11a4e:	7ee2                	ld	t4,56(sp)
   11a50:	6306                	ld	t1,64(sp)
   11a52:	67a6                	ld	a5,72(sp)
   11a54:	e509                	bnez	a0,11a5e <_vfprintf_r+0x171a>
   11a56:	0019f993          	andi	s3,s3,1
   11a5a:	2e099163          	bnez	s3,11d3c <_vfprintf_r+0x19f8>
   11a5e:	7726                	ld	a4,104(sp)
   11a60:	03000613          	li	a2,48
   11a64:	00170693          	addi	a3,a4,1
   11a68:	96be                	add	a3,a3,a5
   11a6a:	00075463          	bgez	a4,11a72 <_vfprintf_r+0x172e>
   11a6e:	d0bfe06f          	j	10778 <_vfprintf_r+0x434>
   11a72:	0785                	addi	a5,a5,1
   11a74:	fec78fa3          	sb	a2,-1(a5)
   11a78:	fef69de3          	bne	a3,a5,11a72 <_vfprintf_r+0x172e>
   11a7c:	cfdfe06f          	j	10778 <_vfprintf_r+0x434>
   11a80:	86a2                	mv	a3,s0
   11a82:	b02ff06f          	j	10d84 <_vfprintf_r+0xa40>
   11a86:	7722                	ld	a4,40(sp)
   11a88:	00ed06b3          	add	a3,s10,a4
   11a8c:	fd86f863          	bgeu	a3,s8,1125c <_vfprintf_r+0xf18>
   11a90:	8c36                	mv	s8,a3
   11a92:	fcaff06f          	j	1125c <_vfprintf_r+0xf18>
   11a96:	7706                	ld	a4,96(sp)
   11a98:	57f5                	li	a5,-3
   11a9a:	00f74463          	blt	a4,a5,11aa2 <_vfprintf_r+0x175e>
   11a9e:	0aeed463          	bge	t4,a4,11b46 <_vfprintf_r+0x1802>
   11aa2:	3cf9                	addiw	s9,s9,-2
   11aa4:	fdfcf793          	andi	a5,s9,-33
   11aa8:	f53e                	sd	a5,168(sp)
   11aaa:	cf5fe06f          	j	1079e <_vfprintf_r+0x45a>
   11aae:	11bc                	addi	a5,sp,232
   11ab0:	8776                	mv	a4,t4
   11ab2:	468d                	li	a3,3
   11ab4:	85fe                	mv	a1,t6
   11ab6:	0f810893          	addi	a7,sp,248
   11aba:	0ec10813          	addi	a6,sp,236
   11abe:	8662                	mv	a2,s8
   11ac0:	8556                	mv	a0,s5
   11ac2:	fc1a                	sd	t1,56(sp)
   11ac4:	f476                	sd	t4,40(sp)
   11ac6:	ec7e                	sd	t6,24(sp)
   11ac8:	19c020ef          	jal	ra,13c64 <_ldtoa_r>
   11acc:	00054683          	lbu	a3,0(a0)
   11ad0:	03000793          	li	a5,48
   11ad4:	8d2a                	mv	s10,a0
   11ad6:	6fe2                	ld	t6,24(sp)
   11ad8:	7ea2                	ld	t4,40(sp)
   11ada:	7362                	ld	t1,56(sp)
   11adc:	0ef69563          	bne	a3,a5,11bc6 <_vfprintf_r+0x1882>
   11ae0:	857e                	mv	a0,t6
   11ae2:	4601                	li	a2,0
   11ae4:	4681                	li	a3,0
   11ae6:	85e2                	mv	a1,s8
   11ae8:	fc1a                	sd	t1,56(sp)
   11aea:	f476                	sd	t4,40(sp)
   11aec:	ec7e                	sd	t6,24(sp)
   11aee:	17c090ef          	jal	ra,1ac6a <__eqtf2>
   11af2:	6fe2                	ld	t6,24(sp)
   11af4:	7ea2                	ld	t4,40(sp)
   11af6:	7362                	ld	t1,56(sp)
   11af8:	c579                	beqz	a0,11bc6 <_vfprintf_r+0x1882>
   11afa:	4685                	li	a3,1
   11afc:	41d687bb          	subw	a5,a3,t4
   11b00:	d5be                	sw	a5,232(sp)
   11b02:	01d789b3          	add	s3,a5,t4
   11b06:	99ea                	add	s3,s3,s10
   11b08:	4601                	li	a2,0
   11b0a:	4681                	li	a3,0
   11b0c:	857e                	mv	a0,t6
   11b0e:	85e2                	mv	a1,s8
   11b10:	f41a                	sd	t1,40(sp)
   11b12:	ec76                	sd	t4,24(sp)
   11b14:	156090ef          	jal	ra,1ac6a <__eqtf2>
   11b18:	87ce                	mv	a5,s3
   11b1a:	6ee2                	ld	t4,24(sp)
   11b1c:	7322                	ld	t1,40(sp)
   11b1e:	e119                	bnez	a0,11b24 <_vfprintf_r+0x17e0>
   11b20:	c59fe06f          	j	10778 <_vfprintf_r+0x434>
   11b24:	77ee                	ld	a5,248(sp)
   11b26:	03000613          	li	a2,48
   11b2a:	0137e463          	bltu	a5,s3,11b32 <_vfprintf_r+0x17ee>
   11b2e:	c4bfe06f          	j	10778 <_vfprintf_r+0x434>
   11b32:	00178693          	addi	a3,a5,1
   11b36:	fdb6                	sd	a3,248(sp)
   11b38:	00c78023          	sb	a2,0(a5)
   11b3c:	77ee                	ld	a5,248(sp)
   11b3e:	ff37eae3          	bltu	a5,s3,11b32 <_vfprintf_r+0x17ee>
   11b42:	c37fe06f          	j	10778 <_vfprintf_r+0x434>
   11b46:	77a2                	ld	a5,40(sp)
   11b48:	7706                	ld	a4,96(sp)
   11b4a:	0ef74c63          	blt	a4,a5,11c42 <_vfprintf_r+0x18fe>
   11b4e:	77ca                	ld	a5,176(sp)
   11b50:	8c3a                	mv	s8,a4
   11b52:	8b85                	andi	a5,a5,1
   11b54:	c781                	beqz	a5,11b5c <_vfprintf_r+0x1818>
   11b56:	77e6                	ld	a5,120(sp)
   11b58:	00e78c3b          	addw	s8,a5,a4
   11b5c:	77ca                	ld	a5,176(sp)
   11b5e:	4007f793          	andi	a5,a5,1024
   11b62:	c781                	beqz	a5,11b6a <_vfprintf_r+0x1826>
   11b64:	7786                	ld	a5,96(sp)
   11b66:	26f04863          	bgtz	a5,11dd6 <_vfprintf_r+0x1a92>
   11b6a:	fffc4993          	not	s3,s8
   11b6e:	43f9d993          	srai	s3,s3,0x3f
   11b72:	013c79b3          	and	s3,s8,s3
   11b76:	2981                	sext.w	s3,s3
   11b78:	06700c93          	li	s9,103
   11b7c:	ec82                	sd	zero,88(sp)
   11b7e:	f482                	sd	zero,104(sp)
   11b80:	d05fe06f          	j	10884 <_vfprintf_r+0x540>
   11b84:	0df14783          	lbu	a5,223(sp)
   11b88:	4e81                	li	t4,0
   11b8a:	c399                	beqz	a5,11b90 <_vfprintf_r+0x184c>
   11b8c:	a61fe06f          	j	105ec <_vfprintf_r+0x2a8>
   11b90:	eeffe06f          	j	10a7e <_vfprintf_r+0x73a>
   11b94:	f002                	sd	zero,32(sp)
   11b96:	843e                	mv	s0,a5
   11b98:	57fd                	li	a5,-1
   11b9a:	17fe                	slli	a5,a5,0x3f
   11b9c:	00fc4c33          	xor	s8,s8,a5
   11ba0:	02d00793          	li	a5,45
   11ba4:	e5be                	sd	a5,200(sp)
   11ba6:	b3bd                	j	11914 <_vfprintf_r+0x15d0>
   11ba8:	0a10                	addi	a2,sp,272
   11baa:	85d2                	mv	a1,s4
   11bac:	8556                	mv	a0,s5
   11bae:	51e060ef          	jal	ra,180cc <__sprint_r>
   11bb2:	c119                	beqz	a0,11bb8 <_vfprintf_r+0x1874>
   11bb4:	95ffe06f          	j	10512 <_vfprintf_r+0x1ce>
   11bb8:	77c6                	ld	a5,112(sp)
   11bba:	835a                	mv	t1,s6
   11bbc:	0007c603          	lbu	a2,0(a5)
   11bc0:	7792                	ld	a5,288(sp)
   11bc2:	9c32                	add	s8,s8,a2
   11bc4:	b6bd                	j	11732 <_vfprintf_r+0x13ee>
   11bc6:	57ae                	lw	a5,232(sp)
   11bc8:	01d789b3          	add	s3,a5,t4
   11bcc:	bf2d                	j	11b06 <_vfprintf_r+0x17c2>
   11bce:	0a10                	addi	a2,sp,272
   11bd0:	85d2                	mv	a1,s4
   11bd2:	8556                	mv	a0,s5
   11bd4:	4f8060ef          	jal	ra,180cc <__sprint_r>
   11bd8:	c119                	beqz	a0,11bde <_vfprintf_r+0x189a>
   11bda:	939fe06f          	j	10512 <_vfprintf_r+0x1ce>
   11bde:	56ae                	lw	a3,232(sp)
   11be0:	7792                	ld	a5,288(sp)
   11be2:	835a                	mv	t1,s6
   11be4:	eacff06f          	j	11290 <_vfprintf_r+0xf4c>
   11be8:	02d00793          	li	a5,45
   11bec:	0cf10fa3          	sb	a5,223(sp)
   11bf0:	ba79                	j	1158e <_vfprintf_r+0x124a>
   11bf2:	0df14783          	lbu	a5,223(sp)
   11bf6:	e836                	sd	a3,16(sp)
   11bf8:	ec82                	sd	zero,88(sp)
   11bfa:	f482                	sd	zero,104(sp)
   11bfc:	f082                	sd	zero,96(sp)
   11bfe:	89f6                	mv	s3,t4
   11c00:	8c76                	mv	s8,t4
   11c02:	4e81                	li	t4,0
   11c04:	c399                	beqz	a5,11c0a <_vfprintf_r+0x18c6>
   11c06:	9e7fe06f          	j	105ec <_vfprintf_r+0x2a8>
   11c0a:	e75fe06f          	j	10a7e <_vfprintf_r+0x73a>
   11c0e:	77ca                	ld	a5,176(sp)
   11c10:	7706                	ld	a4,96(sp)
   11c12:	8b85                	andi	a5,a5,1
   11c14:	00fee7b3          	or	a5,t4,a5
   11c18:	2781                	sext.w	a5,a5
   11c1a:	2ce05163          	blez	a4,11edc <_vfprintf_r+0x1b98>
   11c1e:	22079263          	bnez	a5,11e42 <_vfprintf_r+0x1afe>
   11c22:	7c06                	ld	s8,96(sp)
   11c24:	06600c93          	li	s9,102
   11c28:	77ca                	ld	a5,176(sp)
   11c2a:	4007f793          	andi	a5,a5,1024
   11c2e:	1a079663          	bnez	a5,11dda <_vfprintf_r+0x1a96>
   11c32:	fffc4993          	not	s3,s8
   11c36:	43f9d993          	srai	s3,s3,0x3f
   11c3a:	013c79b3          	and	s3,s8,s3
   11c3e:	2981                	sext.w	s3,s3
   11c40:	bf35                	j	11b7c <_vfprintf_r+0x1838>
   11c42:	7722                	ld	a4,40(sp)
   11c44:	77e6                	ld	a5,120(sp)
   11c46:	06700c93          	li	s9,103
   11c4a:	00e78c3b          	addw	s8,a5,a4
   11c4e:	7706                	ld	a4,96(sp)
   11c50:	fce04ce3          	bgtz	a4,11c28 <_vfprintf_r+0x18e4>
   11c54:	40ec07bb          	subw	a5,s8,a4
   11c58:	2785                	addiw	a5,a5,1
   11c5a:	00078c1b          	sext.w	s8,a5
   11c5e:	fffc4993          	not	s3,s8
   11c62:	43f9d993          	srai	s3,s3,0x3f
   11c66:	0137f7b3          	and	a5,a5,s3
   11c6a:	0007899b          	sext.w	s3,a5
   11c6e:	b739                	j	11b7c <_vfprintf_r+0x1838>
   11c70:	0a10                	addi	a2,sp,272
   11c72:	85d2                	mv	a1,s4
   11c74:	8556                	mv	a0,s5
   11c76:	456060ef          	jal	ra,180cc <__sprint_r>
   11c7a:	c119                	beqz	a0,11c80 <_vfprintf_r+0x193c>
   11c7c:	897fe06f          	j	10512 <_vfprintf_r+0x1ce>
   11c80:	562e                	lw	a2,232(sp)
   11c82:	7722                	ld	a4,40(sp)
   11c84:	7792                	ld	a5,288(sp)
   11c86:	835a                	mv	t1,s6
   11c88:	40c7063b          	subw	a2,a4,a2
   11c8c:	e40ff06f          	j	112cc <_vfprintf_r+0xf88>
   11c90:	57fd                	li	a5,-1
   11c92:	e43e                	sd	a5,8(sp)
   11c94:	899fe06f          	j	1052c <_vfprintf_r+0x1e8>
   11c98:	5641                	li	a2,-16
   11c9a:	40b00c3b          	negw	s8,a1
   11c9e:	04c5d063          	bge	a1,a2,11cde <_vfprintf_r+0x199a>
   11ca2:	4c9d                	li	s9,7
   11ca4:	a021                	j	11cac <_vfprintf_r+0x1968>
   11ca6:	3c41                	addiw	s8,s8,-16
   11ca8:	038ddb63          	bge	s11,s8,11cde <_vfprintf_r+0x199a>
   11cac:	2685                	addiw	a3,a3,1
   11cae:	07c1                	addi	a5,a5,16
   11cb0:	01233023          	sd	s2,0(t1)
   11cb4:	01b33423          	sd	s11,8(t1)
   11cb8:	f23e                	sd	a5,288(sp)
   11cba:	10d12c23          	sw	a3,280(sp)
   11cbe:	0341                	addi	t1,t1,16
   11cc0:	fedcd3e3          	bge	s9,a3,11ca6 <_vfprintf_r+0x1962>
   11cc4:	0a10                	addi	a2,sp,272
   11cc6:	85d2                	mv	a1,s4
   11cc8:	8556                	mv	a0,s5
   11cca:	402060ef          	jal	ra,180cc <__sprint_r>
   11cce:	c119                	beqz	a0,11cd4 <_vfprintf_r+0x1990>
   11cd0:	843fe06f          	j	10512 <_vfprintf_r+0x1ce>
   11cd4:	7792                	ld	a5,288(sp)
   11cd6:	11812683          	lw	a3,280(sp)
   11cda:	835a                	mv	t1,s6
   11cdc:	b7e9                	j	11ca6 <_vfprintf_r+0x1962>
   11cde:	2685                	addiw	a3,a3,1
   11ce0:	97e2                	add	a5,a5,s8
   11ce2:	01233023          	sd	s2,0(t1)
   11ce6:	01833423          	sd	s8,8(t1)
   11cea:	f23e                	sd	a5,288(sp)
   11cec:	10d12c23          	sw	a3,280(sp)
   11cf0:	461d                	li	a2,7
   11cf2:	84d65de3          	bge	a2,a3,1154c <_vfprintf_r+0x1208>
   11cf6:	0a10                	addi	a2,sp,272
   11cf8:	85d2                	mv	a1,s4
   11cfa:	8556                	mv	a0,s5
   11cfc:	3d0060ef          	jal	ra,180cc <__sprint_r>
   11d00:	c119                	beqz	a0,11d06 <_vfprintf_r+0x19c2>
   11d02:	811fe06f          	j	10512 <_vfprintf_r+0x1ce>
   11d06:	7792                	ld	a5,288(sp)
   11d08:	11812683          	lw	a3,280(sp)
   11d0c:	835a                	mv	t1,s6
   11d0e:	ed1fe06f          	j	10bde <_vfprintf_r+0x89a>
   11d12:	001e859b          	addiw	a1,t4,1
   11d16:	8556                	mv	a0,s5
   11d18:	f01a                	sd	t1,32(sp)
   11d1a:	ec76                	sd	t4,24(sp)
   11d1c:	000030ef          	jal	ra,14d1c <_malloc_r>
   11d20:	8d2a                	mv	s10,a0
   11d22:	6ee2                	ld	t4,24(sp)
   11d24:	7302                	ld	t1,32(sp)
   11d26:	1e050f63          	beqz	a0,11f24 <_vfprintf_r+0x1be0>
   11d2a:	f02a                	sd	a0,32(sp)
   11d2c:	bec9                	j	118fe <_vfprintf_r+0x15ba>
   11d2e:	03000793          	li	a5,48
   11d32:	0ef10023          	sb	a5,224(sp)
   11d36:	07800713          	li	a4,120
   11d3a:	b66d                	j	118e4 <_vfprintf_r+0x15a0>
   11d3c:	6762                	ld	a4,24(sp)
   11d3e:	86be                	mv	a3,a5
   11d40:	fdba                	sd	a4,248(sp)
   11d42:	7706                	ld	a4,96(sp)
   11d44:	fff7c603          	lbu	a2,-1(a5)
   11d48:	00f74583          	lbu	a1,15(a4)
   11d4c:	00c59e63          	bne	a1,a2,11d68 <_vfprintf_r+0x1a24>
   11d50:	03000513          	li	a0,48
   11d54:	fea68fa3          	sb	a0,-1(a3)
   11d58:	76ee                	ld	a3,248(sp)
   11d5a:	fff68613          	addi	a2,a3,-1
   11d5e:	fdb2                	sd	a2,248(sp)
   11d60:	fff6c603          	lbu	a2,-1(a3)
   11d64:	fec588e3          	beq	a1,a2,11d54 <_vfprintf_r+0x1a10>
   11d68:	0016059b          	addiw	a1,a2,1
   11d6c:	03900513          	li	a0,57
   11d70:	0ff5f593          	andi	a1,a1,255
   11d74:	00a60663          	beq	a2,a0,11d80 <_vfprintf_r+0x1a3c>
   11d78:	feb68fa3          	sb	a1,-1(a3)
   11d7c:	9fdfe06f          	j	10778 <_vfprintf_r+0x434>
   11d80:	7706                	ld	a4,96(sp)
   11d82:	00a74583          	lbu	a1,10(a4)
   11d86:	feb68fa3          	sb	a1,-1(a3)
   11d8a:	9effe06f          	j	10778 <_vfprintf_r+0x434>
   11d8e:	001e899b          	addiw	s3,t4,1
   11d92:	874e                	mv	a4,s3
   11d94:	85fe                	mv	a1,t6
   11d96:	0f810893          	addi	a7,sp,248
   11d9a:	0ec10813          	addi	a6,sp,236
   11d9e:	11bc                	addi	a5,sp,232
   11da0:	4689                	li	a3,2
   11da2:	8662                	mv	a2,s8
   11da4:	8556                	mv	a0,s5
   11da6:	f476                	sd	t4,40(sp)
   11da8:	ec7e                	sd	t6,24(sp)
   11daa:	6bb010ef          	jal	ra,13c64 <_ldtoa_r>
   11dae:	8d2a                	mv	s10,a0
   11db0:	6fe2                	ld	t6,24(sp)
   11db2:	7ea2                	ld	t4,40(sp)
   11db4:	7362                	ld	t1,56(sp)
   11db6:	99ea                	add	s3,s3,s10
   11db8:	bb81                	j	11b08 <_vfprintf_r+0x17c4>
   11dba:	000e8463          	beqz	t4,11dc2 <_vfprintf_r+0x1a7e>
   11dbe:	943fe06f          	j	10700 <_vfprintf_r+0x3bc>
   11dc2:	4e85                	li	t4,1
   11dc4:	93dfe06f          	j	10700 <_vfprintf_r+0x3bc>
   11dc8:	c31c                	sw	a5,0(a4)
   11dca:	8d26                	mv	s10,s1
   11dcc:	d95fe06f          	j	10b60 <_vfprintf_r+0x81c>
   11dd0:	4e99                	li	t4,6
   11dd2:	92ffe06f          	j	10700 <_vfprintf_r+0x3bc>
   11dd6:	06700c93          	li	s9,103
   11dda:	77c6                	ld	a5,112(sp)
   11ddc:	ec82                	sd	zero,88(sp)
   11dde:	f482                	sd	zero,104(sp)
   11de0:	0007c783          	lbu	a5,0(a5)
   11de4:	0ff00593          	li	a1,255
   11de8:	02b78963          	beq	a5,a1,11e1a <_vfprintf_r+0x1ad6>
   11dec:	7706                	ld	a4,96(sp)
   11dee:	0007869b          	sext.w	a3,a5
   11df2:	02e6d463          	bge	a3,a4,11e1a <_vfprintf_r+0x1ad6>
   11df6:	7546                	ld	a0,112(sp)
   11df8:	9f15                	subw	a4,a4,a3
   11dfa:	f0ba                	sd	a4,96(sp)
   11dfc:	00154603          	lbu	a2,1(a0)
   11e00:	ca09                	beqz	a2,11e12 <_vfprintf_r+0x1ace>
   11e02:	77a6                	ld	a5,104(sp)
   11e04:	2785                	addiw	a5,a5,1
   11e06:	f4be                	sd	a5,104(sp)
   11e08:	00150793          	addi	a5,a0,1
   11e0c:	f8be                	sd	a5,112(sp)
   11e0e:	87b2                	mv	a5,a2
   11e10:	bfe1                	j	11de8 <_vfprintf_r+0x1aa4>
   11e12:	6766                	ld	a4,88(sp)
   11e14:	2705                	addiw	a4,a4,1
   11e16:	ecba                	sd	a4,88(sp)
   11e18:	bfc1                	j	11de8 <_vfprintf_r+0x1aa4>
   11e1a:	6766                	ld	a4,88(sp)
   11e1c:	77a6                	ld	a5,104(sp)
   11e1e:	9fb9                	addw	a5,a5,a4
   11e20:	672a                	ld	a4,136(sp)
   11e22:	02e787bb          	mulw	a5,a5,a4
   11e26:	018787bb          	addw	a5,a5,s8
   11e2a:	00078c1b          	sext.w	s8,a5
   11e2e:	fffc4993          	not	s3,s8
   11e32:	43f9d993          	srai	s3,s3,0x3f
   11e36:	0137f7b3          	and	a5,a5,s3
   11e3a:	0007899b          	sext.w	s3,a5
   11e3e:	a47fe06f          	j	10884 <_vfprintf_r+0x540>
   11e42:	77e6                	ld	a5,120(sp)
   11e44:	06600c93          	li	s9,102
   11e48:	00e78c3b          	addw	s8,a5,a4
   11e4c:	01dc0c3b          	addw	s8,s8,t4
   11e50:	bbe1                	j	11c28 <_vfprintf_r+0x18e4>
   11e52:	857e                	mv	a0,t6
   11e54:	85e2                	mv	a1,s8
   11e56:	fc1a                	sd	t1,56(sp)
   11e58:	f476                	sd	t4,40(sp)
   11e5a:	7db090ef          	jal	ra,1be34 <__trunctfdf2>
   11e5e:	11a8                	addi	a0,sp,232
   11e60:	172040ef          	jal	ra,15fd2 <frexp>
   11e64:	70d090ef          	jal	ra,1bd70 <__extenddftf2>
   11e68:	0000a797          	auipc	a5,0xa
   11e6c:	3e878793          	addi	a5,a5,1000 # 1c250 <zeroes.4541+0x30>
   11e70:	6794                	ld	a3,8(a5)
   11e72:	4601                	li	a2,0
   11e74:	7ef080ef          	jal	ra,1ae62 <__multf3>
   11e78:	4601                	li	a2,0
   11e7a:	4681                	li	a3,0
   11e7c:	8c2a                	mv	s8,a0
   11e7e:	ec2e                	sd	a1,24(sp)
   11e80:	5eb080ef          	jal	ra,1ac6a <__eqtf2>
   11e84:	62e2                	ld	t0,24(sp)
   11e86:	7ea2                	ld	t4,40(sp)
   11e88:	7362                	ld	t1,56(sp)
   11e8a:	e119                	bnez	a0,11e90 <_vfprintf_r+0x1b4c>
   11e8c:	4785                	li	a5,1
   11e8e:	d5be                	sw	a5,232(sp)
   11e90:	0000a797          	auipc	a5,0xa
   11e94:	3f078793          	addi	a5,a5,1008 # 1c280 <zeroes.4541+0x60>
   11e98:	f0be                	sd	a5,96(sp)
   11e9a:	bcd9                	j	11970 <_vfprintf_r+0x162c>
   11e9c:	0f210693          	addi	a3,sp,242
   11ea0:	e619                	bnez	a2,11eae <_vfprintf_r+0x1b6a>
   11ea2:	03000693          	li	a3,48
   11ea6:	0ed10923          	sb	a3,242(sp)
   11eaa:	0f310693          	addi	a3,sp,243
   11eae:	0c18                	addi	a4,sp,528
   11eb0:	0307879b          	addiw	a5,a5,48
   11eb4:	40e68633          	sub	a2,a3,a4
   11eb8:	00f68023          	sb	a5,0(a3)
   11ebc:	1216079b          	addiw	a5,a2,289
   11ec0:	e93e                	sd	a5,144(sp)
   11ec2:	989fe06f          	j	1084a <_vfprintf_r+0x506>
   11ec6:	774a                	ld	a4,176(sp)
   11ec8:	00177693          	andi	a3,a4,1
   11ecc:	e299                	bnez	a3,11ed2 <_vfprintf_r+0x1b8e>
   11ece:	997fe06f          	j	10864 <_vfprintf_r+0x520>
   11ed2:	98dfe06f          	j	1085e <_vfprintf_r+0x51a>
   11ed6:	871a                	mv	a4,t1
   11ed8:	d10ff06f          	j	113e8 <_vfprintf_r+0x10a4>
   11edc:	e791                	bnez	a5,11ee8 <_vfprintf_r+0x1ba4>
   11ede:	4985                	li	s3,1
   11ee0:	06600c93          	li	s9,102
   11ee4:	4c05                	li	s8,1
   11ee6:	b959                	j	11b7c <_vfprintf_r+0x1838>
   11ee8:	77e6                	ld	a5,120(sp)
   11eea:	06600c93          	li	s9,102
   11eee:	2785                	addiw	a5,a5,1
   11ef0:	01d78ebb          	addw	t4,a5,t4
   11ef4:	000e8c1b          	sext.w	s8,t4
   11ef8:	fffc4993          	not	s3,s8
   11efc:	43f9d993          	srai	s3,s3,0x3f
   11f00:	013efeb3          	and	t4,t4,s3
   11f04:	000e899b          	sext.w	s3,t4
   11f08:	b995                	j	11b7c <_vfprintf_r+0x1838>
   11f0a:	6742                	ld	a4,16(sp)
   11f0c:	00072e83          	lw	t4,0(a4)
   11f10:	0721                	addi	a4,a4,8
   11f12:	000ed363          	bgez	t4,11f18 <_vfprintf_r+0x1bd4>
   11f16:	5efd                	li	t4,-1
   11f18:	0014cf03          	lbu	t5,1(s1)
   11f1c:	e83a                	sd	a4,16(sp)
   11f1e:	84be                	mv	s1,a5
   11f20:	d64fe06f          	j	10484 <_vfprintf_r+0x140>
   11f24:	010a5783          	lhu	a5,16(s4)
   11f28:	0407e793          	ori	a5,a5,64
   11f2c:	00fa1823          	sh	a5,16(s4)
   11f30:	deefe06f          	j	1051e <_vfprintf_r+0x1da>
   11f34:	89f6                	mv	s3,t4
   11f36:	99ea                	add	s3,s3,s10
   11f38:	bec1                	j	11b08 <_vfprintf_r+0x17c4>
   11f3a:	4789                	li	a5,2
   11f3c:	e93e                	sd	a5,144(sp)
   11f3e:	90dfe06f          	j	1084a <_vfprintf_r+0x506>

0000000000011f42 <vfprintf>:
   11f42:	75818793          	addi	a5,gp,1880 # 1eef8 <_impure_ptr>
   11f46:	86b2                	mv	a3,a2
   11f48:	862e                	mv	a2,a1
   11f4a:	85aa                	mv	a1,a0
   11f4c:	6388                	ld	a0,0(a5)
   11f4e:	bf6fe06f          	j	10344 <_vfprintf_r>

0000000000011f52 <__sbprintf>:
   11f52:	0105d783          	lhu	a5,16(a1)
   11f56:	0ac5ae03          	lw	t3,172(a1)
   11f5a:	0125d303          	lhu	t1,18(a1)
   11f5e:	0305b883          	ld	a7,48(a1)
   11f62:	0405b803          	ld	a6,64(a1)
   11f66:	b3010113          	addi	sp,sp,-1232
   11f6a:	9bf5                	andi	a5,a5,-3
   11f6c:	40000713          	li	a4,1024
   11f70:	4c813023          	sd	s0,1216(sp)
   11f74:	00f11823          	sh	a5,16(sp)
   11f78:	842e                	mv	s0,a1
   11f7a:	191c                	addi	a5,sp,176
   11f7c:	858a                	mv	a1,sp
   11f7e:	4a913c23          	sd	s1,1208(sp)
   11f82:	4b213823          	sd	s2,1200(sp)
   11f86:	4c113423          	sd	ra,1224(sp)
   11f8a:	892a                	mv	s2,a0
   11f8c:	d772                	sw	t3,172(sp)
   11f8e:	00611923          	sh	t1,18(sp)
   11f92:	f846                	sd	a7,48(sp)
   11f94:	e0c2                	sd	a6,64(sp)
   11f96:	e03e                	sd	a5,0(sp)
   11f98:	ec3e                	sd	a5,24(sp)
   11f9a:	c63a                	sw	a4,12(sp)
   11f9c:	d03a                	sw	a4,32(sp)
   11f9e:	d402                	sw	zero,40(sp)
   11fa0:	ba4fe0ef          	jal	ra,10344 <_vfprintf_r>
   11fa4:	84aa                	mv	s1,a0
   11fa6:	02055963          	bgez	a0,11fd8 <__sbprintf+0x86>
   11faa:	01015783          	lhu	a5,16(sp)
   11fae:	0407f793          	andi	a5,a5,64
   11fb2:	c799                	beqz	a5,11fc0 <__sbprintf+0x6e>
   11fb4:	01045783          	lhu	a5,16(s0)
   11fb8:	0407e793          	ori	a5,a5,64
   11fbc:	00f41823          	sh	a5,16(s0)
   11fc0:	4c813083          	ld	ra,1224(sp)
   11fc4:	4c013403          	ld	s0,1216(sp)
   11fc8:	8526                	mv	a0,s1
   11fca:	4b013903          	ld	s2,1200(sp)
   11fce:	4b813483          	ld	s1,1208(sp)
   11fd2:	4d010113          	addi	sp,sp,1232
   11fd6:	8082                	ret
   11fd8:	858a                	mv	a1,sp
   11fda:	854a                	mv	a0,s2
   11fdc:	3ce000ef          	jal	ra,123aa <_fflush_r>
   11fe0:	d569                	beqz	a0,11faa <__sbprintf+0x58>
   11fe2:	54fd                	li	s1,-1
   11fe4:	b7d9                	j	11faa <__sbprintf+0x58>

0000000000011fe6 <__swsetup_r>:
   11fe6:	75818793          	addi	a5,gp,1880 # 1eef8 <_impure_ptr>
   11fea:	639c                	ld	a5,0(a5)
   11fec:	1101                	addi	sp,sp,-32
   11fee:	e822                	sd	s0,16(sp)
   11ff0:	e426                	sd	s1,8(sp)
   11ff2:	ec06                	sd	ra,24(sp)
   11ff4:	84aa                	mv	s1,a0
   11ff6:	842e                	mv	s0,a1
   11ff8:	c399                	beqz	a5,11ffe <__swsetup_r+0x18>
   11ffa:	4bb8                	lw	a4,80(a5)
   11ffc:	cf29                	beqz	a4,12056 <__swsetup_r+0x70>
   11ffe:	01041703          	lh	a4,16(s0)
   12002:	03071793          	slli	a5,a4,0x30
   12006:	93c1                	srli	a5,a5,0x30
   12008:	0087f693          	andi	a3,a5,8
   1200c:	c2a5                	beqz	a3,1206c <__swsetup_r+0x86>
   1200e:	6c14                	ld	a3,24(s0)
   12010:	cabd                	beqz	a3,12086 <__swsetup_r+0xa0>
   12012:	0017f713          	andi	a4,a5,1
   12016:	cf11                	beqz	a4,12032 <__swsetup_r+0x4c>
   12018:	501c                	lw	a5,32(s0)
   1201a:	00042623          	sw	zero,12(s0)
   1201e:	4501                	li	a0,0
   12020:	40f007bb          	negw	a5,a5
   12024:	d41c                	sw	a5,40(s0)
   12026:	ce89                	beqz	a3,12040 <__swsetup_r+0x5a>
   12028:	60e2                	ld	ra,24(sp)
   1202a:	6442                	ld	s0,16(sp)
   1202c:	64a2                	ld	s1,8(sp)
   1202e:	6105                	addi	sp,sp,32
   12030:	8082                	ret
   12032:	8b89                	andi	a5,a5,2
   12034:	4701                	li	a4,0
   12036:	e391                	bnez	a5,1203a <__swsetup_r+0x54>
   12038:	5018                	lw	a4,32(s0)
   1203a:	c458                	sw	a4,12(s0)
   1203c:	4501                	li	a0,0
   1203e:	f6ed                	bnez	a3,12028 <__swsetup_r+0x42>
   12040:	01041783          	lh	a5,16(s0)
   12044:	0807f713          	andi	a4,a5,128
   12048:	d365                	beqz	a4,12028 <__swsetup_r+0x42>
   1204a:	0407e793          	ori	a5,a5,64
   1204e:	00f41823          	sh	a5,16(s0)
   12052:	557d                	li	a0,-1
   12054:	bfd1                	j	12028 <__swsetup_r+0x42>
   12056:	853e                	mv	a0,a5
   12058:	5f2000ef          	jal	ra,1264a <__sinit>
   1205c:	01041703          	lh	a4,16(s0)
   12060:	03071793          	slli	a5,a4,0x30
   12064:	93c1                	srli	a5,a5,0x30
   12066:	0087f693          	andi	a3,a5,8
   1206a:	f2d5                	bnez	a3,1200e <__swsetup_r+0x28>
   1206c:	0107f693          	andi	a3,a5,16
   12070:	cea9                	beqz	a3,120ca <__swsetup_r+0xe4>
   12072:	8b91                	andi	a5,a5,4
   12074:	e79d                	bnez	a5,120a2 <__swsetup_r+0xbc>
   12076:	6c14                	ld	a3,24(s0)
   12078:	00876793          	ori	a5,a4,8
   1207c:	00f41823          	sh	a5,16(s0)
   12080:	17c2                	slli	a5,a5,0x30
   12082:	93c1                	srli	a5,a5,0x30
   12084:	f6d9                	bnez	a3,12012 <__swsetup_r+0x2c>
   12086:	2807f713          	andi	a4,a5,640
   1208a:	20000613          	li	a2,512
   1208e:	f8c702e3          	beq	a4,a2,12012 <__swsetup_r+0x2c>
   12092:	85a2                	mv	a1,s0
   12094:	8526                	mv	a0,s1
   12096:	3cb020ef          	jal	ra,14c60 <__smakebuf_r>
   1209a:	01045783          	lhu	a5,16(s0)
   1209e:	6c14                	ld	a3,24(s0)
   120a0:	bf8d                	j	12012 <__swsetup_r+0x2c>
   120a2:	6c2c                	ld	a1,88(s0)
   120a4:	cd81                	beqz	a1,120bc <__swsetup_r+0xd6>
   120a6:	07440793          	addi	a5,s0,116
   120aa:	00f58763          	beq	a1,a5,120b8 <__swsetup_r+0xd2>
   120ae:	8526                	mv	a0,s1
   120b0:	6a2000ef          	jal	ra,12752 <_free_r>
   120b4:	01041703          	lh	a4,16(s0)
   120b8:	04043c23          	sd	zero,88(s0)
   120bc:	6c14                	ld	a3,24(s0)
   120be:	fdb77713          	andi	a4,a4,-37
   120c2:	00042423          	sw	zero,8(s0)
   120c6:	e014                	sd	a3,0(s0)
   120c8:	bf45                	j	12078 <__swsetup_r+0x92>
   120ca:	47a5                	li	a5,9
   120cc:	c09c                	sw	a5,0(s1)
   120ce:	04076713          	ori	a4,a4,64
   120d2:	00e41823          	sh	a4,16(s0)
   120d6:	557d                	li	a0,-1
   120d8:	bf81                	j	12028 <__swsetup_r+0x42>

00000000000120da <__register_exitproc>:
   120da:	74818793          	addi	a5,gp,1864 # 1eee8 <_global_impure_ptr>
   120de:	6398                	ld	a4,0(a5)
   120e0:	1f873783          	ld	a5,504(a4)
   120e4:	c3b1                	beqz	a5,12128 <__register_exitproc+0x4e>
   120e6:	4798                	lw	a4,8(a5)
   120e8:	487d                	li	a6,31
   120ea:	06e84263          	blt	a6,a4,1214e <__register_exitproc+0x74>
   120ee:	c505                	beqz	a0,12116 <__register_exitproc+0x3c>
   120f0:	00371813          	slli	a6,a4,0x3
   120f4:	983e                	add	a6,a6,a5
   120f6:	10c83823          	sd	a2,272(a6)
   120fa:	3107a883          	lw	a7,784(a5)
   120fe:	4605                	li	a2,1
   12100:	00e6163b          	sllw	a2,a2,a4
   12104:	00c8e8b3          	or	a7,a7,a2
   12108:	3117a823          	sw	a7,784(a5)
   1210c:	20d83823          	sd	a3,528(a6)
   12110:	4689                	li	a3,2
   12112:	02d50063          	beq	a0,a3,12132 <__register_exitproc+0x58>
   12116:	00270693          	addi	a3,a4,2
   1211a:	068e                	slli	a3,a3,0x3
   1211c:	2705                	addiw	a4,a4,1
   1211e:	c798                	sw	a4,8(a5)
   12120:	97b6                	add	a5,a5,a3
   12122:	e38c                	sd	a1,0(a5)
   12124:	4501                	li	a0,0
   12126:	8082                	ret
   12128:	20070793          	addi	a5,a4,512
   1212c:	1ef73c23          	sd	a5,504(a4)
   12130:	bf5d                	j	120e6 <__register_exitproc+0xc>
   12132:	3147a683          	lw	a3,788(a5)
   12136:	4501                	li	a0,0
   12138:	8e55                	or	a2,a2,a3
   1213a:	00270693          	addi	a3,a4,2
   1213e:	068e                	slli	a3,a3,0x3
   12140:	2705                	addiw	a4,a4,1
   12142:	30c7aa23          	sw	a2,788(a5)
   12146:	c798                	sw	a4,8(a5)
   12148:	97b6                	add	a5,a5,a3
   1214a:	e38c                	sd	a1,0(a5)
   1214c:	8082                	ret
   1214e:	557d                	li	a0,-1
   12150:	8082                	ret

0000000000012152 <__call_exitprocs>:
   12152:	715d                	addi	sp,sp,-80
   12154:	74818793          	addi	a5,gp,1864 # 1eee8 <_global_impure_ptr>
   12158:	e062                	sd	s8,0(sp)
   1215a:	0007bc03          	ld	s8,0(a5)
   1215e:	f44e                	sd	s3,40(sp)
   12160:	f052                	sd	s4,32(sp)
   12162:	ec56                	sd	s5,24(sp)
   12164:	e85a                	sd	s6,16(sp)
   12166:	e486                	sd	ra,72(sp)
   12168:	e0a2                	sd	s0,64(sp)
   1216a:	fc26                	sd	s1,56(sp)
   1216c:	f84a                	sd	s2,48(sp)
   1216e:	e45e                	sd	s7,8(sp)
   12170:	8aaa                	mv	s5,a0
   12172:	8b2e                	mv	s6,a1
   12174:	4a05                	li	s4,1
   12176:	59fd                	li	s3,-1
   12178:	1f8c3903          	ld	s2,504(s8)
   1217c:	02090463          	beqz	s2,121a4 <__call_exitprocs+0x52>
   12180:	00892483          	lw	s1,8(s2)
   12184:	fff4841b          	addiw	s0,s1,-1
   12188:	00044e63          	bltz	s0,121a4 <__call_exitprocs+0x52>
   1218c:	048e                	slli	s1,s1,0x3
   1218e:	94ca                	add	s1,s1,s2
   12190:	020b0663          	beqz	s6,121bc <__call_exitprocs+0x6a>
   12194:	2084b783          	ld	a5,520(s1)
   12198:	03678263          	beq	a5,s6,121bc <__call_exitprocs+0x6a>
   1219c:	347d                	addiw	s0,s0,-1
   1219e:	14e1                	addi	s1,s1,-8
   121a0:	ff3418e3          	bne	s0,s3,12190 <__call_exitprocs+0x3e>
   121a4:	60a6                	ld	ra,72(sp)
   121a6:	6406                	ld	s0,64(sp)
   121a8:	74e2                	ld	s1,56(sp)
   121aa:	7942                	ld	s2,48(sp)
   121ac:	79a2                	ld	s3,40(sp)
   121ae:	7a02                	ld	s4,32(sp)
   121b0:	6ae2                	ld	s5,24(sp)
   121b2:	6b42                	ld	s6,16(sp)
   121b4:	6ba2                	ld	s7,8(sp)
   121b6:	6c02                	ld	s8,0(sp)
   121b8:	6161                	addi	sp,sp,80
   121ba:	8082                	ret
   121bc:	00892783          	lw	a5,8(s2)
   121c0:	6498                	ld	a4,8(s1)
   121c2:	37fd                	addiw	a5,a5,-1
   121c4:	04878263          	beq	a5,s0,12208 <__call_exitprocs+0xb6>
   121c8:	0004b423          	sd	zero,8(s1)
   121cc:	db61                	beqz	a4,1219c <__call_exitprocs+0x4a>
   121ce:	31092783          	lw	a5,784(s2)
   121d2:	008a16bb          	sllw	a3,s4,s0
   121d6:	00892b83          	lw	s7,8(s2)
   121da:	8ff5                	and	a5,a5,a3
   121dc:	2781                	sext.w	a5,a5
   121de:	eb99                	bnez	a5,121f4 <__call_exitprocs+0xa2>
   121e0:	9702                	jalr	a4
   121e2:	00892783          	lw	a5,8(s2)
   121e6:	f97799e3          	bne	a5,s7,12178 <__call_exitprocs+0x26>
   121ea:	1f8c3783          	ld	a5,504(s8)
   121ee:	fb2787e3          	beq	a5,s2,1219c <__call_exitprocs+0x4a>
   121f2:	b759                	j	12178 <__call_exitprocs+0x26>
   121f4:	31492783          	lw	a5,788(s2)
   121f8:	1084b583          	ld	a1,264(s1)
   121fc:	8ff5                	and	a5,a5,a3
   121fe:	2781                	sext.w	a5,a5
   12200:	e799                	bnez	a5,1220e <__call_exitprocs+0xbc>
   12202:	8556                	mv	a0,s5
   12204:	9702                	jalr	a4
   12206:	bff1                	j	121e2 <__call_exitprocs+0x90>
   12208:	00892423          	sw	s0,8(s2)
   1220c:	b7c1                	j	121cc <__call_exitprocs+0x7a>
   1220e:	852e                	mv	a0,a1
   12210:	9702                	jalr	a4
   12212:	bfc1                	j	121e2 <__call_exitprocs+0x90>

0000000000012214 <__sflush_r>:
   12214:	01059783          	lh	a5,16(a1)
   12218:	7179                	addi	sp,sp,-48
   1221a:	f022                	sd	s0,32(sp)
   1221c:	03079713          	slli	a4,a5,0x30
   12220:	9341                	srli	a4,a4,0x30
   12222:	e44e                	sd	s3,8(sp)
   12224:	f406                	sd	ra,40(sp)
   12226:	ec26                	sd	s1,24(sp)
   12228:	e84a                	sd	s2,16(sp)
   1222a:	00877693          	andi	a3,a4,8
   1222e:	842e                	mv	s0,a1
   12230:	89aa                	mv	s3,a0
   12232:	eadd                	bnez	a3,122e8 <__sflush_r+0xd4>
   12234:	6705                	lui	a4,0x1
   12236:	80070713          	addi	a4,a4,-2048 # 800 <register_fini-0xf8b0>
   1223a:	4594                	lw	a3,8(a1)
   1223c:	8fd9                	or	a5,a5,a4
   1223e:	00f59823          	sh	a5,16(a1)
   12242:	0ed05e63          	blez	a3,1233e <__sflush_r+0x12a>
   12246:	6438                	ld	a4,72(s0)
   12248:	cb41                	beqz	a4,122d8 <__sflush_r+0xc4>
   1224a:	17c2                	slli	a5,a5,0x30
   1224c:	93c1                	srli	a5,a5,0x30
   1224e:	0009a483          	lw	s1,0(s3)
   12252:	03379693          	slli	a3,a5,0x33
   12256:	0009a023          	sw	zero,0(s3)
   1225a:	780c                	ld	a1,48(s0)
   1225c:	0e06c563          	bltz	a3,12346 <__sflush_r+0x132>
   12260:	4601                	li	a2,0
   12262:	4685                	li	a3,1
   12264:	854e                	mv	a0,s3
   12266:	9702                	jalr	a4
   12268:	57fd                	li	a5,-1
   1226a:	862a                	mv	a2,a0
   1226c:	10f50563          	beq	a0,a5,12376 <__sflush_r+0x162>
   12270:	01045783          	lhu	a5,16(s0)
   12274:	6438                	ld	a4,72(s0)
   12276:	780c                	ld	a1,48(s0)
   12278:	8b91                	andi	a5,a5,4
   1227a:	c799                	beqz	a5,12288 <__sflush_r+0x74>
   1227c:	4414                	lw	a3,8(s0)
   1227e:	6c3c                	ld	a5,88(s0)
   12280:	8e15                	sub	a2,a2,a3
   12282:	c399                	beqz	a5,12288 <__sflush_r+0x74>
   12284:	583c                	lw	a5,112(s0)
   12286:	8e1d                	sub	a2,a2,a5
   12288:	4681                	li	a3,0
   1228a:	854e                	mv	a0,s3
   1228c:	9702                	jalr	a4
   1228e:	57fd                	li	a5,-1
   12290:	0af51d63          	bne	a0,a5,1234a <__sflush_r+0x136>
   12294:	0009a703          	lw	a4,0(s3)
   12298:	01041783          	lh	a5,16(s0)
   1229c:	cb7d                	beqz	a4,12392 <__sflush_r+0x17e>
   1229e:	46f5                	li	a3,29
   122a0:	00d70563          	beq	a4,a3,122aa <__sflush_r+0x96>
   122a4:	46d9                	li	a3,22
   122a6:	0ed71c63          	bne	a4,a3,1239e <__sflush_r+0x18a>
   122aa:	6c14                	ld	a3,24(s0)
   122ac:	777d                	lui	a4,0xfffff
   122ae:	7ff70713          	addi	a4,a4,2047 # fffffffffffff7ff <__BSS_END__+0xfffffffffffe085f>
   122b2:	8ff9                	and	a5,a5,a4
   122b4:	00f41823          	sh	a5,16(s0)
   122b8:	00042423          	sw	zero,8(s0)
   122bc:	e014                	sd	a3,0(s0)
   122be:	6c2c                	ld	a1,88(s0)
   122c0:	0099a023          	sw	s1,0(s3)
   122c4:	c991                	beqz	a1,122d8 <__sflush_r+0xc4>
   122c6:	07440793          	addi	a5,s0,116
   122ca:	00f58563          	beq	a1,a5,122d4 <__sflush_r+0xc0>
   122ce:	854e                	mv	a0,s3
   122d0:	482000ef          	jal	ra,12752 <_free_r>
   122d4:	04043c23          	sd	zero,88(s0)
   122d8:	4501                	li	a0,0
   122da:	70a2                	ld	ra,40(sp)
   122dc:	7402                	ld	s0,32(sp)
   122de:	64e2                	ld	s1,24(sp)
   122e0:	6942                	ld	s2,16(sp)
   122e2:	69a2                	ld	s3,8(sp)
   122e4:	6145                	addi	sp,sp,48
   122e6:	8082                	ret
   122e8:	0185b903          	ld	s2,24(a1)
   122ec:	fe0906e3          	beqz	s2,122d8 <__sflush_r+0xc4>
   122f0:	6184                	ld	s1,0(a1)
   122f2:	8b0d                	andi	a4,a4,3
   122f4:	0125b023          	sd	s2,0(a1)
   122f8:	412484bb          	subw	s1,s1,s2
   122fc:	4781                	li	a5,0
   122fe:	e311                	bnez	a4,12302 <__sflush_r+0xee>
   12300:	519c                	lw	a5,32(a1)
   12302:	c45c                	sw	a5,12(s0)
   12304:	00904663          	bgtz	s1,12310 <__sflush_r+0xfc>
   12308:	bfc1                	j	122d8 <__sflush_r+0xc4>
   1230a:	992a                	add	s2,s2,a0
   1230c:	fc9056e3          	blez	s1,122d8 <__sflush_r+0xc4>
   12310:	603c                	ld	a5,64(s0)
   12312:	780c                	ld	a1,48(s0)
   12314:	86a6                	mv	a3,s1
   12316:	864a                	mv	a2,s2
   12318:	854e                	mv	a0,s3
   1231a:	9782                	jalr	a5
   1231c:	9c89                	subw	s1,s1,a0
   1231e:	fea046e3          	bgtz	a0,1230a <__sflush_r+0xf6>
   12322:	01045783          	lhu	a5,16(s0)
   12326:	70a2                	ld	ra,40(sp)
   12328:	64e2                	ld	s1,24(sp)
   1232a:	0407e793          	ori	a5,a5,64
   1232e:	00f41823          	sh	a5,16(s0)
   12332:	7402                	ld	s0,32(sp)
   12334:	6942                	ld	s2,16(sp)
   12336:	69a2                	ld	s3,8(sp)
   12338:	557d                	li	a0,-1
   1233a:	6145                	addi	sp,sp,48
   1233c:	8082                	ret
   1233e:	59b8                	lw	a4,112(a1)
   12340:	f0e043e3          	bgtz	a4,12246 <__sflush_r+0x32>
   12344:	bf51                	j	122d8 <__sflush_r+0xc4>
   12346:	6850                	ld	a2,144(s0)
   12348:	bf05                	j	12278 <__sflush_r+0x64>
   1234a:	01045783          	lhu	a5,16(s0)
   1234e:	777d                	lui	a4,0xfffff
   12350:	7ff70713          	addi	a4,a4,2047 # fffffffffffff7ff <__BSS_END__+0xfffffffffffe085f>
   12354:	8ff9                	and	a5,a5,a4
   12356:	6c14                	ld	a3,24(s0)
   12358:	0107979b          	slliw	a5,a5,0x10
   1235c:	4107d79b          	sraiw	a5,a5,0x10
   12360:	00f41823          	sh	a5,16(s0)
   12364:	00042423          	sw	zero,8(s0)
   12368:	e014                	sd	a3,0(s0)
   1236a:	03379713          	slli	a4,a5,0x33
   1236e:	f40758e3          	bgez	a4,122be <__sflush_r+0xaa>
   12372:	e848                	sd	a0,144(s0)
   12374:	b7a9                	j	122be <__sflush_r+0xaa>
   12376:	0009a783          	lw	a5,0(s3)
   1237a:	ee078be3          	beqz	a5,12270 <__sflush_r+0x5c>
   1237e:	4775                	li	a4,29
   12380:	00e78563          	beq	a5,a4,1238a <__sflush_r+0x176>
   12384:	4759                	li	a4,22
   12386:	f8e79ee3          	bne	a5,a4,12322 <__sflush_r+0x10e>
   1238a:	0099a023          	sw	s1,0(s3)
   1238e:	4501                	li	a0,0
   12390:	b7a9                	j	122da <__sflush_r+0xc6>
   12392:	777d                	lui	a4,0xfffff
   12394:	7ff70713          	addi	a4,a4,2047 # fffffffffffff7ff <__BSS_END__+0xfffffffffffe085f>
   12398:	6c14                	ld	a3,24(s0)
   1239a:	8ff9                	and	a5,a5,a4
   1239c:	b7d1                	j	12360 <__sflush_r+0x14c>
   1239e:	0407e793          	ori	a5,a5,64
   123a2:	00f41823          	sh	a5,16(s0)
   123a6:	557d                	li	a0,-1
   123a8:	bf0d                	j	122da <__sflush_r+0xc6>

00000000000123aa <_fflush_r>:
   123aa:	1101                	addi	sp,sp,-32
   123ac:	e822                	sd	s0,16(sp)
   123ae:	ec06                	sd	ra,24(sp)
   123b0:	842a                	mv	s0,a0
   123b2:	c119                	beqz	a0,123b8 <_fflush_r+0xe>
   123b4:	493c                	lw	a5,80(a0)
   123b6:	cb89                	beqz	a5,123c8 <_fflush_r+0x1e>
   123b8:	01059783          	lh	a5,16(a1)
   123bc:	ef89                	bnez	a5,123d6 <_fflush_r+0x2c>
   123be:	60e2                	ld	ra,24(sp)
   123c0:	6442                	ld	s0,16(sp)
   123c2:	4501                	li	a0,0
   123c4:	6105                	addi	sp,sp,32
   123c6:	8082                	ret
   123c8:	e42e                	sd	a1,8(sp)
   123ca:	280000ef          	jal	ra,1264a <__sinit>
   123ce:	65a2                	ld	a1,8(sp)
   123d0:	01059783          	lh	a5,16(a1)
   123d4:	d7ed                	beqz	a5,123be <_fflush_r+0x14>
   123d6:	8522                	mv	a0,s0
   123d8:	6442                	ld	s0,16(sp)
   123da:	60e2                	ld	ra,24(sp)
   123dc:	6105                	addi	sp,sp,32
   123de:	bd1d                	j	12214 <__sflush_r>

00000000000123e0 <fflush>:
   123e0:	85aa                	mv	a1,a0
   123e2:	c509                	beqz	a0,123ec <fflush+0xc>
   123e4:	75818793          	addi	a5,gp,1880 # 1eef8 <_impure_ptr>
   123e8:	6388                	ld	a0,0(a5)
   123ea:	b7c1                	j	123aa <_fflush_r>
   123ec:	74818793          	addi	a5,gp,1864 # 1eee8 <_global_impure_ptr>
   123f0:	6388                	ld	a0,0(a5)
   123f2:	00000597          	auipc	a1,0x0
   123f6:	fb858593          	addi	a1,a1,-72 # 123aa <_fflush_r>
   123fa:	a5b1                	j	12a46 <_fwalk_reent>

00000000000123fc <__fp_lock>:
   123fc:	4501                	li	a0,0
   123fe:	8082                	ret

0000000000012400 <_cleanup_r>:
   12400:	00007597          	auipc	a1,0x7
   12404:	b2058593          	addi	a1,a1,-1248 # 18f20 <_fclose_r>
   12408:	ad3d                	j	12a46 <_fwalk_reent>

000000000001240a <__sinit.part.0>:
   1240a:	7139                	addi	sp,sp,-64
   1240c:	fc06                	sd	ra,56(sp)
   1240e:	f822                	sd	s0,48(sp)
   12410:	f426                	sd	s1,40(sp)
   12412:	f04a                	sd	s2,32(sp)
   12414:	ec4e                	sd	s3,24(sp)
   12416:	e852                	sd	s4,16(sp)
   12418:	e456                	sd	s5,8(sp)
   1241a:	e05a                	sd	s6,0(sp)
   1241c:	6500                	ld	s0,8(a0)
   1241e:	00000717          	auipc	a4,0x0
   12422:	fe270713          	addi	a4,a4,-30 # 12400 <_cleanup_r>
   12426:	ed38                	sd	a4,88(a0)
   12428:	53850793          	addi	a5,a0,1336
   1242c:	470d                	li	a4,3
   1242e:	52e52423          	sw	a4,1320(a0)
   12432:	52f53823          	sd	a5,1328(a0)
   12436:	52053023          	sd	zero,1312(a0)
   1243a:	4791                	li	a5,4
   1243c:	892a                	mv	s2,a0
   1243e:	c81c                	sw	a5,16(s0)
   12440:	4621                	li	a2,8
   12442:	4581                	li	a1,0
   12444:	0a042623          	sw	zero,172(s0)
   12448:	00043023          	sd	zero,0(s0)
   1244c:	00043423          	sd	zero,8(s0)
   12450:	00043c23          	sd	zero,24(s0)
   12454:	02042023          	sw	zero,32(s0)
   12458:	02042423          	sw	zero,40(s0)
   1245c:	0a440513          	addi	a0,s0,164
   12460:	de5fd0ef          	jal	ra,10244 <memset>
   12464:	01093483          	ld	s1,16(s2)
   12468:	00004b17          	auipc	s6,0x4
   1246c:	c7ab0b13          	addi	s6,s6,-902 # 160e2 <__sread>
   12470:	00004a97          	auipc	s5,0x4
   12474:	caea8a93          	addi	s5,s5,-850 # 1611e <__swrite>
   12478:	00004a17          	auipc	s4,0x4
   1247c:	cfaa0a13          	addi	s4,s4,-774 # 16172 <__sseek>
   12480:	00004997          	auipc	s3,0x4
   12484:	d3498993          	addi	s3,s3,-716 # 161b4 <__sclose>
   12488:	67c1                	lui	a5,0x10
   1248a:	03643c23          	sd	s6,56(s0)
   1248e:	05543023          	sd	s5,64(s0)
   12492:	05443423          	sd	s4,72(s0)
   12496:	05343823          	sd	s3,80(s0)
   1249a:	f800                	sd	s0,48(s0)
   1249c:	07a5                	addi	a5,a5,9
   1249e:	c89c                	sw	a5,16(s1)
   124a0:	4621                	li	a2,8
   124a2:	4581                	li	a1,0
   124a4:	0a04a623          	sw	zero,172(s1)
   124a8:	0004b023          	sd	zero,0(s1)
   124ac:	0004b423          	sd	zero,8(s1)
   124b0:	0004bc23          	sd	zero,24(s1)
   124b4:	0204a023          	sw	zero,32(s1)
   124b8:	0204a423          	sw	zero,40(s1)
   124bc:	0a448513          	addi	a0,s1,164
   124c0:	d85fd0ef          	jal	ra,10244 <memset>
   124c4:	01893403          	ld	s0,24(s2)
   124c8:	000207b7          	lui	a5,0x20
   124cc:	0364bc23          	sd	s6,56(s1)
   124d0:	0554b023          	sd	s5,64(s1)
   124d4:	0544b423          	sd	s4,72(s1)
   124d8:	0534b823          	sd	s3,80(s1)
   124dc:	f884                	sd	s1,48(s1)
   124de:	07c9                	addi	a5,a5,18
   124e0:	c81c                	sw	a5,16(s0)
   124e2:	0a042623          	sw	zero,172(s0)
   124e6:	00043023          	sd	zero,0(s0)
   124ea:	00043423          	sd	zero,8(s0)
   124ee:	00043c23          	sd	zero,24(s0)
   124f2:	02042023          	sw	zero,32(s0)
   124f6:	02042423          	sw	zero,40(s0)
   124fa:	0a440513          	addi	a0,s0,164
   124fe:	4621                	li	a2,8
   12500:	4581                	li	a1,0
   12502:	d43fd0ef          	jal	ra,10244 <memset>
   12506:	70e2                	ld	ra,56(sp)
   12508:	03643c23          	sd	s6,56(s0)
   1250c:	05543023          	sd	s5,64(s0)
   12510:	05443423          	sd	s4,72(s0)
   12514:	05343823          	sd	s3,80(s0)
   12518:	f800                	sd	s0,48(s0)
   1251a:	7442                	ld	s0,48(sp)
   1251c:	4785                	li	a5,1
   1251e:	04f92823          	sw	a5,80(s2)
   12522:	74a2                	ld	s1,40(sp)
   12524:	7902                	ld	s2,32(sp)
   12526:	69e2                	ld	s3,24(sp)
   12528:	6a42                	ld	s4,16(sp)
   1252a:	6aa2                	ld	s5,8(sp)
   1252c:	6b02                	ld	s6,0(sp)
   1252e:	6121                	addi	sp,sp,64
   12530:	8082                	ret

0000000000012532 <__fp_unlock>:
   12532:	4501                	li	a0,0
   12534:	8082                	ret

0000000000012536 <__sfmoreglue>:
   12536:	1101                	addi	sp,sp,-32
   12538:	e426                	sd	s1,8(sp)
   1253a:	0b000613          	li	a2,176
   1253e:	fff5849b          	addiw	s1,a1,-1
   12542:	02c484b3          	mul	s1,s1,a2
   12546:	e04a                	sd	s2,0(sp)
   12548:	892e                	mv	s2,a1
   1254a:	e822                	sd	s0,16(sp)
   1254c:	ec06                	sd	ra,24(sp)
   1254e:	0c848593          	addi	a1,s1,200
   12552:	7ca020ef          	jal	ra,14d1c <_malloc_r>
   12556:	842a                	mv	s0,a0
   12558:	cd01                	beqz	a0,12570 <__sfmoreglue+0x3a>
   1255a:	0561                	addi	a0,a0,24
   1255c:	00043023          	sd	zero,0(s0)
   12560:	01242423          	sw	s2,8(s0)
   12564:	e808                	sd	a0,16(s0)
   12566:	0b048613          	addi	a2,s1,176
   1256a:	4581                	li	a1,0
   1256c:	cd9fd0ef          	jal	ra,10244 <memset>
   12570:	8522                	mv	a0,s0
   12572:	60e2                	ld	ra,24(sp)
   12574:	6442                	ld	s0,16(sp)
   12576:	64a2                	ld	s1,8(sp)
   12578:	6902                	ld	s2,0(sp)
   1257a:	6105                	addi	sp,sp,32
   1257c:	8082                	ret

000000000001257e <__sfp>:
   1257e:	7179                	addi	sp,sp,-48
   12580:	74818793          	addi	a5,gp,1864 # 1eee8 <_global_impure_ptr>
   12584:	ec26                	sd	s1,24(sp)
   12586:	6384                	ld	s1,0(a5)
   12588:	e44e                	sd	s3,8(sp)
   1258a:	f406                	sd	ra,40(sp)
   1258c:	48bc                	lw	a5,80(s1)
   1258e:	f022                	sd	s0,32(sp)
   12590:	e84a                	sd	s2,16(sp)
   12592:	89aa                	mv	s3,a0
   12594:	c7c1                	beqz	a5,1261c <__sfp+0x9e>
   12596:	52048493          	addi	s1,s1,1312
   1259a:	0b000913          	li	s2,176
   1259e:	449c                	lw	a5,8(s1)
   125a0:	6880                	ld	s0,16(s1)
   125a2:	02f05463          	blez	a5,125ca <__sfp+0x4c>
   125a6:	01041703          	lh	a4,16(s0)
   125aa:	c705                	beqz	a4,125d2 <__sfp+0x54>
   125ac:	37fd                	addiw	a5,a5,-1
   125ae:	1782                	slli	a5,a5,0x20
   125b0:	9381                	srli	a5,a5,0x20
   125b2:	0785                	addi	a5,a5,1
   125b4:	032787b3          	mul	a5,a5,s2
   125b8:	97a2                	add	a5,a5,s0
   125ba:	a021                	j	125c2 <__sfp+0x44>
   125bc:	01041703          	lh	a4,16(s0)
   125c0:	cb09                	beqz	a4,125d2 <__sfp+0x54>
   125c2:	0b040413          	addi	s0,s0,176
   125c6:	fef41be3          	bne	s0,a5,125bc <__sfp+0x3e>
   125ca:	6080                	ld	s0,0(s1)
   125cc:	cc21                	beqz	s0,12624 <__sfp+0xa6>
   125ce:	84a2                	mv	s1,s0
   125d0:	b7f9                	j	1259e <__sfp+0x20>
   125d2:	77c1                	lui	a5,0xffff0
   125d4:	0785                	addi	a5,a5,1
   125d6:	0a042623          	sw	zero,172(s0)
   125da:	00043023          	sd	zero,0(s0)
   125de:	00043423          	sd	zero,8(s0)
   125e2:	c81c                	sw	a5,16(s0)
   125e4:	00043c23          	sd	zero,24(s0)
   125e8:	02042023          	sw	zero,32(s0)
   125ec:	02042423          	sw	zero,40(s0)
   125f0:	4621                	li	a2,8
   125f2:	4581                	li	a1,0
   125f4:	0a440513          	addi	a0,s0,164
   125f8:	c4dfd0ef          	jal	ra,10244 <memset>
   125fc:	04043c23          	sd	zero,88(s0)
   12600:	06042023          	sw	zero,96(s0)
   12604:	06043c23          	sd	zero,120(s0)
   12608:	08042023          	sw	zero,128(s0)
   1260c:	8522                	mv	a0,s0
   1260e:	70a2                	ld	ra,40(sp)
   12610:	7402                	ld	s0,32(sp)
   12612:	64e2                	ld	s1,24(sp)
   12614:	6942                	ld	s2,16(sp)
   12616:	69a2                	ld	s3,8(sp)
   12618:	6145                	addi	sp,sp,48
   1261a:	8082                	ret
   1261c:	8526                	mv	a0,s1
   1261e:	dedff0ef          	jal	ra,1240a <__sinit.part.0>
   12622:	bf95                	j	12596 <__sfp+0x18>
   12624:	4591                	li	a1,4
   12626:	854e                	mv	a0,s3
   12628:	f0fff0ef          	jal	ra,12536 <__sfmoreglue>
   1262c:	e088                	sd	a0,0(s1)
   1262e:	842a                	mv	s0,a0
   12630:	fd59                	bnez	a0,125ce <__sfp+0x50>
   12632:	47b1                	li	a5,12
   12634:	00f9a023          	sw	a5,0(s3)
   12638:	bfd1                	j	1260c <__sfp+0x8e>

000000000001263a <_cleanup>:
   1263a:	74818793          	addi	a5,gp,1864 # 1eee8 <_global_impure_ptr>
   1263e:	6388                	ld	a0,0(a5)
   12640:	00007597          	auipc	a1,0x7
   12644:	8e058593          	addi	a1,a1,-1824 # 18f20 <_fclose_r>
   12648:	aefd                	j	12a46 <_fwalk_reent>

000000000001264a <__sinit>:
   1264a:	493c                	lw	a5,80(a0)
   1264c:	c391                	beqz	a5,12650 <__sinit+0x6>
   1264e:	8082                	ret
   12650:	bb6d                	j	1240a <__sinit.part.0>

0000000000012652 <__sfp_lock_acquire>:
   12652:	8082                	ret

0000000000012654 <__sfp_lock_release>:
   12654:	8082                	ret

0000000000012656 <__sinit_lock_acquire>:
   12656:	8082                	ret

0000000000012658 <__sinit_lock_release>:
   12658:	8082                	ret

000000000001265a <__fp_lock_all>:
   1265a:	75818793          	addi	a5,gp,1880 # 1eef8 <_impure_ptr>
   1265e:	6388                	ld	a0,0(a5)
   12660:	00000597          	auipc	a1,0x0
   12664:	d9c58593          	addi	a1,a1,-612 # 123fc <__fp_lock>
   12668:	ae91                	j	129bc <_fwalk>

000000000001266a <__fp_unlock_all>:
   1266a:	75818793          	addi	a5,gp,1880 # 1eef8 <_impure_ptr>
   1266e:	6388                	ld	a0,0(a5)
   12670:	00000597          	auipc	a1,0x0
   12674:	ec258593          	addi	a1,a1,-318 # 12532 <__fp_unlock>
   12678:	a691                	j	129bc <_fwalk>

000000000001267a <_malloc_trim_r>:
   1267a:	7179                	addi	sp,sp,-48
   1267c:	f022                	sd	s0,32(sp)
   1267e:	ec26                	sd	s1,24(sp)
   12680:	e84a                	sd	s2,16(sp)
   12682:	e44e                	sd	s3,8(sp)
   12684:	842e                	mv	s0,a1
   12686:	f406                	sd	ra,40(sp)
   12688:	0000c997          	auipc	s3,0xc
   1268c:	02098993          	addi	s3,s3,32 # 1e6a8 <__malloc_av_>
   12690:	892a                	mv	s2,a0
   12692:	5e5020ef          	jal	ra,15476 <__malloc_lock>
   12696:	0109b683          	ld	a3,16(s3)
   1269a:	6705                	lui	a4,0x1
   1269c:	fdf70793          	addi	a5,a4,-33 # fdf <register_fini-0xf0d1>
   126a0:	6684                	ld	s1,8(a3)
   126a2:	40878433          	sub	s0,a5,s0
   126a6:	98f1                	andi	s1,s1,-4
   126a8:	9426                	add	s0,s0,s1
   126aa:	8031                	srli	s0,s0,0xc
   126ac:	147d                	addi	s0,s0,-1
   126ae:	0432                	slli	s0,s0,0xc
   126b0:	00e44b63          	blt	s0,a4,126c6 <_malloc_trim_r+0x4c>
   126b4:	4581                	li	a1,0
   126b6:	854a                	mv	a0,s2
   126b8:	0e1030ef          	jal	ra,15f98 <_sbrk_r>
   126bc:	0109b783          	ld	a5,16(s3)
   126c0:	97a6                	add	a5,a5,s1
   126c2:	00f50d63          	beq	a0,a5,126dc <_malloc_trim_r+0x62>
   126c6:	854a                	mv	a0,s2
   126c8:	5b1020ef          	jal	ra,15478 <__malloc_unlock>
   126cc:	70a2                	ld	ra,40(sp)
   126ce:	7402                	ld	s0,32(sp)
   126d0:	64e2                	ld	s1,24(sp)
   126d2:	6942                	ld	s2,16(sp)
   126d4:	69a2                	ld	s3,8(sp)
   126d6:	4501                	li	a0,0
   126d8:	6145                	addi	sp,sp,48
   126da:	8082                	ret
   126dc:	408005b3          	neg	a1,s0
   126e0:	854a                	mv	a0,s2
   126e2:	0b7030ef          	jal	ra,15f98 <_sbrk_r>
   126e6:	57fd                	li	a5,-1
   126e8:	02f50e63          	beq	a0,a5,12724 <_malloc_trim_r+0xaa>
   126ec:	0000d797          	auipc	a5,0xd
   126f0:	88478793          	addi	a5,a5,-1916 # 1ef70 <__malloc_current_mallinfo>
   126f4:	439c                	lw	a5,0(a5)
   126f6:	0109b703          	ld	a4,16(s3)
   126fa:	8c81                	sub	s1,s1,s0
   126fc:	0014e493          	ori	s1,s1,1
   12700:	4087843b          	subw	s0,a5,s0
   12704:	854a                	mv	a0,s2
   12706:	e704                	sd	s1,8(a4)
   12708:	0000d797          	auipc	a5,0xd
   1270c:	8687a423          	sw	s0,-1944(a5) # 1ef70 <__malloc_current_mallinfo>
   12710:	569020ef          	jal	ra,15478 <__malloc_unlock>
   12714:	70a2                	ld	ra,40(sp)
   12716:	7402                	ld	s0,32(sp)
   12718:	64e2                	ld	s1,24(sp)
   1271a:	6942                	ld	s2,16(sp)
   1271c:	69a2                	ld	s3,8(sp)
   1271e:	4505                	li	a0,1
   12720:	6145                	addi	sp,sp,48
   12722:	8082                	ret
   12724:	4581                	li	a1,0
   12726:	854a                	mv	a0,s2
   12728:	071030ef          	jal	ra,15f98 <_sbrk_r>
   1272c:	0109b703          	ld	a4,16(s3)
   12730:	46fd                	li	a3,31
   12732:	40e507b3          	sub	a5,a0,a4
   12736:	f8f6d8e3          	bge	a3,a5,126c6 <_malloc_trim_r+0x4c>
   1273a:	76018693          	addi	a3,gp,1888 # 1ef00 <__malloc_sbrk_base>
   1273e:	6294                	ld	a3,0(a3)
   12740:	0017e793          	ori	a5,a5,1
   12744:	e71c                	sd	a5,8(a4)
   12746:	8d15                	sub	a0,a0,a3
   12748:	0000d797          	auipc	a5,0xd
   1274c:	82a7a423          	sw	a0,-2008(a5) # 1ef70 <__malloc_current_mallinfo>
   12750:	bf9d                	j	126c6 <_malloc_trim_r+0x4c>

0000000000012752 <_free_r>:
   12752:	c9e5                	beqz	a1,12842 <_free_r+0xf0>
   12754:	1101                	addi	sp,sp,-32
   12756:	e822                	sd	s0,16(sp)
   12758:	e426                	sd	s1,8(sp)
   1275a:	842e                	mv	s0,a1
   1275c:	84aa                	mv	s1,a0
   1275e:	ec06                	sd	ra,24(sp)
   12760:	517020ef          	jal	ra,15476 <__malloc_lock>
   12764:	ff843583          	ld	a1,-8(s0)
   12768:	ff040713          	addi	a4,s0,-16
   1276c:	0000c517          	auipc	a0,0xc
   12770:	f3c50513          	addi	a0,a0,-196 # 1e6a8 <__malloc_av_>
   12774:	ffe5f793          	andi	a5,a1,-2
   12778:	00f70633          	add	a2,a4,a5
   1277c:	6614                	ld	a3,8(a2)
   1277e:	01053803          	ld	a6,16(a0)
   12782:	9af1                	andi	a3,a3,-4
   12784:	12c80d63          	beq	a6,a2,128be <_free_r+0x16c>
   12788:	e614                	sd	a3,8(a2)
   1278a:	8985                	andi	a1,a1,1
   1278c:	00d60833          	add	a6,a2,a3
   12790:	e1d1                	bnez	a1,12814 <_free_r+0xc2>
   12792:	ff043303          	ld	t1,-16(s0)
   12796:	00883583          	ld	a1,8(a6)
   1279a:	0000c897          	auipc	a7,0xc
   1279e:	f1e88893          	addi	a7,a7,-226 # 1e6b8 <__malloc_av_+0x10>
   127a2:	40670733          	sub	a4,a4,t1
   127a6:	01073803          	ld	a6,16(a4)
   127aa:	979a                	add	a5,a5,t1
   127ac:	8985                	andi	a1,a1,1
   127ae:	0f180b63          	beq	a6,a7,128a4 <_free_r+0x152>
   127b2:	01873303          	ld	t1,24(a4)
   127b6:	00683c23          	sd	t1,24(a6)
   127ba:	01033823          	sd	a6,16(t1)
   127be:	16058063          	beqz	a1,1291e <_free_r+0x1cc>
   127c2:	0017e693          	ori	a3,a5,1
   127c6:	e714                	sd	a3,8(a4)
   127c8:	e21c                	sd	a5,0(a2)
   127ca:	1ff00693          	li	a3,511
   127ce:	08f6e463          	bltu	a3,a5,12856 <_free_r+0x104>
   127d2:	838d                	srli	a5,a5,0x3
   127d4:	2781                	sext.w	a5,a5
   127d6:	0017869b          	addiw	a3,a5,1
   127da:	0016969b          	slliw	a3,a3,0x1
   127de:	068e                	slli	a3,a3,0x3
   127e0:	650c                	ld	a1,8(a0)
   127e2:	9536                	add	a0,a0,a3
   127e4:	6110                	ld	a2,0(a0)
   127e6:	4685                	li	a3,1
   127e8:	4027d79b          	sraiw	a5,a5,0x2
   127ec:	00f697b3          	sll	a5,a3,a5
   127f0:	8fcd                	or	a5,a5,a1
   127f2:	ff050693          	addi	a3,a0,-16
   127f6:	ef14                	sd	a3,24(a4)
   127f8:	eb10                	sd	a2,16(a4)
   127fa:	0000c697          	auipc	a3,0xc
   127fe:	eaf6bb23          	sd	a5,-330(a3) # 1e6b0 <__malloc_av_+0x8>
   12802:	e118                	sd	a4,0(a0)
   12804:	ee18                	sd	a4,24(a2)
   12806:	6442                	ld	s0,16(sp)
   12808:	60e2                	ld	ra,24(sp)
   1280a:	8526                	mv	a0,s1
   1280c:	64a2                	ld	s1,8(sp)
   1280e:	6105                	addi	sp,sp,32
   12810:	4690206f          	j	15478 <__malloc_unlock>
   12814:	00883583          	ld	a1,8(a6)
   12818:	8985                	andi	a1,a1,1
   1281a:	e58d                	bnez	a1,12844 <_free_r+0xf2>
   1281c:	97b6                	add	a5,a5,a3
   1281e:	0000c897          	auipc	a7,0xc
   12822:	e9a88893          	addi	a7,a7,-358 # 1e6b8 <__malloc_av_+0x10>
   12826:	6a14                	ld	a3,16(a2)
   12828:	0017e813          	ori	a6,a5,1
   1282c:	00f705b3          	add	a1,a4,a5
   12830:	11168263          	beq	a3,a7,12934 <_free_r+0x1e2>
   12834:	6e10                	ld	a2,24(a2)
   12836:	ee90                	sd	a2,24(a3)
   12838:	ea14                	sd	a3,16(a2)
   1283a:	01073423          	sd	a6,8(a4)
   1283e:	e19c                	sd	a5,0(a1)
   12840:	b769                	j	127ca <_free_r+0x78>
   12842:	8082                	ret
   12844:	0017e693          	ori	a3,a5,1
   12848:	fed43c23          	sd	a3,-8(s0)
   1284c:	e21c                	sd	a5,0(a2)
   1284e:	1ff00693          	li	a3,511
   12852:	f8f6f0e3          	bgeu	a3,a5,127d2 <_free_r+0x80>
   12856:	0097d693          	srli	a3,a5,0x9
   1285a:	4611                	li	a2,4
   1285c:	08d66f63          	bltu	a2,a3,128fa <_free_r+0x1a8>
   12860:	0067d693          	srli	a3,a5,0x6
   12864:	2681                	sext.w	a3,a3
   12866:	0396859b          	addiw	a1,a3,57
   1286a:	0015959b          	slliw	a1,a1,0x1
   1286e:	0386861b          	addiw	a2,a3,56
   12872:	058e                	slli	a1,a1,0x3
   12874:	95aa                	add	a1,a1,a0
   12876:	6194                	ld	a3,0(a1)
   12878:	15c1                	addi	a1,a1,-16
   1287a:	0cd58d63          	beq	a1,a3,12954 <_free_r+0x202>
   1287e:	6690                	ld	a2,8(a3)
   12880:	9a71                	andi	a2,a2,-4
   12882:	00c7f563          	bgeu	a5,a2,1288c <_free_r+0x13a>
   12886:	6a94                	ld	a3,16(a3)
   12888:	fed59be3          	bne	a1,a3,1287e <_free_r+0x12c>
   1288c:	6e8c                	ld	a1,24(a3)
   1288e:	ef0c                	sd	a1,24(a4)
   12890:	eb14                	sd	a3,16(a4)
   12892:	6442                	ld	s0,16(sp)
   12894:	e998                	sd	a4,16(a1)
   12896:	60e2                	ld	ra,24(sp)
   12898:	8526                	mv	a0,s1
   1289a:	64a2                	ld	s1,8(sp)
   1289c:	ee98                	sd	a4,24(a3)
   1289e:	6105                	addi	sp,sp,32
   128a0:	3d90206f          	j	15478 <__malloc_unlock>
   128a4:	10059763          	bnez	a1,129b2 <_free_r+0x260>
   128a8:	6a0c                	ld	a1,16(a2)
   128aa:	6e10                	ld	a2,24(a2)
   128ac:	97b6                	add	a5,a5,a3
   128ae:	0017e693          	ori	a3,a5,1
   128b2:	ed90                	sd	a2,24(a1)
   128b4:	ea0c                	sd	a1,16(a2)
   128b6:	e714                	sd	a3,8(a4)
   128b8:	973e                	add	a4,a4,a5
   128ba:	e31c                	sd	a5,0(a4)
   128bc:	b7a9                	j	12806 <_free_r+0xb4>
   128be:	8985                	andi	a1,a1,1
   128c0:	97b6                	add	a5,a5,a3
   128c2:	e989                	bnez	a1,128d4 <_free_r+0x182>
   128c4:	ff043583          	ld	a1,-16(s0)
   128c8:	8f0d                	sub	a4,a4,a1
   128ca:	6f14                	ld	a3,24(a4)
   128cc:	6b10                	ld	a2,16(a4)
   128ce:	97ae                	add	a5,a5,a1
   128d0:	ee14                	sd	a3,24(a2)
   128d2:	ea90                	sd	a2,16(a3)
   128d4:	76818693          	addi	a3,gp,1896 # 1ef08 <__malloc_trim_threshold>
   128d8:	0017e613          	ori	a2,a5,1
   128dc:	6294                	ld	a3,0(a3)
   128de:	e710                	sd	a2,8(a4)
   128e0:	0000c617          	auipc	a2,0xc
   128e4:	dce63c23          	sd	a4,-552(a2) # 1e6b8 <__malloc_av_+0x10>
   128e8:	f0d7efe3          	bltu	a5,a3,12806 <_free_r+0xb4>
   128ec:	78818793          	addi	a5,gp,1928 # 1ef28 <__malloc_top_pad>
   128f0:	638c                	ld	a1,0(a5)
   128f2:	8526                	mv	a0,s1
   128f4:	d87ff0ef          	jal	ra,1267a <_malloc_trim_r>
   128f8:	b739                	j	12806 <_free_r+0xb4>
   128fa:	4651                	li	a2,20
   128fc:	02d67363          	bgeu	a2,a3,12922 <_free_r+0x1d0>
   12900:	05400613          	li	a2,84
   12904:	06d66463          	bltu	a2,a3,1296c <_free_r+0x21a>
   12908:	00c7d693          	srli	a3,a5,0xc
   1290c:	2681                	sext.w	a3,a3
   1290e:	06f6859b          	addiw	a1,a3,111
   12912:	0015959b          	slliw	a1,a1,0x1
   12916:	06e6861b          	addiw	a2,a3,110
   1291a:	058e                	slli	a1,a1,0x3
   1291c:	bfa1                	j	12874 <_free_r+0x122>
   1291e:	97b6                	add	a5,a5,a3
   12920:	b719                	j	12826 <_free_r+0xd4>
   12922:	2681                	sext.w	a3,a3
   12924:	05c6859b          	addiw	a1,a3,92
   12928:	0015959b          	slliw	a1,a1,0x1
   1292c:	05b6861b          	addiw	a2,a3,91
   12930:	058e                	slli	a1,a1,0x3
   12932:	b789                	j	12874 <_free_r+0x122>
   12934:	0000c697          	auipc	a3,0xc
   12938:	d8e6be23          	sd	a4,-612(a3) # 1e6d0 <__malloc_av_+0x28>
   1293c:	0000c697          	auipc	a3,0xc
   12940:	d8e6b623          	sd	a4,-628(a3) # 1e6c8 <__malloc_av_+0x20>
   12944:	01173c23          	sd	a7,24(a4)
   12948:	01173823          	sd	a7,16(a4)
   1294c:	01073423          	sd	a6,8(a4)
   12950:	e19c                	sd	a5,0(a1)
   12952:	bd55                	j	12806 <_free_r+0xb4>
   12954:	6508                	ld	a0,8(a0)
   12956:	4785                	li	a5,1
   12958:	4026561b          	sraiw	a2,a2,0x2
   1295c:	00c79633          	sll	a2,a5,a2
   12960:	8e49                	or	a2,a2,a0
   12962:	0000c797          	auipc	a5,0xc
   12966:	d4c7b723          	sd	a2,-690(a5) # 1e6b0 <__malloc_av_+0x8>
   1296a:	b715                	j	1288e <_free_r+0x13c>
   1296c:	15400613          	li	a2,340
   12970:	00d66d63          	bltu	a2,a3,1298a <_free_r+0x238>
   12974:	00f7d693          	srli	a3,a5,0xf
   12978:	2681                	sext.w	a3,a3
   1297a:	0786859b          	addiw	a1,a3,120
   1297e:	0015959b          	slliw	a1,a1,0x1
   12982:	0776861b          	addiw	a2,a3,119
   12986:	058e                	slli	a1,a1,0x3
   12988:	b5f5                	j	12874 <_free_r+0x122>
   1298a:	55400613          	li	a2,1364
   1298e:	00d66d63          	bltu	a2,a3,129a8 <_free_r+0x256>
   12992:	0127d693          	srli	a3,a5,0x12
   12996:	2681                	sext.w	a3,a3
   12998:	07d6859b          	addiw	a1,a3,125
   1299c:	0015959b          	slliw	a1,a1,0x1
   129a0:	07c6861b          	addiw	a2,a3,124
   129a4:	058e                	slli	a1,a1,0x3
   129a6:	b5f9                	j	12874 <_free_r+0x122>
   129a8:	7f000593          	li	a1,2032
   129ac:	07e00613          	li	a2,126
   129b0:	b5d1                	j	12874 <_free_r+0x122>
   129b2:	0017e693          	ori	a3,a5,1
   129b6:	e714                	sd	a3,8(a4)
   129b8:	e21c                	sd	a5,0(a2)
   129ba:	b5b1                	j	12806 <_free_r+0xb4>

00000000000129bc <_fwalk>:
   129bc:	715d                	addi	sp,sp,-80
   129be:	f84a                	sd	s2,48(sp)
   129c0:	e486                	sd	ra,72(sp)
   129c2:	e0a2                	sd	s0,64(sp)
   129c4:	fc26                	sd	s1,56(sp)
   129c6:	f44e                	sd	s3,40(sp)
   129c8:	f052                	sd	s4,32(sp)
   129ca:	ec56                	sd	s5,24(sp)
   129cc:	e85a                	sd	s6,16(sp)
   129ce:	e45e                	sd	s7,8(sp)
   129d0:	52050913          	addi	s2,a0,1312
   129d4:	06090763          	beqz	s2,12a42 <_fwalk+0x86>
   129d8:	8a2e                	mv	s4,a1
   129da:	4b01                	li	s6,0
   129dc:	0b000a93          	li	s5,176
   129e0:	4b85                	li	s7,1
   129e2:	59fd                	li	s3,-1
   129e4:	00892783          	lw	a5,8(s2)
   129e8:	01093403          	ld	s0,16(s2)
   129ec:	02f05b63          	blez	a5,12a22 <_fwalk+0x66>
   129f0:	fff7849b          	addiw	s1,a5,-1
   129f4:	1482                	slli	s1,s1,0x20
   129f6:	9081                	srli	s1,s1,0x20
   129f8:	0485                	addi	s1,s1,1
   129fa:	035484b3          	mul	s1,s1,s5
   129fe:	94a2                	add	s1,s1,s0
   12a00:	01045783          	lhu	a5,16(s0)
   12a04:	00fbfb63          	bgeu	s7,a5,12a1a <_fwalk+0x5e>
   12a08:	01241783          	lh	a5,18(s0)
   12a0c:	8522                	mv	a0,s0
   12a0e:	01378663          	beq	a5,s3,12a1a <_fwalk+0x5e>
   12a12:	9a02                	jalr	s4
   12a14:	01656b33          	or	s6,a0,s6
   12a18:	2b01                	sext.w	s6,s6
   12a1a:	0b040413          	addi	s0,s0,176
   12a1e:	fe9411e3          	bne	s0,s1,12a00 <_fwalk+0x44>
   12a22:	00093903          	ld	s2,0(s2)
   12a26:	fa091fe3          	bnez	s2,129e4 <_fwalk+0x28>
   12a2a:	60a6                	ld	ra,72(sp)
   12a2c:	6406                	ld	s0,64(sp)
   12a2e:	855a                	mv	a0,s6
   12a30:	74e2                	ld	s1,56(sp)
   12a32:	7942                	ld	s2,48(sp)
   12a34:	79a2                	ld	s3,40(sp)
   12a36:	7a02                	ld	s4,32(sp)
   12a38:	6ae2                	ld	s5,24(sp)
   12a3a:	6b42                	ld	s6,16(sp)
   12a3c:	6ba2                	ld	s7,8(sp)
   12a3e:	6161                	addi	sp,sp,80
   12a40:	8082                	ret
   12a42:	4b01                	li	s6,0
   12a44:	b7dd                	j	12a2a <_fwalk+0x6e>

0000000000012a46 <_fwalk_reent>:
   12a46:	715d                	addi	sp,sp,-80
   12a48:	f84a                	sd	s2,48(sp)
   12a4a:	e486                	sd	ra,72(sp)
   12a4c:	e0a2                	sd	s0,64(sp)
   12a4e:	fc26                	sd	s1,56(sp)
   12a50:	f44e                	sd	s3,40(sp)
   12a52:	f052                	sd	s4,32(sp)
   12a54:	ec56                	sd	s5,24(sp)
   12a56:	e85a                	sd	s6,16(sp)
   12a58:	e45e                	sd	s7,8(sp)
   12a5a:	e062                	sd	s8,0(sp)
   12a5c:	52050913          	addi	s2,a0,1312
   12a60:	06090a63          	beqz	s2,12ad4 <_fwalk_reent+0x8e>
   12a64:	8aae                	mv	s5,a1
   12a66:	89aa                	mv	s3,a0
   12a68:	4b81                	li	s7,0
   12a6a:	0b000b13          	li	s6,176
   12a6e:	4c05                	li	s8,1
   12a70:	5a7d                	li	s4,-1
   12a72:	00892783          	lw	a5,8(s2)
   12a76:	01093403          	ld	s0,16(s2)
   12a7a:	02f05c63          	blez	a5,12ab2 <_fwalk_reent+0x6c>
   12a7e:	fff7849b          	addiw	s1,a5,-1
   12a82:	1482                	slli	s1,s1,0x20
   12a84:	9081                	srli	s1,s1,0x20
   12a86:	0485                	addi	s1,s1,1
   12a88:	036484b3          	mul	s1,s1,s6
   12a8c:	94a2                	add	s1,s1,s0
   12a8e:	01045783          	lhu	a5,16(s0)
   12a92:	00fc7c63          	bgeu	s8,a5,12aaa <_fwalk_reent+0x64>
   12a96:	01241783          	lh	a5,18(s0)
   12a9a:	85a2                	mv	a1,s0
   12a9c:	854e                	mv	a0,s3
   12a9e:	01478663          	beq	a5,s4,12aaa <_fwalk_reent+0x64>
   12aa2:	9a82                	jalr	s5
   12aa4:	01756bb3          	or	s7,a0,s7
   12aa8:	2b81                	sext.w	s7,s7
   12aaa:	0b040413          	addi	s0,s0,176
   12aae:	fe9410e3          	bne	s0,s1,12a8e <_fwalk_reent+0x48>
   12ab2:	00093903          	ld	s2,0(s2)
   12ab6:	fa091ee3          	bnez	s2,12a72 <_fwalk_reent+0x2c>
   12aba:	60a6                	ld	ra,72(sp)
   12abc:	6406                	ld	s0,64(sp)
   12abe:	855e                	mv	a0,s7
   12ac0:	74e2                	ld	s1,56(sp)
   12ac2:	7942                	ld	s2,48(sp)
   12ac4:	79a2                	ld	s3,40(sp)
   12ac6:	7a02                	ld	s4,32(sp)
   12ac8:	6ae2                	ld	s5,24(sp)
   12aca:	6b42                	ld	s6,16(sp)
   12acc:	6ba2                	ld	s7,8(sp)
   12ace:	6c02                	ld	s8,0(sp)
   12ad0:	6161                	addi	sp,sp,80
   12ad2:	8082                	ret
   12ad4:	4b81                	li	s7,0
   12ad6:	b7d5                	j	12aba <_fwalk_reent+0x74>

0000000000012ad8 <eshdn1>:
   12ad8:	00450693          	addi	a3,a0,4
   12adc:	4781                	li	a5,0
   12ade:	0569                	addi	a0,a0,26
   12ae0:	7861                	lui	a6,0xffff8
   12ae2:	a811                	j	12af6 <eshdn1+0x1e>
   12ae4:	0017979b          	slliw	a5,a5,0x1
   12ae8:	00e69023          	sh	a4,0(a3)
   12aec:	17c2                	slli	a5,a5,0x30
   12aee:	0689                	addi	a3,a3,2
   12af0:	93c1                	srli	a5,a5,0x30
   12af2:	02d50863          	beq	a0,a3,12b22 <eshdn1+0x4a>
   12af6:	0006d703          	lhu	a4,0(a3)
   12afa:	00177613          	andi	a2,a4,1
   12afe:	c219                	beqz	a2,12b04 <eshdn1+0x2c>
   12b00:	0017e793          	ori	a5,a5,1
   12b04:	8305                	srli	a4,a4,0x1
   12b06:	0027f613          	andi	a2,a5,2
   12b0a:	010765b3          	or	a1,a4,a6
   12b0e:	da79                	beqz	a2,12ae4 <eshdn1+0xc>
   12b10:	0017979b          	slliw	a5,a5,0x1
   12b14:	00b69023          	sh	a1,0(a3)
   12b18:	17c2                	slli	a5,a5,0x30
   12b1a:	0689                	addi	a3,a3,2
   12b1c:	93c1                	srli	a5,a5,0x30
   12b1e:	fcd51ce3          	bne	a0,a3,12af6 <eshdn1+0x1e>
   12b22:	8082                	ret

0000000000012b24 <eshup1>:
   12b24:	01850693          	addi	a3,a0,24
   12b28:	4701                	li	a4,0
   12b2a:	0509                	addi	a0,a0,2
   12b2c:	a811                	j	12b40 <eshup1+0x1c>
   12b2e:	0017171b          	slliw	a4,a4,0x1
   12b32:	00f69023          	sh	a5,0(a3)
   12b36:	1742                	slli	a4,a4,0x30
   12b38:	16f9                	addi	a3,a3,-2
   12b3a:	9341                	srli	a4,a4,0x30
   12b3c:	04d50063          	beq	a0,a3,12b7c <eshup1+0x58>
   12b40:	0006d783          	lhu	a5,0(a3)
   12b44:	0107961b          	slliw	a2,a5,0x10
   12b48:	4106561b          	sraiw	a2,a2,0x10
   12b4c:	02061593          	slli	a1,a2,0x20
   12b50:	0017979b          	slliw	a5,a5,0x1
   12b54:	0005d463          	bgez	a1,12b5c <eshup1+0x38>
   12b58:	00176713          	ori	a4,a4,1
   12b5c:	17c2                	slli	a5,a5,0x30
   12b5e:	93c1                	srli	a5,a5,0x30
   12b60:	00277613          	andi	a2,a4,2
   12b64:	0017e593          	ori	a1,a5,1
   12b68:	d279                	beqz	a2,12b2e <eshup1+0xa>
   12b6a:	0017171b          	slliw	a4,a4,0x1
   12b6e:	00b69023          	sh	a1,0(a3)
   12b72:	1742                	slli	a4,a4,0x30
   12b74:	16f9                	addi	a3,a3,-2
   12b76:	9341                	srli	a4,a4,0x30
   12b78:	fcd514e3          	bne	a0,a3,12b40 <eshup1+0x1c>
   12b7c:	8082                	ret

0000000000012b7e <m16m>:
   12b7e:	1101                	addi	sp,sp,-32
   12b80:	6e41                	lui	t3,0x10
   12b82:	00011b23          	sh	zero,22(sp)
   12b86:	00011c23          	sh	zero,24(sp)
   12b8a:	05e1                	addi	a1,a1,24
   12b8c:	083c                	addi	a5,sp,24
   12b8e:	00410813          	addi	a6,sp,4
   12b92:	1e7d                	addi	t3,t3,-1
   12b94:	0005d703          	lhu	a4,0(a1)
   12b98:	17f9                	addi	a5,a5,-2
   12b9a:	15f9                	addi	a1,a1,-2
   12b9c:	e315                	bnez	a4,12bc0 <m16m+0x42>
   12b9e:	fe079f23          	sh	zero,-2(a5)
   12ba2:	ff0799e3          	bne	a5,a6,12b94 <m16m+0x16>
   12ba6:	0611                	addi	a2,a2,4
   12ba8:	01a10693          	addi	a3,sp,26
   12bac:	0007d703          	lhu	a4,0(a5)
   12bb0:	0609                	addi	a2,a2,2
   12bb2:	0789                	addi	a5,a5,2
   12bb4:	fee61f23          	sh	a4,-2(a2)
   12bb8:	fed79ae3          	bne	a5,a3,12bac <m16m+0x2e>
   12bbc:	6105                	addi	sp,sp,32
   12bbe:	8082                	ret
   12bc0:	02a70733          	mul	a4,a4,a0
   12bc4:	0027d883          	lhu	a7,2(a5)
   12bc8:	0007d303          	lhu	t1,0(a5)
   12bcc:	01c776b3          	and	a3,a4,t3
   12bd0:	96c6                	add	a3,a3,a7
   12bd2:	8341                	srli	a4,a4,0x10
   12bd4:	0106d893          	srli	a7,a3,0x10
   12bd8:	971a                	add	a4,a4,t1
   12bda:	9746                	add	a4,a4,a7
   12bdc:	01075893          	srli	a7,a4,0x10
   12be0:	00d79123          	sh	a3,2(a5)
   12be4:	00e79023          	sh	a4,0(a5)
   12be8:	ff179f23          	sh	a7,-2(a5)
   12bec:	fb0794e3          	bne	a5,a6,12b94 <m16m+0x16>
   12bf0:	bf5d                	j	12ba6 <m16m+0x28>

0000000000012bf2 <eisnan.part.0>:
   12bf2:	01250713          	addi	a4,a0,18
   12bf6:	0509                	addi	a0,a0,2
   12bf8:	ffe55783          	lhu	a5,-2(a0)
   12bfc:	e789                	bnez	a5,12c06 <eisnan.part.0+0x14>
   12bfe:	fea71ce3          	bne	a4,a0,12bf6 <eisnan.part.0+0x4>
   12c02:	4501                	li	a0,0
   12c04:	8082                	ret
   12c06:	4505                	li	a0,1
   12c08:	8082                	ret

0000000000012c0a <eneg>:
   12c0a:	1101                	addi	sp,sp,-32
   12c0c:	e822                	sd	s0,16(sp)
   12c0e:	01255403          	lhu	s0,18(a0)
   12c12:	e426                	sd	s1,8(sp)
   12c14:	ec06                	sd	ra,24(sp)
   12c16:	fff44793          	not	a5,s0
   12c1a:	03179713          	slli	a4,a5,0x31
   12c1e:	84aa                	mv	s1,a0
   12c20:	e701                	bnez	a4,12c28 <eneg+0x1e>
   12c22:	fd1ff0ef          	jal	ra,12bf2 <eisnan.part.0>
   12c26:	e509                	bnez	a0,12c30 <eneg+0x26>
   12c28:	77e1                	lui	a5,0xffff8
   12c2a:	8c3d                	xor	s0,s0,a5
   12c2c:	00849923          	sh	s0,18(s1)
   12c30:	60e2                	ld	ra,24(sp)
   12c32:	6442                	ld	s0,16(sp)
   12c34:	64a2                	ld	s1,8(sp)
   12c36:	6105                	addi	sp,sp,32
   12c38:	8082                	ret

0000000000012c3a <eisneg>:
   12c3a:	1141                	addi	sp,sp,-16
   12c3c:	e022                	sd	s0,0(sp)
   12c3e:	01255403          	lhu	s0,18(a0)
   12c42:	e406                	sd	ra,8(sp)
   12c44:	fff44793          	not	a5,s0
   12c48:	03179713          	slli	a4,a5,0x31
   12c4c:	e709                	bnez	a4,12c56 <eisneg+0x1c>
   12c4e:	fa5ff0ef          	jal	ra,12bf2 <eisnan.part.0>
   12c52:	4781                	li	a5,0
   12c54:	e119                	bnez	a0,12c5a <eisneg+0x20>
   12c56:	00f45793          	srli	a5,s0,0xf
   12c5a:	60a2                	ld	ra,8(sp)
   12c5c:	6402                	ld	s0,0(sp)
   12c5e:	853e                	mv	a0,a5
   12c60:	0141                	addi	sp,sp,16
   12c62:	8082                	ret

0000000000012c64 <emovi>:
   12c64:	01255783          	lhu	a5,18(a0)
   12c68:	1101                	addi	sp,sp,-32
   12c6a:	e822                	sd	s0,16(sp)
   12c6c:	00f7d79b          	srliw	a5,a5,0xf
   12c70:	e426                	sd	s1,8(sp)
   12c72:	ec06                	sd	ra,24(sp)
   12c74:	e04a                	sd	s2,0(sp)
   12c76:	40f007bb          	negw	a5,a5
   12c7a:	00f59023          	sh	a5,0(a1)
   12c7e:	01255783          	lhu	a5,18(a0)
   12c82:	66a1                	lui	a3,0x8
   12c84:	16fd                	addi	a3,a3,-1
   12c86:	8ff5                	and	a5,a5,a3
   12c88:	00f59123          	sh	a5,2(a1)
   12c8c:	2781                	sext.w	a5,a5
   12c8e:	84aa                	mv	s1,a0
   12c90:	01050413          	addi	s0,a0,16
   12c94:	02d78763          	beq	a5,a3,12cc2 <emovi+0x5e>
   12c98:	00658793          	addi	a5,a1,6
   12c9c:	00059223          	sh	zero,4(a1)
   12ca0:	1579                	addi	a0,a0,-2
   12ca2:	1479                	addi	s0,s0,-2
   12ca4:	00245703          	lhu	a4,2(s0)
   12ca8:	0789                	addi	a5,a5,2
   12caa:	fee79f23          	sh	a4,-2(a5) # ffffffffffff7ffe <__BSS_END__+0xfffffffffffd905e>
   12cae:	fea41ae3          	bne	s0,a0,12ca2 <emovi+0x3e>
   12cb2:	00059c23          	sh	zero,24(a1)
   12cb6:	60e2                	ld	ra,24(sp)
   12cb8:	6442                	ld	s0,16(sp)
   12cba:	64a2                	ld	s1,8(sp)
   12cbc:	6902                	ld	s2,0(sp)
   12cbe:	6105                	addi	sp,sp,32
   12cc0:	8082                	ret
   12cc2:	01255703          	lhu	a4,18(a0)
   12cc6:	892e                	mv	s2,a1
   12cc8:	8f7d                	and	a4,a4,a5
   12cca:	02f71463          	bne	a4,a5,12cf2 <emovi+0x8e>
   12cce:	f25ff0ef          	jal	ra,12bf2 <eisnan.part.0>
   12cd2:	c105                	beqz	a0,12cf2 <emovi+0x8e>
   12cd4:	00690713          	addi	a4,s2,6
   12cd8:	00091223          	sh	zero,4(s2)
   12cdc:	ffc48793          	addi	a5,s1,-4
   12ce0:	1479                	addi	s0,s0,-2
   12ce2:	00245683          	lhu	a3,2(s0)
   12ce6:	0709                	addi	a4,a4,2
   12ce8:	fed71f23          	sh	a3,-2(a4)
   12cec:	fe879ae3          	bne	a5,s0,12ce0 <emovi+0x7c>
   12cf0:	b7d9                	j	12cb6 <emovi+0x52>
   12cf2:	00490793          	addi	a5,s2,4
   12cf6:	01a90593          	addi	a1,s2,26
   12cfa:	0789                	addi	a5,a5,2
   12cfc:	fe079f23          	sh	zero,-2(a5)
   12d00:	fef59de3          	bne	a1,a5,12cfa <emovi+0x96>
   12d04:	60e2                	ld	ra,24(sp)
   12d06:	6442                	ld	s0,16(sp)
   12d08:	64a2                	ld	s1,8(sp)
   12d0a:	6902                	ld	s2,0(sp)
   12d0c:	6105                	addi	sp,sp,32
   12d0e:	8082                	ret

0000000000012d10 <ecmp>:
   12d10:	01255783          	lhu	a5,18(a0)
   12d14:	711d                	addi	sp,sp,-96
   12d16:	e8a2                	sd	s0,80(sp)
   12d18:	fff7c793          	not	a5,a5
   12d1c:	e4a6                	sd	s1,72(sp)
   12d1e:	ec86                	sd	ra,88(sp)
   12d20:	03179713          	slli	a4,a5,0x31
   12d24:	84aa                	mv	s1,a0
   12d26:	842e                	mv	s0,a1
   12d28:	e701                	bnez	a4,12d30 <ecmp+0x20>
   12d2a:	ec9ff0ef          	jal	ra,12bf2 <eisnan.part.0>
   12d2e:	ed39                	bnez	a0,12d8c <ecmp+0x7c>
   12d30:	01245783          	lhu	a5,18(s0)
   12d34:	fff7c793          	not	a5,a5
   12d38:	03179713          	slli	a4,a5,0x31
   12d3c:	c721                	beqz	a4,12d84 <ecmp+0x74>
   12d3e:	858a                	mv	a1,sp
   12d40:	8526                	mv	a0,s1
   12d42:	f23ff0ef          	jal	ra,12c64 <emovi>
   12d46:	100c                	addi	a1,sp,32
   12d48:	8522                	mv	a0,s0
   12d4a:	f1bff0ef          	jal	ra,12c64 <emovi>
   12d4e:	00015583          	lhu	a1,0(sp)
   12d52:	02015783          	lhu	a5,32(sp)
   12d56:	02b78d63          	beq	a5,a1,12d90 <ecmp+0x80>
   12d5a:	00210793          	addi	a5,sp,2
   12d5e:	02210713          	addi	a4,sp,34
   12d62:	0830                	addi	a2,sp,24
   12d64:	0007d683          	lhu	a3,0(a5)
   12d68:	0789                	addi	a5,a5,2
   12d6a:	e2ad                	bnez	a3,12dcc <ecmp+0xbc>
   12d6c:	00075683          	lhu	a3,0(a4)
   12d70:	0709                	addi	a4,a4,2
   12d72:	eea9                	bnez	a3,12dcc <ecmp+0xbc>
   12d74:	fec798e3          	bne	a5,a2,12d64 <ecmp+0x54>
   12d78:	4501                	li	a0,0
   12d7a:	60e6                	ld	ra,88(sp)
   12d7c:	6446                	ld	s0,80(sp)
   12d7e:	64a6                	ld	s1,72(sp)
   12d80:	6125                	addi	sp,sp,96
   12d82:	8082                	ret
   12d84:	8522                	mv	a0,s0
   12d86:	e6dff0ef          	jal	ra,12bf2 <eisnan.part.0>
   12d8a:	d955                	beqz	a0,12d3e <ecmp+0x2e>
   12d8c:	5579                	li	a0,-2
   12d8e:	b7f5                	j	12d7a <ecmp+0x6a>
   12d90:	4505                	li	a0,1
   12d92:	e1a9                	bnez	a1,12dd4 <ecmp+0xc4>
   12d94:	00210713          	addi	a4,sp,2
   12d98:	02210793          	addi	a5,sp,34
   12d9c:	0789                	addi	a5,a5,2
   12d9e:	0709                	addi	a4,a4,2
   12da0:	ffe75603          	lhu	a2,-2(a4)
   12da4:	ffe7d683          	lhu	a3,-2(a5)
   12da8:	182c                	addi	a1,sp,56
   12daa:	00d61c63          	bne	a2,a3,12dc2 <ecmp+0xb2>
   12dae:	fcb785e3          	beq	a5,a1,12d78 <ecmp+0x68>
   12db2:	0789                	addi	a5,a5,2
   12db4:	0709                	addi	a4,a4,2
   12db6:	ffe75603          	lhu	a2,-2(a4)
   12dba:	ffe7d683          	lhu	a3,-2(a5)
   12dbe:	fed608e3          	beq	a2,a3,12dae <ecmp+0x9e>
   12dc2:	fac6ece3          	bltu	a3,a2,12d7a <ecmp+0x6a>
   12dc6:	40a0053b          	negw	a0,a0
   12dca:	bf45                	j	12d7a <ecmp+0x6a>
   12dcc:	4505                	li	a0,1
   12dce:	d5d5                	beqz	a1,12d7a <ecmp+0x6a>
   12dd0:	557d                	li	a0,-1
   12dd2:	b765                	j	12d7a <ecmp+0x6a>
   12dd4:	557d                	li	a0,-1
   12dd6:	bf7d                	j	12d94 <ecmp+0x84>

0000000000012dd8 <eisinf.part.1>:
   12dd8:	1141                	addi	sp,sp,-16
   12dda:	e406                	sd	ra,8(sp)
   12ddc:	e17ff0ef          	jal	ra,12bf2 <eisnan.part.0>
   12de0:	60a2                	ld	ra,8(sp)
   12de2:	00153513          	seqz	a0,a0
   12de6:	0141                	addi	sp,sp,16
   12de8:	8082                	ret

0000000000012dea <eshift.part.3>:
   12dea:	1101                	addi	sp,sp,-32
   12dec:	e822                	sd	s0,16(sp)
   12dee:	e04a                	sd	s2,0(sp)
   12df0:	ec06                	sd	ra,24(sp)
   12df2:	e426                	sd	s1,8(sp)
   12df4:	892e                	mv	s2,a1
   12df6:	842a                	mv	s0,a0
   12df8:	0605cd63          	bltz	a1,12e72 <eshift.part.3+0x88>
   12dfc:	47bd                	li	a5,15
   12dfe:	862e                	mv	a2,a1
   12e00:	0511                	addi	a0,a0,4
   12e02:	01840693          	addi	a3,s0,24
   12e06:	45bd                	li	a1,15
   12e08:	0327d163          	bge	a5,s2,12e2a <eshift.part.3+0x40>
   12e0c:	87aa                	mv	a5,a0
   12e0e:	0789                	addi	a5,a5,2
   12e10:	0007d703          	lhu	a4,0(a5)
   12e14:	fee79f23          	sh	a4,-2(a5)
   12e18:	fed79be3          	bne	a5,a3,12e0e <eshift.part.3+0x24>
   12e1c:	00041c23          	sh	zero,24(s0)
   12e20:	3641                	addiw	a2,a2,-16
   12e22:	fec5c5e3          	blt	a1,a2,12e0c <eshift.part.3+0x22>
   12e26:	00f97913          	andi	s2,s2,15
   12e2a:	479d                	li	a5,7
   12e2c:	0327d463          	bge	a5,s2,12e54 <eshift.part.3+0x6a>
   12e30:	01840793          	addi	a5,s0,24
   12e34:	00240593          	addi	a1,s0,2
   12e38:	4701                	li	a4,0
   12e3a:	0007d683          	lhu	a3,0(a5)
   12e3e:	17f9                	addi	a5,a5,-2
   12e40:	00869613          	slli	a2,a3,0x8
   12e44:	8f51                	or	a4,a4,a2
   12e46:	00e79123          	sh	a4,2(a5)
   12e4a:	0086d713          	srli	a4,a3,0x8
   12e4e:	feb796e3          	bne	a5,a1,12e3a <eshift.part.3+0x50>
   12e52:	3961                	addiw	s2,s2,-8
   12e54:	00090863          	beqz	s2,12e64 <eshift.part.3+0x7a>
   12e58:	397d                	addiw	s2,s2,-1
   12e5a:	8522                	mv	a0,s0
   12e5c:	cc9ff0ef          	jal	ra,12b24 <eshup1>
   12e60:	fe091ce3          	bnez	s2,12e58 <eshift.part.3+0x6e>
   12e64:	60e2                	ld	ra,24(sp)
   12e66:	6442                	ld	s0,16(sp)
   12e68:	64a2                	ld	s1,8(sp)
   12e6a:	6902                	ld	s2,0(sp)
   12e6c:	4501                	li	a0,0
   12e6e:	6105                	addi	sp,sp,32
   12e70:	8082                	ret
   12e72:	57c5                	li	a5,-15
   12e74:	40b004bb          	negw	s1,a1
   12e78:	08f5dd63          	bge	a1,a5,12f12 <eshift.part.3+0x128>
   12e7c:	01850593          	addi	a1,a0,24
   12e80:	4901                	li	s2,0
   12e82:	00450693          	addi	a3,a0,4
   12e86:	463d                	li	a2,15
   12e88:	01845703          	lhu	a4,24(s0)
   12e8c:	87ae                	mv	a5,a1
   12e8e:	00e96933          	or	s2,s2,a4
   12e92:	17f9                	addi	a5,a5,-2
   12e94:	0007d703          	lhu	a4,0(a5)
   12e98:	00e79123          	sh	a4,2(a5)
   12e9c:	fed79be3          	bne	a5,a3,12e92 <eshift.part.3+0xa8>
   12ea0:	00041223          	sh	zero,4(s0)
   12ea4:	34c1                	addiw	s1,s1,-16
   12ea6:	fe9641e3          	blt	a2,s1,12e88 <eshift.part.3+0x9e>
   12eaa:	479d                	li	a5,7
   12eac:	0497d063          	bge	a5,s1,12eec <eshift.part.3+0x102>
   12eb0:	0109191b          	slliw	s2,s2,0x10
   12eb4:	4109591b          	sraiw	s2,s2,0x10
   12eb8:	01844783          	lbu	a5,24(s0)
   12ebc:	01a40593          	addi	a1,s0,26
   12ec0:	4701                	li	a4,0
   12ec2:	00f96933          	or	s2,s2,a5
   12ec6:	1942                	slli	s2,s2,0x30
   12ec8:	03095913          	srli	s2,s2,0x30
   12ecc:	0006d783          	lhu	a5,0(a3) # 8000 <register_fini-0x80b0>
   12ed0:	0689                	addi	a3,a3,2
   12ed2:	0087d61b          	srliw	a2,a5,0x8
   12ed6:	8f51                	or	a4,a4,a2
   12ed8:	0087979b          	slliw	a5,a5,0x8
   12edc:	fee69f23          	sh	a4,-2(a3)
   12ee0:	03079713          	slli	a4,a5,0x30
   12ee4:	9341                	srli	a4,a4,0x30
   12ee6:	feb693e3          	bne	a3,a1,12ecc <eshift.part.3+0xe2>
   12eea:	34e1                	addiw	s1,s1,-8
   12eec:	c899                	beqz	s1,12f02 <eshift.part.3+0x118>
   12eee:	01845783          	lhu	a5,24(s0)
   12ef2:	34fd                	addiw	s1,s1,-1
   12ef4:	8522                	mv	a0,s0
   12ef6:	8b85                	andi	a5,a5,1
   12ef8:	0127e933          	or	s2,a5,s2
   12efc:	bddff0ef          	jal	ra,12ad8 <eshdn1>
   12f00:	f4fd                	bnez	s1,12eee <eshift.part.3+0x104>
   12f02:	60e2                	ld	ra,24(sp)
   12f04:	6442                	ld	s0,16(sp)
   12f06:	01203533          	snez	a0,s2
   12f0a:	64a2                	ld	s1,8(sp)
   12f0c:	6902                	ld	s2,0(sp)
   12f0e:	6105                	addi	sp,sp,32
   12f10:	8082                	ret
   12f12:	57e5                	li	a5,-7
   12f14:	00f5c463          	blt	a1,a5,12f1c <eshift.part.3+0x132>
   12f18:	4901                	li	s2,0
   12f1a:	bfd1                	j	12eee <eshift.part.3+0x104>
   12f1c:	4901                	li	s2,0
   12f1e:	00440693          	addi	a3,s0,4
   12f22:	bf59                	j	12eb8 <eshift.part.3+0xce>

0000000000012f24 <enormlz>:
   12f24:	00455783          	lhu	a5,4(a0)
   12f28:	1101                	addi	sp,sp,-32
   12f2a:	e426                	sd	s1,8(sp)
   12f2c:	ec06                	sd	ra,24(sp)
   12f2e:	e822                	sd	s0,16(sp)
   12f30:	e04a                	sd	s2,0(sp)
   12f32:	84aa                	mv	s1,a0
   12f34:	ebc5                	bnez	a5,12fe4 <enormlz+0xc0>
   12f36:	00655703          	lhu	a4,6(a0)
   12f3a:	4401                	li	s0,0
   12f3c:	0107179b          	slliw	a5,a4,0x10
   12f40:	4107d79b          	sraiw	a5,a5,0x10
   12f44:	02079693          	slli	a3,a5,0x20
   12f48:	0806c763          	bltz	a3,12fd6 <enormlz+0xb2>
   12f4c:	01a50693          	addi	a3,a0,26
   12f50:	0a000613          	li	a2,160
   12f54:	e31d                	bnez	a4,12f7a <enormlz+0x56>
   12f56:	00648793          	addi	a5,s1,6
   12f5a:	a019                	j	12f60 <enormlz+0x3c>
   12f5c:	0007d703          	lhu	a4,0(a5)
   12f60:	0789                	addi	a5,a5,2
   12f62:	fee79e23          	sh	a4,-4(a5)
   12f66:	fef69be3          	bne	a3,a5,12f5c <enormlz+0x38>
   12f6a:	00049c23          	sh	zero,24(s1)
   12f6e:	2441                	addiw	s0,s0,16
   12f70:	06c40363          	beq	s0,a2,12fd6 <enormlz+0xb2>
   12f74:	0064d703          	lhu	a4,6(s1)
   12f78:	df79                	beqz	a4,12f56 <enormlz+0x32>
   12f7a:	f0077793          	andi	a5,a4,-256
   12f7e:	eb8d                	bnez	a5,12fb0 <enormlz+0x8c>
   12f80:	01848513          	addi	a0,s1,24
   12f84:	00248593          	addi	a1,s1,2
   12f88:	4701                	li	a4,0
   12f8a:	87aa                	mv	a5,a0
   12f8c:	0007d683          	lhu	a3,0(a5)
   12f90:	17f9                	addi	a5,a5,-2
   12f92:	00869613          	slli	a2,a3,0x8
   12f96:	8f51                	or	a4,a4,a2
   12f98:	00e79123          	sh	a4,2(a5)
   12f9c:	0086d713          	srli	a4,a3,0x8
   12fa0:	fef596e3          	bne	a1,a5,12f8c <enormlz+0x68>
   12fa4:	0064d703          	lhu	a4,6(s1)
   12fa8:	2421                	addiw	s0,s0,8
   12faa:	f0077793          	andi	a5,a4,-256
   12fae:	dfe9                	beqz	a5,12f88 <enormlz+0x64>
   12fb0:	0a000913          	li	s2,160
   12fb4:	a801                	j	12fc4 <enormlz+0xa0>
   12fb6:	2405                	addiw	s0,s0,1
   12fb8:	b6dff0ef          	jal	ra,12b24 <eshup1>
   12fbc:	00894d63          	blt	s2,s0,12fd6 <enormlz+0xb2>
   12fc0:	0064d703          	lhu	a4,6(s1)
   12fc4:	0107171b          	slliw	a4,a4,0x10
   12fc8:	4107571b          	sraiw	a4,a4,0x10
   12fcc:	02071793          	slli	a5,a4,0x20
   12fd0:	8526                	mv	a0,s1
   12fd2:	fe07d2e3          	bgez	a5,12fb6 <enormlz+0x92>
   12fd6:	8522                	mv	a0,s0
   12fd8:	60e2                	ld	ra,24(sp)
   12fda:	6442                	ld	s0,16(sp)
   12fdc:	64a2                	ld	s1,8(sp)
   12fde:	6902                	ld	s2,0(sp)
   12fe0:	6105                	addi	sp,sp,32
   12fe2:	8082                	ret
   12fe4:	f007f713          	andi	a4,a5,-256
   12fe8:	4401                	li	s0,0
   12fea:	e705                	bnez	a4,13012 <enormlz+0xee>
   12fec:	f6f00913          	li	s2,-145
   12ff0:	a801                	j	13000 <enormlz+0xdc>
   12ff2:	347d                	addiw	s0,s0,-1
   12ff4:	ae5ff0ef          	jal	ra,12ad8 <eshdn1>
   12ff8:	fd240fe3          	beq	s0,s2,12fd6 <enormlz+0xb2>
   12ffc:	0044d783          	lhu	a5,4(s1)
   13000:	8526                	mv	a0,s1
   13002:	fbe5                	bnez	a5,12ff2 <enormlz+0xce>
   13004:	8522                	mv	a0,s0
   13006:	60e2                	ld	ra,24(sp)
   13008:	6442                	ld	s0,16(sp)
   1300a:	64a2                	ld	s1,8(sp)
   1300c:	6902                	ld	s2,0(sp)
   1300e:	6105                	addi	sp,sp,32
   13010:	8082                	ret
   13012:	00450693          	addi	a3,a0,4
   13016:	01a50593          	addi	a1,a0,26
   1301a:	4701                	li	a4,0
   1301c:	a019                	j	13022 <enormlz+0xfe>
   1301e:	0006d783          	lhu	a5,0(a3)
   13022:	0087d61b          	srliw	a2,a5,0x8
   13026:	8f51                	or	a4,a4,a2
   13028:	0087979b          	slliw	a5,a5,0x8
   1302c:	00e69023          	sh	a4,0(a3)
   13030:	03079713          	slli	a4,a5,0x30
   13034:	0689                	addi	a3,a3,2
   13036:	9341                	srli	a4,a4,0x30
   13038:	feb693e3          	bne	a3,a1,1301e <enormlz+0xfa>
   1303c:	0044d783          	lhu	a5,4(s1)
   13040:	5461                	li	s0,-8
   13042:	b76d                	j	12fec <enormlz+0xc8>

0000000000013044 <emdnorm>:
   13044:	7139                	addi	sp,sp,-64
   13046:	f822                	sd	s0,48(sp)
   13048:	f426                	sd	s1,40(sp)
   1304a:	f04a                	sd	s2,32(sp)
   1304c:	ec4e                	sd	s3,24(sp)
   1304e:	e852                	sd	s4,16(sp)
   13050:	e456                	sd	s5,8(sp)
   13052:	8936                	mv	s2,a3
   13054:	84be                	mv	s1,a5
   13056:	fc06                	sd	ra,56(sp)
   13058:	842a                	mv	s0,a0
   1305a:	89ae                	mv	s3,a1
   1305c:	8a32                	mv	s4,a2
   1305e:	8aba                	mv	s5,a4
   13060:	ec5ff0ef          	jal	ra,12f24 <enormlz>
   13064:	09000793          	li	a5,144
   13068:	40a90933          	sub	s2,s2,a0
   1306c:	06a7d163          	bge	a5,a0,130ce <emdnorm+0x8a>
   13070:	67a1                	lui	a5,0x8
   13072:	17f9                	addi	a5,a5,-2
   13074:	1b27da63          	bge	a5,s2,13228 <emdnorm+0x1e4>
   13078:	180a8863          	beqz	s5,13208 <emdnorm+0x1c4>
   1307c:	40c8                	lw	a0,4(s1)
   1307e:	409c                	lw	a5,0(s1)
   13080:	0ca78163          	beq	a5,a0,13142 <emdnorm+0xfe>
   13084:	01a48713          	addi	a4,s1,26
   13088:	03448793          	addi	a5,s1,52
   1308c:	0709                	addi	a4,a4,2
   1308e:	fe071f23          	sh	zero,-2(a4)
   13092:	fef71de3          	bne	a4,a5,1308c <emdnorm+0x48>
   13096:	03800793          	li	a5,56
   1309a:	28f50c63          	beq	a0,a5,13332 <emdnorm+0x2ee>
   1309e:	04a7d763          	bge	a5,a0,130ec <emdnorm+0xa8>
   130a2:	04000793          	li	a5,64
   130a6:	24f50963          	beq	a0,a5,132f8 <emdnorm+0x2b4>
   130aa:	07100793          	li	a5,113
   130ae:	26f51263          	bne	a0,a5,13312 <emdnorm+0x2ce>
   130b2:	47a9                	li	a5,10
   130b4:	40008737          	lui	a4,0x40008
   130b8:	177d                	addi	a4,a4,-1
   130ba:	1782                	slli	a5,a5,0x20
   130bc:	07a9                	addi	a5,a5,10
   130be:	c8d8                	sw	a4,20(s1)
   130c0:	7761                	lui	a4,0xffff8
   130c2:	00e49c23          	sh	a4,24(s1)
   130c6:	e49c                	sd	a5,8(s1)
   130c8:	6721                	lui	a4,0x8
   130ca:	47a9                	li	a5,10
   130cc:	a0b1                	j	13118 <emdnorm+0xd4>
   130ce:	18095463          	bgez	s2,13256 <emdnorm+0x212>
   130d2:	f7000793          	li	a5,-144
   130d6:	16f95263          	bge	s2,a5,1323a <emdnorm+0x1f6>
   130da:	00240793          	addi	a5,s0,2
   130de:	0469                	addi	s0,s0,26
   130e0:	0789                	addi	a5,a5,2
   130e2:	fe079f23          	sh	zero,-2(a5) # 7ffe <register_fini-0x80b2>
   130e6:	fe879de3          	bne	a5,s0,130e0 <emdnorm+0x9c>
   130ea:	a231                	j	131f6 <emdnorm+0x1b2>
   130ec:	47e1                	li	a5,24
   130ee:	1ef50663          	beq	a0,a5,132da <emdnorm+0x296>
   130f2:	03500793          	li	a5,53
   130f6:	20f51e63          	bne	a0,a5,13312 <emdnorm+0x2ce>
   130fa:	040006b7          	lui	a3,0x4000
   130fe:	6705                	lui	a4,0x1
   13100:	7ff68693          	addi	a3,a3,2047 # 40007ff <__BSS_END__+0x3fe185f>
   13104:	4799                	li	a5,6
   13106:	80070713          	addi	a4,a4,-2048 # 800 <register_fini-0xf8b0>
   1310a:	c8d4                	sw	a3,20(s1)
   1310c:	1782                	slli	a5,a5,0x20
   1310e:	0799                	addi	a5,a5,6
   13110:	e49c                	sd	a5,8(s1)
   13112:	00e49c23          	sh	a4,24(s1)
   13116:	4799                	li	a5,6
   13118:	07a1                	addi	a5,a5,8
   1311a:	0786                	slli	a5,a5,0x1
   1311c:	97a6                	add	a5,a5,s1
   1311e:	00e79523          	sh	a4,10(a5)
   13122:	c088                	sw	a0,0(s1)
   13124:	01204f63          	bgtz	s2,13142 <emdnorm+0xfe>
   13128:	09000793          	li	a5,144
   1312c:	18f50763          	beq	a0,a5,132ba <emdnorm+0x276>
   13130:	01845783          	lhu	a5,24(s0)
   13134:	8522                	mv	a0,s0
   13136:	8b85                	andi	a5,a5,1
   13138:	00f9e9b3          	or	s3,s3,a5
   1313c:	99dff0ef          	jal	ra,12ad8 <eshdn1>
   13140:	40c8                	lw	a0,4(s1)
   13142:	4494                	lw	a3,8(s1)
   13144:	0144d603          	lhu	a2,20(s1)
   13148:	08f00793          	li	a5,143
   1314c:	00169713          	slli	a4,a3,0x1
   13150:	00e40833          	add	a6,s0,a4
   13154:	00085883          	lhu	a7,0(a6) # ffffffffffff8000 <__BSS_END__+0xfffffffffffd9060>
   13158:	00c8f5b3          	and	a1,a7,a2
   1315c:	02a7ce63          	blt	a5,a0,13198 <emdnorm+0x154>
   13160:	47ad                	li	a5,11
   13162:	02d7cb63          	blt	a5,a3,13198 <emdnorm+0x154>
   13166:	9f95                	subw	a5,a5,a3
   13168:	1782                	slli	a5,a5,0x20
   1316a:	9381                	srli	a5,a5,0x20
   1316c:	97b6                	add	a5,a5,a3
   1316e:	00179693          	slli	a3,a5,0x1
   13172:	0709                	addi	a4,a4,2
   13174:	00440793          	addi	a5,s0,4
   13178:	9722                	add	a4,a4,s0
   1317a:	97b6                	add	a5,a5,a3
   1317c:	00075683          	lhu	a3,0(a4)
   13180:	c299                	beqz	a3,13186 <emdnorm+0x142>
   13182:	0015e593          	ori	a1,a1,1
   13186:	00071023          	sh	zero,0(a4)
   1318a:	0709                	addi	a4,a4,2
   1318c:	fee798e3          	bne	a5,a4,1317c <emdnorm+0x138>
   13190:	00085883          	lhu	a7,0(a6)
   13194:	0144d603          	lhu	a2,20(s1)
   13198:	fff64613          	not	a2,a2
   1319c:	01167633          	and	a2,a2,a7
   131a0:	00c81023          	sh	a2,0(a6)
   131a4:	0164d783          	lhu	a5,22(s1)
   131a8:	00b7f733          	and	a4,a5,a1
   131ac:	cb05                	beqz	a4,131dc <emdnorm+0x198>
   131ae:	0cb78a63          	beq	a5,a1,13282 <emdnorm+0x23e>
   131b2:	03248613          	addi	a2,s1,50
   131b6:	01840713          	addi	a4,s0,24
   131ba:	04f1                	addi	s1,s1,28
   131bc:	4681                	li	a3,0
   131be:	00065783          	lhu	a5,0(a2)
   131c2:	00075583          	lhu	a1,0(a4)
   131c6:	1779                	addi	a4,a4,-2
   131c8:	1679                	addi	a2,a2,-2
   131ca:	97ae                	add	a5,a5,a1
   131cc:	97b6                	add	a5,a5,a3
   131ce:	00f71123          	sh	a5,2(a4)
   131d2:	83c1                	srli	a5,a5,0x10
   131d4:	0017f693          	andi	a3,a5,1
   131d8:	fe9613e3          	bne	a2,s1,131be <emdnorm+0x17a>
   131dc:	0d205063          	blez	s2,1329c <emdnorm+0x258>
   131e0:	00445783          	lhu	a5,4(s0)
   131e4:	e3c1                	bnez	a5,13264 <emdnorm+0x220>
   131e6:	67a1                	lui	a5,0x8
   131e8:	00041c23          	sh	zero,24(s0)
   131ec:	17f9                	addi	a5,a5,-2
   131ee:	0127cf63          	blt	a5,s2,1320c <emdnorm+0x1c8>
   131f2:	01241123          	sh	s2,2(s0)
   131f6:	70e2                	ld	ra,56(sp)
   131f8:	7442                	ld	s0,48(sp)
   131fa:	74a2                	ld	s1,40(sp)
   131fc:	7902                	ld	s2,32(sp)
   131fe:	69e2                	ld	s3,24(sp)
   13200:	6a42                	ld	s4,16(sp)
   13202:	6aa2                	ld	s5,8(sp)
   13204:	6121                	addi	sp,sp,64
   13206:	8082                	ret
   13208:	00041c23          	sh	zero,24(s0)
   1320c:	77e1                	lui	a5,0xffff8
   1320e:	fff7c793          	not	a5,a5
   13212:	00f41123          	sh	a5,2(s0)
   13216:	00440793          	addi	a5,s0,4
   1321a:	0461                	addi	s0,s0,24
   1321c:	00079023          	sh	zero,0(a5) # ffffffffffff8000 <__BSS_END__+0xfffffffffffd9060>
   13220:	0789                	addi	a5,a5,2
   13222:	fef41de3          	bne	s0,a5,1321c <emdnorm+0x1d8>
   13226:	bfc1                	j	131f6 <emdnorm+0x1b2>
   13228:	00240793          	addi	a5,s0,2
   1322c:	0469                	addi	s0,s0,26
   1322e:	0789                	addi	a5,a5,2
   13230:	fe079f23          	sh	zero,-2(a5)
   13234:	fe879de3          	bne	a5,s0,1322e <emdnorm+0x1ea>
   13238:	bf7d                	j	131f6 <emdnorm+0x1b2>
   1323a:	0009059b          	sext.w	a1,s2
   1323e:	8522                	mv	a0,s0
   13240:	babff0ef          	jal	ra,12dea <eshift.part.3>
   13244:	c111                	beqz	a0,13248 <emdnorm+0x204>
   13246:	4985                	li	s3,1
   13248:	080a8463          	beqz	s5,132d0 <emdnorm+0x28c>
   1324c:	40c8                	lw	a0,4(s1)
   1324e:	409c                	lw	a5,0(s1)
   13250:	e2a79ae3          	bne	a5,a0,13084 <emdnorm+0x40>
   13254:	bdd1                	j	13128 <emdnorm+0xe4>
   13256:	f80a88e3          	beqz	s5,131e6 <emdnorm+0x1a2>
   1325a:	40c8                	lw	a0,4(s1)
   1325c:	409c                	lw	a5,0(s1)
   1325e:	e2a793e3          	bne	a5,a0,13084 <emdnorm+0x40>
   13262:	b5c9                	j	13124 <emdnorm+0xe0>
   13264:	8522                	mv	a0,s0
   13266:	873ff0ef          	jal	ra,12ad8 <eshdn1>
   1326a:	67a1                	lui	a5,0x8
   1326c:	0905                	addi	s2,s2,1
   1326e:	00041c23          	sh	zero,24(s0)
   13272:	17f9                	addi	a5,a5,-2
   13274:	f927cce3          	blt	a5,s2,1320c <emdnorm+0x1c8>
   13278:	f6095de3          	bgez	s2,131f2 <emdnorm+0x1ae>
   1327c:	00041123          	sh	zero,2(s0)
   13280:	bf9d                	j	131f6 <emdnorm+0x1b2>
   13282:	0a099563          	bnez	s3,1332c <emdnorm+0x2e8>
   13286:	44dc                	lw	a5,12(s1)
   13288:	0184d703          	lhu	a4,24(s1)
   1328c:	0786                	slli	a5,a5,0x1
   1328e:	97a2                	add	a5,a5,s0
   13290:	0007d783          	lhu	a5,0(a5) # 8000 <register_fini-0x80b0>
   13294:	8ff9                	and	a5,a5,a4
   13296:	ff91                	bnez	a5,131b2 <emdnorm+0x16e>
   13298:	f52044e3          	bgtz	s2,131e0 <emdnorm+0x19c>
   1329c:	09000793          	li	a5,144
   132a0:	00f50563          	beq	a0,a5,132aa <emdnorm+0x266>
   132a4:	8522                	mv	a0,s0
   132a6:	87fff0ef          	jal	ra,12b24 <eshup1>
   132aa:	00445783          	lhu	a5,4(s0)
   132ae:	fbdd                	bnez	a5,13264 <emdnorm+0x220>
   132b0:	00041c23          	sh	zero,24(s0)
   132b4:	fc0944e3          	bltz	s2,1327c <emdnorm+0x238>
   132b8:	bf2d                	j	131f2 <emdnorm+0x1ae>
   132ba:	0084a803          	lw	a6,8(s1)
   132be:	0144d603          	lhu	a2,20(s1)
   132c2:	0806                	slli	a6,a6,0x1
   132c4:	9822                	add	a6,a6,s0
   132c6:	00085883          	lhu	a7,0(a6)
   132ca:	011675b3          	and	a1,a2,a7
   132ce:	b5e9                	j	13198 <emdnorm+0x154>
   132d0:	00041c23          	sh	zero,24(s0)
   132d4:	00041123          	sh	zero,2(s0)
   132d8:	bf39                	j	131f6 <emdnorm+0x1b2>
   132da:	4791                	li	a5,4
   132dc:	00800737          	lui	a4,0x800
   132e0:	0ff70713          	addi	a4,a4,255 # 8000ff <__BSS_END__+0x7e115f>
   132e4:	1782                	slli	a5,a5,0x20
   132e6:	0791                	addi	a5,a5,4
   132e8:	c8d8                	sw	a4,20(s1)
   132ea:	10000713          	li	a4,256
   132ee:	e49c                	sd	a5,8(s1)
   132f0:	00e49c23          	sh	a4,24(s1)
   132f4:	4791                	li	a5,4
   132f6:	b50d                	j	13118 <emdnorm+0xd4>
   132f8:	478d                	li	a5,3
   132fa:	80010737          	lui	a4,0x80010
   132fe:	177d                	addi	a4,a4,-1
   13300:	1786                	slli	a5,a5,0x21
   13302:	079d                	addi	a5,a5,7
   13304:	c8d8                	sw	a4,20(s1)
   13306:	4705                	li	a4,1
   13308:	e49c                	sd	a5,8(s1)
   1330a:	00e49c23          	sh	a4,24(s1)
   1330e:	4799                	li	a5,6
   13310:	b521                	j	13118 <emdnorm+0xd4>
   13312:	47ad                	li	a5,11
   13314:	80010737          	lui	a4,0x80010
   13318:	177d                	addi	a4,a4,-1
   1331a:	1782                	slli	a5,a5,0x20
   1331c:	07b1                	addi	a5,a5,12
   1331e:	c8d8                	sw	a4,20(s1)
   13320:	4705                	li	a4,1
   13322:	e49c                	sd	a5,8(s1)
   13324:	00e49c23          	sh	a4,24(s1)
   13328:	47ad                	li	a5,11
   1332a:	b3fd                	j	13118 <emdnorm+0xd4>
   1332c:	e80a03e3          	beqz	s4,131b2 <emdnorm+0x16e>
   13330:	b575                	j	131dc <emdnorm+0x198>
   13332:	00800737          	lui	a4,0x800
   13336:	0ff70713          	addi	a4,a4,255 # 8000ff <__BSS_END__+0x7e115f>
   1333a:	c8d8                	sw	a4,20(s1)
   1333c:	4799                	li	a5,6
   1333e:	10000713          	li	a4,256
   13342:	b3e9                	j	1310c <emdnorm+0xc8>

0000000000013344 <eiremain>:
   13344:	711d                	addi	sp,sp,-96
   13346:	fc4e                	sd	s3,56(sp)
   13348:	00255983          	lhu	s3,2(a0)
   1334c:	e4a6                	sd	s1,72(sp)
   1334e:	84ae                	mv	s1,a1
   13350:	ec86                	sd	ra,88(sp)
   13352:	e8a2                	sd	s0,80(sp)
   13354:	e0ca                	sd	s2,64(sp)
   13356:	f852                	sd	s4,48(sp)
   13358:	8932                	mv	s2,a2
   1335a:	f456                	sd	s5,40(sp)
   1335c:	f05a                	sd	s6,32(sp)
   1335e:	ec5e                	sd	s7,24(sp)
   13360:	e862                	sd	s8,16(sp)
   13362:	e466                	sd	s9,8(sp)
   13364:	e06a                	sd	s10,0(sp)
   13366:	8a2a                	mv	s4,a0
   13368:	bbdff0ef          	jal	ra,12f24 <enormlz>
   1336c:	0024d403          	lhu	s0,2(s1)
   13370:	40a989b3          	sub	s3,s3,a0
   13374:	8526                	mv	a0,s1
   13376:	bafff0ef          	jal	ra,12f24 <enormlz>
   1337a:	03490a93          	addi	s5,s2,52
   1337e:	8c09                	sub	s0,s0,a0
   13380:	04e90713          	addi	a4,s2,78
   13384:	87d6                	mv	a5,s5
   13386:	0789                	addi	a5,a5,2
   13388:	fe079f23          	sh	zero,-2(a5)
   1338c:	fee79de3          	bne	a5,a4,13386 <eiremain+0x42>
   13390:	07344b63          	blt	s0,s3,13406 <eiremain+0xc2>
   13394:	004a0b93          	addi	s7,s4,4
   13398:	00448b13          	addi	s6,s1,4
   1339c:	19fd                	addi	s3,s3,-1
   1339e:	01aa0c93          	addi	s9,s4,26
   133a2:	00248c13          	addi	s8,s1,2
   133a6:	875a                	mv	a4,s6
   133a8:	87de                	mv	a5,s7
   133aa:	0789                	addi	a5,a5,2
   133ac:	0709                	addi	a4,a4,2
   133ae:	ffe7d603          	lhu	a2,-2(a5)
   133b2:	ffe75683          	lhu	a3,-2(a4)
   133b6:	06d61c63          	bne	a2,a3,1342e <eiremain+0xea>
   133ba:	fefc98e3          	bne	s9,a5,133aa <eiremain+0x66>
   133be:	018a0693          	addi	a3,s4,24
   133c2:	01848713          	addi	a4,s1,24
   133c6:	4601                	li	a2,0
   133c8:	00075783          	lhu	a5,0(a4)
   133cc:	0006d583          	lhu	a1,0(a3)
   133d0:	1779                	addi	a4,a4,-2
   133d2:	8f91                	sub	a5,a5,a2
   133d4:	8f8d                	sub	a5,a5,a1
   133d6:	00f71123          	sh	a5,2(a4)
   133da:	83c1                	srli	a5,a5,0x10
   133dc:	16f9                	addi	a3,a3,-2
   133de:	0017f613          	andi	a2,a5,1
   133e2:	feec13e3          	bne	s8,a4,133c8 <eiremain+0x84>
   133e6:	4d05                	li	s10,1
   133e8:	8556                	mv	a0,s5
   133ea:	f3aff0ef          	jal	ra,12b24 <eshup1>
   133ee:	04c95783          	lhu	a5,76(s2)
   133f2:	147d                	addi	s0,s0,-1
   133f4:	8526                	mv	a0,s1
   133f6:	00fd6d33          	or	s10,s10,a5
   133fa:	05a91623          	sh	s10,76(s2)
   133fe:	f26ff0ef          	jal	ra,12b24 <eshup1>
   13402:	fb3412e3          	bne	s0,s3,133a6 <eiremain+0x62>
   13406:	86a2                	mv	a3,s0
   13408:	6446                	ld	s0,80(sp)
   1340a:	60e6                	ld	ra,88(sp)
   1340c:	79e2                	ld	s3,56(sp)
   1340e:	7a42                	ld	s4,48(sp)
   13410:	7aa2                	ld	s5,40(sp)
   13412:	7b02                	ld	s6,32(sp)
   13414:	6be2                	ld	s7,24(sp)
   13416:	6c42                	ld	s8,16(sp)
   13418:	6ca2                	ld	s9,8(sp)
   1341a:	6d02                	ld	s10,0(sp)
   1341c:	87ca                	mv	a5,s2
   1341e:	8526                	mv	a0,s1
   13420:	6906                	ld	s2,64(sp)
   13422:	64a6                	ld	s1,72(sp)
   13424:	4701                	li	a4,0
   13426:	4601                	li	a2,0
   13428:	4581                	li	a1,0
   1342a:	6125                	addi	sp,sp,96
   1342c:	b921                	j	13044 <emdnorm>
   1342e:	4d01                	li	s10,0
   13430:	fac6ece3          	bltu	a3,a2,133e8 <eiremain+0xa4>
   13434:	b769                	j	133be <eiremain+0x7a>

0000000000013436 <emovo.isra.6>:
   13436:	00055703          	lhu	a4,0(a0)
   1343a:	00255783          	lhu	a5,2(a0)
   1343e:	c319                	beqz	a4,13444 <emovo.isra.6+0xe>
   13440:	6721                	lui	a4,0x8
   13442:	8fd9                	or	a5,a5,a4
   13444:	00f59923          	sh	a5,18(a1)
   13448:	00255703          	lhu	a4,2(a0)
   1344c:	67a1                	lui	a5,0x8
   1344e:	17fd                	addi	a5,a5,-1
   13450:	00f70f63          	beq	a4,a5,1346e <emovo.isra.6+0x38>
   13454:	00650793          	addi	a5,a0,6
   13458:	05c1                	addi	a1,a1,16
   1345a:	0561                	addi	a0,a0,24
   1345c:	0789                	addi	a5,a5,2
   1345e:	ffe7d703          	lhu	a4,-2(a5) # 7ffe <register_fini-0x80b2>
   13462:	15f9                	addi	a1,a1,-2
   13464:	00e59123          	sh	a4,2(a1)
   13468:	fea79ae3          	bne	a5,a0,1345c <emovo.isra.6+0x26>
   1346c:	8082                	ret
   1346e:	00650793          	addi	a5,a0,6
   13472:	0569                	addi	a0,a0,26
   13474:	0007d703          	lhu	a4,0(a5)
   13478:	0789                	addi	a5,a5,2
   1347a:	e31d                	bnez	a4,134a0 <emovo.isra.6+0x6a>
   1347c:	fea79ce3          	bne	a5,a0,13474 <emovo.isra.6+0x3e>
   13480:	01258713          	addi	a4,a1,18
   13484:	87ae                	mv	a5,a1
   13486:	0789                	addi	a5,a5,2
   13488:	fe079f23          	sh	zero,-2(a5)
   1348c:	fef71de3          	bne	a4,a5,13486 <emovo.isra.6+0x50>
   13490:	0125d783          	lhu	a5,18(a1)
   13494:	6721                	lui	a4,0x8
   13496:	177d                	addi	a4,a4,-1
   13498:	8fd9                	or	a5,a5,a4
   1349a:	00f59923          	sh	a5,18(a1)
   1349e:	8082                	ret
   134a0:	01058713          	addi	a4,a1,16
   134a4:	87ae                	mv	a5,a1
   134a6:	0789                	addi	a5,a5,2
   134a8:	fe079f23          	sh	zero,-2(a5)
   134ac:	fef71de3          	bne	a4,a5,134a6 <emovo.isra.6+0x70>
   134b0:	7fffc7b7          	lui	a5,0x7fffc
   134b4:	c99c                	sw	a5,16(a1)
   134b6:	8082                	ret

00000000000134b8 <emul>:
   134b8:	7131                	addi	sp,sp,-192
   134ba:	e556                	sd	s5,136(sp)
   134bc:	01255a83          	lhu	s5,18(a0)
   134c0:	67a1                	lui	a5,0x8
   134c2:	17fd                	addi	a5,a5,-1
   134c4:	f922                	sd	s0,176(sp)
   134c6:	f526                	sd	s1,168(sp)
   134c8:	f14a                	sd	s2,160(sp)
   134ca:	ed4e                	sd	s3,152(sp)
   134cc:	e15a                	sd	s6,128(sp)
   134ce:	fd06                	sd	ra,184(sp)
   134d0:	e952                	sd	s4,144(sp)
   134d2:	fcde                	sd	s7,120(sp)
   134d4:	f8e2                	sd	s8,112(sp)
   134d6:	f4e6                	sd	s9,104(sp)
   134d8:	0157fb33          	and	s6,a5,s5
   134dc:	84aa                	mv	s1,a0
   134de:	892e                	mv	s2,a1
   134e0:	8432                	mv	s0,a2
   134e2:	89b6                	mv	s3,a3
   134e4:	08fb1663          	bne	s6,a5,13570 <emul+0xb8>
   134e8:	f0aff0ef          	jal	ra,12bf2 <eisnan.part.0>
   134ec:	18051c63          	bnez	a0,13684 <emul+0x1cc>
   134f0:	01295a03          	lhu	s4,18(s2)
   134f4:	014b77b3          	and	a5,s6,s4
   134f8:	1b679163          	bne	a5,s6,1369a <emul+0x1e2>
   134fc:	854a                	mv	a0,s2
   134fe:	ef4ff0ef          	jal	ra,12bf2 <eisnan.part.0>
   13502:	e149                	bnez	a0,13584 <emul+0xcc>
   13504:	8526                	mv	a0,s1
   13506:	8d3ff0ef          	jal	ra,12dd8 <eisinf.part.1>
   1350a:	18051c63          	bnez	a0,136a2 <emul+0x1ea>
   1350e:	67a1                	lui	a5,0x8
   13510:	17fd                	addi	a5,a5,-1
   13512:	0147fa33          	and	s4,a5,s4
   13516:	1a42                	slli	s4,s4,0x30
   13518:	030a5a13          	srli	s4,s4,0x30
   1351c:	20fa1d63          	bne	s4,a5,13736 <emul+0x27e>
   13520:	854a                	mv	a0,s2
   13522:	8b7ff0ef          	jal	ra,12dd8 <eisinf.part.1>
   13526:	26051063          	bnez	a0,13786 <emul+0x2ce>
   1352a:	0124d783          	lhu	a5,18(s1)
   1352e:	00fa77b3          	and	a5,s4,a5
   13532:	19478463          	beq	a5,s4,136ba <emul+0x202>
   13536:	8526                	mv	a0,s1
   13538:	858a                	mv	a1,sp
   1353a:	f2aff0ef          	jal	ra,12c64 <emovi>
   1353e:	854a                	mv	a0,s2
   13540:	100c                	addi	a1,sp,32
   13542:	f22ff0ef          	jal	ra,12c64 <emovi>
   13546:	00215483          	lhu	s1,2(sp)
   1354a:	02215903          	lhu	s2,34(sp)
   1354e:	e0b5                	bnez	s1,135b2 <emul+0xfa>
   13550:	005c                	addi	a5,sp,4
   13552:	0834                	addi	a3,sp,24
   13554:	20d78963          	beq	a5,a3,13766 <emul+0x2ae>
   13558:	0789                	addi	a5,a5,2
   1355a:	ffe7d703          	lhu	a4,-2(a5) # 7ffe <register_fini-0x80b2>
   1355e:	db7d                	beqz	a4,13554 <emul+0x9c>
   13560:	850a                	mv	a0,sp
   13562:	9c3ff0ef          	jal	ra,12f24 <enormlz>
   13566:	40a004b3          	neg	s1,a0
   1356a:	02215703          	lhu	a4,34(sp)
   1356e:	a099                	j	135b4 <emul+0xfc>
   13570:	0125da03          	lhu	s4,18(a1)
   13574:	0147f733          	and	a4,a5,s4
   13578:	faf71fe3          	bne	a4,a5,13536 <emul+0x7e>
   1357c:	852e                	mv	a0,a1
   1357e:	e74ff0ef          	jal	ra,12bf2 <eisnan.part.0>
   13582:	d551                	beqz	a0,1350e <emul+0x56>
   13584:	01490713          	addi	a4,s2,20
   13588:	0909                	addi	s2,s2,2
   1358a:	ffe95783          	lhu	a5,-2(s2)
   1358e:	0409                	addi	s0,s0,2
   13590:	fef41f23          	sh	a5,-2(s0)
   13594:	fee91ae3          	bne	s2,a4,13588 <emul+0xd0>
   13598:	70ea                	ld	ra,184(sp)
   1359a:	744a                	ld	s0,176(sp)
   1359c:	74aa                	ld	s1,168(sp)
   1359e:	790a                	ld	s2,160(sp)
   135a0:	69ea                	ld	s3,152(sp)
   135a2:	6a4a                	ld	s4,144(sp)
   135a4:	6aaa                	ld	s5,136(sp)
   135a6:	6b0a                	ld	s6,128(sp)
   135a8:	7be6                	ld	s7,120(sp)
   135aa:	7c46                	ld	s8,112(sp)
   135ac:	7ca6                	ld	s9,104(sp)
   135ae:	6129                	addi	sp,sp,192
   135b0:	8082                	ret
   135b2:	874a                	mv	a4,s2
   135b4:	8b4a                	mv	s6,s2
   135b6:	105c                	addi	a5,sp,36
   135b8:	1834                	addi	a3,sp,56
   135ba:	ef11                	bnez	a4,135d6 <emul+0x11e>
   135bc:	1af68d63          	beq	a3,a5,13776 <emul+0x2be>
   135c0:	0789                	addi	a5,a5,2
   135c2:	ffe7d703          	lhu	a4,-2(a5)
   135c6:	db7d                	beqz	a4,135bc <emul+0x104>
   135c8:	1008                	addi	a0,sp,32
   135ca:	95bff0ef          	jal	ra,12f24 <enormlz>
   135ce:	02215703          	lhu	a4,34(sp)
   135d2:	40a90b33          	sub	s6,s2,a0
   135d6:	02015783          	lhu	a5,32(sp)
   135da:	03898a93          	addi	s5,s3,56
   135de:	02e99b23          	sh	a4,54(s3)
   135e2:	02f99a23          	sh	a5,52(s3)
   135e6:	04e98713          	addi	a4,s3,78
   135ea:	87d6                	mv	a5,s5
   135ec:	00079023          	sh	zero,0(a5)
   135f0:	0789                	addi	a5,a5,2
   135f2:	fef71de3          	bne	a4,a5,135ec <emul+0x134>
   135f6:	04c98b93          	addi	s7,s3,76
   135fa:	4a01                	li	s4,0
   135fc:	01810913          	addi	s2,sp,24
   13600:	00410c93          	addi	s9,sp,4
   13604:	04210c13          	addi	s8,sp,66
   13608:	00095503          	lhu	a0,0(s2)
   1360c:	1979                	addi	s2,s2,-2
   1360e:	0e051d63          	bnez	a0,13708 <emul+0x250>
   13612:	04c9d703          	lhu	a4,76(s3)
   13616:	87de                	mv	a5,s7
   13618:	00ea6a33          	or	s4,s4,a4
   1361c:	17f9                	addi	a5,a5,-2
   1361e:	0007d703          	lhu	a4,0(a5)
   13622:	00e79123          	sh	a4,2(a5)
   13626:	ff579be3          	bne	a5,s5,1361c <emul+0x164>
   1362a:	02099c23          	sh	zero,56(s3)
   1362e:	fd991de3          	bne	s2,s9,13608 <emul+0x150>
   13632:	03498713          	addi	a4,s3,52
   13636:	101c                	addi	a5,sp,32
   13638:	03a10693          	addi	a3,sp,58
   1363c:	00075603          	lhu	a2,0(a4) # 8000 <register_fini-0x80b0>
   13640:	0789                	addi	a5,a5,2
   13642:	0709                	addi	a4,a4,2
   13644:	fec79f23          	sh	a2,-2(a5)
   13648:	fef69ae3          	bne	a3,a5,1363c <emul+0x184>
   1364c:	76f1                	lui	a3,0xffffc
   1364e:	94da                	add	s1,s1,s6
   13650:	0689                	addi	a3,a3,2
   13652:	85d2                	mv	a1,s4
   13654:	1008                	addi	a0,sp,32
   13656:	87ce                	mv	a5,s3
   13658:	04000713          	li	a4,64
   1365c:	96a6                	add	a3,a3,s1
   1365e:	4601                	li	a2,0
   13660:	9e5ff0ef          	jal	ra,13044 <emdnorm>
   13664:	02015703          	lhu	a4,32(sp)
   13668:	00015783          	lhu	a5,0(sp)
   1366c:	85a2                	mv	a1,s0
   1366e:	1008                	addi	a0,sp,32
   13670:	8f99                	sub	a5,a5,a4
   13672:	00f037b3          	snez	a5,a5
   13676:	40f007bb          	negw	a5,a5
   1367a:	02f11023          	sh	a5,32(sp)
   1367e:	db9ff0ef          	jal	ra,13436 <emovo.isra.6>
   13682:	bf19                	j	13598 <emul+0xe0>
   13684:	01448713          	addi	a4,s1,20
   13688:	0489                	addi	s1,s1,2
   1368a:	ffe4d783          	lhu	a5,-2(s1)
   1368e:	0409                	addi	s0,s0,2
   13690:	fef41f23          	sh	a5,-2(s0)
   13694:	fee49ae3          	bne	s1,a4,13688 <emul+0x1d0>
   13698:	b701                	j	13598 <emul+0xe0>
   1369a:	8526                	mv	a0,s1
   1369c:	f3cff0ef          	jal	ra,12dd8 <eisinf.part.1>
   136a0:	cd49                	beqz	a0,1373a <emul+0x282>
   136a2:	00009597          	auipc	a1,0x9
   136a6:	c1e58593          	addi	a1,a1,-994 # 1c2c0 <ezero>
   136aa:	854a                	mv	a0,s2
   136ac:	e64ff0ef          	jal	ra,12d10 <ecmp>
   136b0:	0e050a63          	beqz	a0,137a4 <emul+0x2ec>
   136b4:	01295a03          	lhu	s4,18(s2)
   136b8:	bd99                	j	1350e <emul+0x56>
   136ba:	8526                	mv	a0,s1
   136bc:	f1cff0ef          	jal	ra,12dd8 <eisinf.part.1>
   136c0:	e511                	bnez	a0,136cc <emul+0x214>
   136c2:	854a                	mv	a0,s2
   136c4:	f14ff0ef          	jal	ra,12dd8 <eisinf.part.1>
   136c8:	e60507e3          	beqz	a0,13536 <emul+0x7e>
   136cc:	8526                	mv	a0,s1
   136ce:	d6cff0ef          	jal	ra,12c3a <eisneg>
   136d2:	84aa                	mv	s1,a0
   136d4:	854a                	mv	a0,s2
   136d6:	d64ff0ef          	jal	ra,12c3a <eisneg>
   136da:	40a48533          	sub	a0,s1,a0
   136de:	00a03533          	snez	a0,a0
   136e2:	053e                	slli	a0,a0,0xf
   136e4:	00a41923          	sh	a0,18(s0)
   136e8:	01240713          	addi	a4,s0,18
   136ec:	87a2                	mv	a5,s0
   136ee:	0789                	addi	a5,a5,2
   136f0:	fe079f23          	sh	zero,-2(a5)
   136f4:	fee79de3          	bne	a5,a4,136ee <emul+0x236>
   136f8:	01245783          	lhu	a5,18(s0)
   136fc:	6721                	lui	a4,0x8
   136fe:	177d                	addi	a4,a4,-1
   13700:	8fd9                	or	a5,a5,a4
   13702:	00f41923          	sh	a5,18(s0)
   13706:	bd49                	j	13598 <emul+0xe0>
   13708:	0090                	addi	a2,sp,64
   1370a:	100c                	addi	a1,sp,32
   1370c:	c72ff0ef          	jal	ra,12b7e <m16m>
   13710:	865e                	mv	a2,s7
   13712:	4581                	li	a1,0
   13714:	08b8                	addi	a4,sp,88
   13716:	00065503          	lhu	a0,0(a2)
   1371a:	00075783          	lhu	a5,0(a4) # 8000 <register_fini-0x80b0>
   1371e:	1679                	addi	a2,a2,-2
   13720:	1779                	addi	a4,a4,-2
   13722:	97aa                	add	a5,a5,a0
   13724:	97ae                	add	a5,a5,a1
   13726:	00f61123          	sh	a5,2(a2)
   1372a:	83c1                	srli	a5,a5,0x10
   1372c:	0017f593          	andi	a1,a5,1
   13730:	ff8713e3          	bne	a4,s8,13716 <emul+0x25e>
   13734:	bdf9                	j	13612 <emul+0x15a>
   13736:	0124da83          	lhu	s5,18(s1)
   1373a:	67a1                	lui	a5,0x8
   1373c:	17fd                	addi	a5,a5,-1
   1373e:	0157fab3          	and	s5,a5,s5
   13742:	1ac2                	slli	s5,s5,0x30
   13744:	030ada93          	srli	s5,s5,0x30
   13748:	defa97e3          	bne	s5,a5,13536 <emul+0x7e>
   1374c:	8526                	mv	a0,s1
   1374e:	e8aff0ef          	jal	ra,12dd8 <eisinf.part.1>
   13752:	fd2d                	bnez	a0,136cc <emul+0x214>
   13754:	01295783          	lhu	a5,18(s2)
   13758:	fff7c793          	not	a5,a5
   1375c:	03179713          	slli	a4,a5,0x31
   13760:	dc071be3          	bnez	a4,13536 <emul+0x7e>
   13764:	bfb9                	j	136c2 <emul+0x20a>
   13766:	01440793          	addi	a5,s0,20
   1376a:	0409                	addi	s0,s0,2
   1376c:	fe041f23          	sh	zero,-2(s0)
   13770:	fe879de3          	bne	a5,s0,1376a <emul+0x2b2>
   13774:	b515                	j	13598 <emul+0xe0>
   13776:	01440793          	addi	a5,s0,20
   1377a:	0409                	addi	s0,s0,2
   1377c:	fe041f23          	sh	zero,-2(s0)
   13780:	fef41de3          	bne	s0,a5,1377a <emul+0x2c2>
   13784:	bd11                	j	13598 <emul+0xe0>
   13786:	00009597          	auipc	a1,0x9
   1378a:	b3a58593          	addi	a1,a1,-1222 # 1c2c0 <ezero>
   1378e:	8526                	mv	a0,s1
   13790:	d80ff0ef          	jal	ra,12d10 <ecmp>
   13794:	c901                	beqz	a0,137a4 <emul+0x2ec>
   13796:	0124d783          	lhu	a5,18(s1)
   1379a:	00fa77b3          	and	a5,s4,a5
   1379e:	fb4787e3          	beq	a5,s4,1374c <emul+0x294>
   137a2:	bf4d                	j	13754 <emul+0x29c>
   137a4:	01040713          	addi	a4,s0,16
   137a8:	87a2                	mv	a5,s0
   137aa:	0789                	addi	a5,a5,2
   137ac:	fe079f23          	sh	zero,-2(a5) # 7ffe <register_fini-0x80b2>
   137b0:	fee79de3          	bne	a5,a4,137aa <emul+0x2f2>
   137b4:	7fffc7b7          	lui	a5,0x7fffc
   137b8:	c81c                	sw	a5,16(s0)
   137ba:	bbf9                	j	13598 <emul+0xe0>

00000000000137bc <ediv>:
   137bc:	01255783          	lhu	a5,18(a0)
   137c0:	7115                	addi	sp,sp,-224
   137c2:	e9a2                	sd	s0,208(sp)
   137c4:	fff7c793          	not	a5,a5
   137c8:	e5a6                	sd	s1,200(sp)
   137ca:	e1ca                	sd	s2,192(sp)
   137cc:	f15a                	sd	s6,160(sp)
   137ce:	ed86                	sd	ra,216(sp)
   137d0:	fd4e                	sd	s3,184(sp)
   137d2:	f952                	sd	s4,176(sp)
   137d4:	f556                	sd	s5,168(sp)
   137d6:	ed5e                	sd	s7,152(sp)
   137d8:	e962                	sd	s8,144(sp)
   137da:	e566                	sd	s9,136(sp)
   137dc:	e16a                	sd	s10,128(sp)
   137de:	fcee                	sd	s11,120(sp)
   137e0:	03179713          	slli	a4,a5,0x31
   137e4:	84aa                	mv	s1,a0
   137e6:	892e                	mv	s2,a1
   137e8:	8432                	mv	s0,a2
   137ea:	8b36                	mv	s6,a3
   137ec:	e709                	bnez	a4,137f6 <ediv+0x3a>
   137ee:	c04ff0ef          	jal	ra,12bf2 <eisnan.part.0>
   137f2:	2a051063          	bnez	a0,13a92 <ediv+0x2d6>
   137f6:	01295783          	lhu	a5,18(s2)
   137fa:	fff7c793          	not	a5,a5
   137fe:	03179713          	slli	a4,a5,0x31
   13802:	c72d                	beqz	a4,1386c <ediv+0xb0>
   13804:	00009597          	auipc	a1,0x9
   13808:	abc58593          	addi	a1,a1,-1348 # 1c2c0 <ezero>
   1380c:	8526                	mv	a0,s1
   1380e:	d02ff0ef          	jal	ra,12d10 <ecmp>
   13812:	cd55                	beqz	a0,138ce <ediv+0x112>
   13814:	0124d983          	lhu	s3,18(s1)
   13818:	01295703          	lhu	a4,18(s2)
   1381c:	67a1                	lui	a5,0x8
   1381e:	17fd                	addi	a5,a5,-1
   13820:	0137f9b3          	and	s3,a5,s3
   13824:	00e7fa33          	and	s4,a5,a4
   13828:	06f99163          	bne	s3,a5,1388a <ediv+0xce>
   1382c:	8526                	mv	a0,s1
   1382e:	daaff0ef          	jal	ra,12dd8 <eisinf.part.1>
   13832:	c171                	beqz	a0,138f6 <ediv+0x13a>
   13834:	013a1663          	bne	s4,s3,13840 <ediv+0x84>
   13838:	854a                	mv	a0,s2
   1383a:	d9eff0ef          	jal	ra,12dd8 <eisinf.part.1>
   1383e:	e145                	bnez	a0,138de <ediv+0x122>
   13840:	01440793          	addi	a5,s0,20
   13844:	0409                	addi	s0,s0,2
   13846:	fe041f23          	sh	zero,-2(s0)
   1384a:	fef41de3          	bne	s0,a5,13844 <ediv+0x88>
   1384e:	60ee                	ld	ra,216(sp)
   13850:	644e                	ld	s0,208(sp)
   13852:	64ae                	ld	s1,200(sp)
   13854:	690e                	ld	s2,192(sp)
   13856:	79ea                	ld	s3,184(sp)
   13858:	7a4a                	ld	s4,176(sp)
   1385a:	7aaa                	ld	s5,168(sp)
   1385c:	7b0a                	ld	s6,160(sp)
   1385e:	6bea                	ld	s7,152(sp)
   13860:	6c4a                	ld	s8,144(sp)
   13862:	6caa                	ld	s9,136(sp)
   13864:	6d0a                	ld	s10,128(sp)
   13866:	7de6                	ld	s11,120(sp)
   13868:	612d                	addi	sp,sp,224
   1386a:	8082                	ret
   1386c:	854a                	mv	a0,s2
   1386e:	b84ff0ef          	jal	ra,12bf2 <eisnan.part.0>
   13872:	d949                	beqz	a0,13804 <ediv+0x48>
   13874:	01490713          	addi	a4,s2,20
   13878:	0909                	addi	s2,s2,2
   1387a:	ffe95783          	lhu	a5,-2(s2)
   1387e:	0409                	addi	s0,s0,2
   13880:	fef41f23          	sh	a5,-2(s0)
   13884:	fee91ae3          	bne	s2,a4,13878 <ediv+0xbc>
   13888:	b7d9                	j	1384e <ediv+0x92>
   1388a:	06fa0863          	beq	s4,a5,138fa <ediv+0x13e>
   1388e:	8526                	mv	a0,s1
   13890:	080c                	addi	a1,sp,16
   13892:	bd2ff0ef          	jal	ra,12c64 <emovi>
   13896:	180c                	addi	a1,sp,48
   13898:	854a                	mv	a0,s2
   1389a:	bcaff0ef          	jal	ra,12c64 <emovi>
   1389e:	03215b83          	lhu	s7,50(sp)
   138a2:	01215483          	lhu	s1,18(sp)
   138a6:	080b9c63          	bnez	s7,1393e <ediv+0x182>
   138aa:	185c                	addi	a5,sp,52
   138ac:	04810b93          	addi	s7,sp,72
   138b0:	26fb8f63          	beq	s7,a5,13b2e <ediv+0x372>
   138b4:	0789                	addi	a5,a5,2
   138b6:	ffe7d683          	lhu	a3,-2(a5) # 7ffe <register_fini-0x80b2>
   138ba:	dafd                	beqz	a3,138b0 <ediv+0xf4>
   138bc:	1808                	addi	a0,sp,48
   138be:	e66ff0ef          	jal	ra,12f24 <enormlz>
   138c2:	40a007b3          	neg	a5,a0
   138c6:	e43e                	sd	a5,8(sp)
   138c8:	01215603          	lhu	a2,18(sp)
   138cc:	a89d                	j	13942 <ediv+0x186>
   138ce:	00009597          	auipc	a1,0x9
   138d2:	9f258593          	addi	a1,a1,-1550 # 1c2c0 <ezero>
   138d6:	854a                	mv	a0,s2
   138d8:	c38ff0ef          	jal	ra,12d10 <ecmp>
   138dc:	fd05                	bnez	a0,13814 <ediv+0x58>
   138de:	01040713          	addi	a4,s0,16
   138e2:	87a2                	mv	a5,s0
   138e4:	0789                	addi	a5,a5,2
   138e6:	fe079f23          	sh	zero,-2(a5)
   138ea:	fee79de3          	bne	a5,a4,138e4 <ediv+0x128>
   138ee:	7fffc7b7          	lui	a5,0x7fffc
   138f2:	c81c                	sw	a5,16(s0)
   138f4:	bfa9                	j	1384e <ediv+0x92>
   138f6:	f93a1ce3          	bne	s4,s3,1388e <ediv+0xd2>
   138fa:	854a                	mv	a0,s2
   138fc:	cdcff0ef          	jal	ra,12dd8 <eisinf.part.1>
   13900:	d559                	beqz	a0,1388e <ediv+0xd2>
   13902:	8526                	mv	a0,s1
   13904:	b36ff0ef          	jal	ra,12c3a <eisneg>
   13908:	84aa                	mv	s1,a0
   1390a:	854a                	mv	a0,s2
   1390c:	b2eff0ef          	jal	ra,12c3a <eisneg>
   13910:	40a48533          	sub	a0,s1,a0
   13914:	00a03533          	snez	a0,a0
   13918:	053e                	slli	a0,a0,0xf
   1391a:	00a41923          	sh	a0,18(s0)
   1391e:	01240713          	addi	a4,s0,18
   13922:	87a2                	mv	a5,s0
   13924:	0789                	addi	a5,a5,2
   13926:	fe079f23          	sh	zero,-2(a5) # 7fffbffe <__BSS_END__+0x7ffdd05e>
   1392a:	fee79de3          	bne	a5,a4,13924 <ediv+0x168>
   1392e:	01245783          	lhu	a5,18(s0)
   13932:	6721                	lui	a4,0x8
   13934:	177d                	addi	a4,a4,-1
   13936:	8fd9                	or	a5,a5,a4
   13938:	00f41923          	sh	a5,18(s0)
   1393c:	bf09                	j	1384e <ediv+0x92>
   1393e:	e45e                	sd	s7,8(sp)
   13940:	8626                	mv	a2,s1
   13942:	e026                	sd	s1,0(sp)
   13944:	085c                	addi	a5,sp,20
   13946:	1034                	addi	a3,sp,40
   13948:	ee09                	bnez	a2,13962 <ediv+0x1a6>
   1394a:	1ef68a63          	beq	a3,a5,13b3e <ediv+0x382>
   1394e:	0789                	addi	a5,a5,2
   13950:	ffe7d703          	lhu	a4,-2(a5)
   13954:	db7d                	beqz	a4,1394a <ediv+0x18e>
   13956:	0808                	addi	a0,sp,16
   13958:	dccff0ef          	jal	ra,12f24 <enormlz>
   1395c:	40a487b3          	sub	a5,s1,a0
   13960:	e03e                	sd	a5,0(sp)
   13962:	5742                	lw	a4,48(sp)
   13964:	038b0d13          	addi	s10,s6,56
   13968:	87ea                	mv	a5,s10
   1396a:	02eb2a23          	sw	a4,52(s6)
   1396e:	04eb0493          	addi	s1,s6,78
   13972:	0789                	addi	a5,a5,2
   13974:	fe079f23          	sh	zero,-2(a5)
   13978:	fef49de3          	bne	s1,a5,13972 <ediv+0x1b6>
   1397c:	1808                	addi	a0,sp,48
   1397e:	95aff0ef          	jal	ra,12ad8 <eshdn1>
   13982:	01615c03          	lhu	s8,22(sp)
   13986:	69c1                	lui	s3,0x10
   13988:	04810b93          	addi	s7,sp,72
   1398c:	010c1a13          	slli	s4,s8,0x10
   13990:	418a0a33          	sub	s4,s4,s8
   13994:	03210a93          	addi	s5,sp,50
   13998:	19fd                	addi	s3,s3,-1
   1399a:	06a10c93          	addi	s9,sp,106
   1399e:	05210913          	addi	s2,sp,82
   139a2:	03415503          	lhu	a0,52(sp)
   139a6:	03615783          	lhu	a5,54(sp)
   139aa:	8dce                	mv	s11,s3
   139ac:	0542                	slli	a0,a0,0x10
   139ae:	953e                	add	a0,a0,a5
   139b0:	00aa6863          	bltu	s4,a0,139c0 <ediv+0x204>
   139b4:	03855533          	divu	a0,a0,s8
   139b8:	03051d93          	slli	s11,a0,0x30
   139bc:	030ddd93          	srli	s11,s11,0x30
   139c0:	0890                	addi	a2,sp,80
   139c2:	080c                	addi	a1,sp,16
   139c4:	856e                	mv	a0,s11
   139c6:	9b8ff0ef          	jal	ra,12b7e <m16m>
   139ca:	1850                	addi	a2,sp,52
   139cc:	08dc                	addi	a5,sp,84
   139ce:	0789                	addi	a5,a5,2
   139d0:	0609                	addi	a2,a2,2
   139d2:	ffe7d503          	lhu	a0,-2(a5)
   139d6:	ffe65583          	lhu	a1,-2(a2)
   139da:	0cb51763          	bne	a0,a1,13aa8 <ediv+0x2ec>
   139de:	ff9798e3          	bne	a5,s9,139ce <ediv+0x212>
   139e2:	4501                	li	a0,0
   139e4:	10ac                	addi	a1,sp,104
   139e6:	865e                	mv	a2,s7
   139e8:	00065783          	lhu	a5,0(a2)
   139ec:	0005d803          	lhu	a6,0(a1)
   139f0:	1679                	addi	a2,a2,-2
   139f2:	8f89                	sub	a5,a5,a0
   139f4:	410787b3          	sub	a5,a5,a6
   139f8:	00f61123          	sh	a5,2(a2)
   139fc:	83c1                	srli	a5,a5,0x10
   139fe:	15f9                	addi	a1,a1,-2
   13a00:	0017f513          	andi	a0,a5,1
   13a04:	ff5612e3          	bne	a2,s5,139e8 <ediv+0x22c>
   13a08:	01bd1023          	sh	s11,0(s10)
   13a0c:	185c                	addi	a5,sp,52
   13a0e:	0789                	addi	a5,a5,2
   13a10:	0007d603          	lhu	a2,0(a5)
   13a14:	fec79f23          	sh	a2,-2(a5)
   13a18:	ff779be3          	bne	a5,s7,13a0e <ediv+0x252>
   13a1c:	04011423          	sh	zero,72(sp)
   13a20:	0d09                	addi	s10,s10,2
   13a22:	f9a490e3          	bne	s1,s10,139a2 <ediv+0x1e6>
   13a26:	4581                	li	a1,0
   13a28:	185c                	addi	a5,sp,52
   13a2a:	04a10693          	addi	a3,sp,74
   13a2e:	0789                	addi	a5,a5,2
   13a30:	ffe7d703          	lhu	a4,-2(a5)
   13a34:	8dd9                	or	a1,a1,a4
   13a36:	fed79ce3          	bne	a5,a3,13a2e <ediv+0x272>
   13a3a:	2581                	sext.w	a1,a1
   13a3c:	00b035b3          	snez	a1,a1
   13a40:	034b0713          	addi	a4,s6,52
   13a44:	181c                	addi	a5,sp,48
   13a46:	00075603          	lhu	a2,0(a4) # 8000 <register_fini-0x80b0>
   13a4a:	0789                	addi	a5,a5,2
   13a4c:	0709                	addi	a4,a4,2
   13a4e:	fec79f23          	sh	a2,-2(a5)
   13a52:	fef69ae3          	bne	a3,a5,13a46 <ediv+0x28a>
   13a56:	67a2                	ld	a5,8(sp)
   13a58:	6702                	ld	a4,0(sp)
   13a5a:	6691                	lui	a3,0x4
   13a5c:	16fd                	addi	a3,a3,-1
   13a5e:	40e78bb3          	sub	s7,a5,a4
   13a62:	1808                	addi	a0,sp,48
   13a64:	87da                	mv	a5,s6
   13a66:	04000713          	li	a4,64
   13a6a:	96de                	add	a3,a3,s7
   13a6c:	4601                	li	a2,0
   13a6e:	dd6ff0ef          	jal	ra,13044 <emdnorm>
   13a72:	03015703          	lhu	a4,48(sp)
   13a76:	01015783          	lhu	a5,16(sp)
   13a7a:	85a2                	mv	a1,s0
   13a7c:	1808                	addi	a0,sp,48
   13a7e:	8f99                	sub	a5,a5,a4
   13a80:	00f037b3          	snez	a5,a5
   13a84:	40f007bb          	negw	a5,a5
   13a88:	02f11823          	sh	a5,48(sp)
   13a8c:	9abff0ef          	jal	ra,13436 <emovo.isra.6>
   13a90:	bb7d                	j	1384e <ediv+0x92>
   13a92:	01448713          	addi	a4,s1,20
   13a96:	0489                	addi	s1,s1,2
   13a98:	ffe4d783          	lhu	a5,-2(s1)
   13a9c:	0409                	addi	s0,s0,2
   13a9e:	fef41f23          	sh	a5,-2(s0)
   13aa2:	fee49ae3          	bne	s1,a4,13a96 <ediv+0x2da>
   13aa6:	b365                	j	1384e <ediv+0x92>
   13aa8:	f2a5fde3          	bgeu	a1,a0,139e2 <ediv+0x226>
   13aac:	fffd879b          	addiw	a5,s11,-1
   13ab0:	03079893          	slli	a7,a5,0x30
   13ab4:	0308d893          	srli	a7,a7,0x30
   13ab8:	4501                	li	a0,0
   13aba:	102c                	addi	a1,sp,40
   13abc:	10b0                	addi	a2,sp,104
   13abe:	00065783          	lhu	a5,0(a2)
   13ac2:	0005d803          	lhu	a6,0(a1)
   13ac6:	1679                	addi	a2,a2,-2
   13ac8:	8f89                	sub	a5,a5,a0
   13aca:	410787b3          	sub	a5,a5,a6
   13ace:	00f61123          	sh	a5,2(a2)
   13ad2:	83c1                	srli	a5,a5,0x10
   13ad4:	15f9                	addi	a1,a1,-2
   13ad6:	0017f513          	andi	a0,a5,1
   13ada:	ff2612e3          	bne	a2,s2,13abe <ediv+0x302>
   13ade:	1850                	addi	a2,sp,52
   13ae0:	08dc                	addi	a5,sp,84
   13ae2:	0789                	addi	a5,a5,2
   13ae4:	0609                	addi	a2,a2,2
   13ae6:	ffe7d503          	lhu	a0,-2(a5)
   13aea:	ffe65583          	lhu	a1,-2(a2)
   13aee:	00b51663          	bne	a0,a1,13afa <ediv+0x33e>
   13af2:	ff9798e3          	bne	a5,s9,13ae2 <ediv+0x326>
   13af6:	8dc6                	mv	s11,a7
   13af8:	b5ed                	j	139e2 <ediv+0x226>
   13afa:	fea5fee3          	bgeu	a1,a0,13af6 <ediv+0x33a>
   13afe:	3df9                	addiw	s11,s11,-2
   13b00:	1dc2                	slli	s11,s11,0x30
   13b02:	030ddd93          	srli	s11,s11,0x30
   13b06:	4501                	li	a0,0
   13b08:	102c                	addi	a1,sp,40
   13b0a:	10b0                	addi	a2,sp,104
   13b0c:	00065783          	lhu	a5,0(a2)
   13b10:	0005d803          	lhu	a6,0(a1)
   13b14:	1679                	addi	a2,a2,-2
   13b16:	8f89                	sub	a5,a5,a0
   13b18:	410787b3          	sub	a5,a5,a6
   13b1c:	00f61123          	sh	a5,2(a2)
   13b20:	83c1                	srli	a5,a5,0x10
   13b22:	15f9                	addi	a1,a1,-2
   13b24:	0017f513          	andi	a0,a5,1
   13b28:	ff2612e3          	bne	a2,s2,13b0c <ediv+0x350>
   13b2c:	bd5d                	j	139e2 <ediv+0x226>
   13b2e:	01440793          	addi	a5,s0,20
   13b32:	0409                	addi	s0,s0,2
   13b34:	fe041f23          	sh	zero,-2(s0)
   13b38:	fe879de3          	bne	a5,s0,13b32 <ediv+0x376>
   13b3c:	bb09                	j	1384e <ediv+0x92>
   13b3e:	01015703          	lhu	a4,16(sp)
   13b42:	03015783          	lhu	a5,48(sp)
   13b46:	00f70363          	beq	a4,a5,13b4c <ediv+0x390>
   13b4a:	6621                	lui	a2,0x8
   13b4c:	00c41923          	sh	a2,18(s0)
   13b50:	01240713          	addi	a4,s0,18
   13b54:	87a2                	mv	a5,s0
   13b56:	0789                	addi	a5,a5,2
   13b58:	fe079f23          	sh	zero,-2(a5)
   13b5c:	fef71de3          	bne	a4,a5,13b56 <ediv+0x39a>
   13b60:	01245783          	lhu	a5,18(s0)
   13b64:	6721                	lui	a4,0x8
   13b66:	177d                	addi	a4,a4,-1
   13b68:	8fd9                	or	a5,a5,a4
   13b6a:	00f41923          	sh	a5,18(s0)
   13b6e:	b1c5                	j	1384e <ediv+0x92>

0000000000013b70 <e113toe.isra.8>:
   13b70:	7179                	addi	sp,sp,-48
   13b72:	f022                	sd	s0,32(sp)
   13b74:	f406                	sd	ra,40(sp)
   13b76:	842e                	mv	s0,a1
   13b78:	878a                	mv	a5,sp
   13b7a:	01a10713          	addi	a4,sp,26
   13b7e:	0789                	addi	a5,a5,2
   13b80:	fe079f23          	sh	zero,-2(a5)
   13b84:	fee79de3          	bne	a5,a4,13b7e <e113toe.isra.8+0xe>
   13b88:	00e55603          	lhu	a2,14(a0)
   13b8c:	0106179b          	slliw	a5,a2,0x10
   13b90:	4107d79b          	sraiw	a5,a5,0x10
   13b94:	02079713          	slli	a4,a5,0x20
   13b98:	04074a63          	bltz	a4,13bec <e113toe.isra.8+0x7c>
   13b9c:	67a1                	lui	a5,0x8
   13b9e:	17fd                	addi	a5,a5,-1
   13ba0:	00011023          	sh	zero,0(sp)
   13ba4:	8e7d                	and	a2,a2,a5
   13ba6:	04f60b63          	beq	a2,a5,13bfc <e113toe.isra.8+0x8c>
   13baa:	00e50793          	addi	a5,a0,14
   13bae:	00c11123          	sh	a2,2(sp)
   13bb2:	00610713          	addi	a4,sp,6
   13bb6:	17f9                	addi	a5,a5,-2
   13bb8:	0007d683          	lhu	a3,0(a5) # 8000 <register_fini-0x80b0>
   13bbc:	0709                	addi	a4,a4,2
   13bbe:	fed71f23          	sh	a3,-2(a4) # 7ffe <register_fini-0x80b2>
   13bc2:	fef51ae3          	bne	a0,a5,13bb6 <e113toe.isra.8+0x46>
   13bc6:	ea19                	bnez	a2,13bdc <e113toe.isra.8+0x6c>
   13bc8:	00011223          	sh	zero,4(sp)
   13bcc:	85a2                	mv	a1,s0
   13bce:	850a                	mv	a0,sp
   13bd0:	867ff0ef          	jal	ra,13436 <emovo.isra.6>
   13bd4:	70a2                	ld	ra,40(sp)
   13bd6:	7402                	ld	s0,32(sp)
   13bd8:	6145                	addi	sp,sp,48
   13bda:	8082                	ret
   13bdc:	4785                	li	a5,1
   13bde:	55fd                	li	a1,-1
   13be0:	850a                	mv	a0,sp
   13be2:	00f11223          	sh	a5,4(sp)
   13be6:	a04ff0ef          	jal	ra,12dea <eshift.part.3>
   13bea:	b7cd                	j	13bcc <e113toe.isra.8+0x5c>
   13bec:	57fd                	li	a5,-1
   13bee:	00f11023          	sh	a5,0(sp)
   13bf2:	67a1                	lui	a5,0x8
   13bf4:	17fd                	addi	a5,a5,-1
   13bf6:	8e7d                	and	a2,a2,a5
   13bf8:	faf619e3          	bne	a2,a5,13baa <e113toe.isra.8+0x3a>
   13bfc:	87aa                	mv	a5,a0
   13bfe:	00e50693          	addi	a3,a0,14
   13c02:	0007d703          	lhu	a4,0(a5) # 8000 <register_fini-0x80b0>
   13c06:	0789                	addi	a5,a5,2
   13c08:	e331                	bnez	a4,13c4c <e113toe.isra.8+0xdc>
   13c0a:	fef69ce3          	bne	a3,a5,13c02 <e113toe.isra.8+0x92>
   13c0e:	01440713          	addi	a4,s0,20
   13c12:	87a2                	mv	a5,s0
   13c14:	0789                	addi	a5,a5,2
   13c16:	fe079f23          	sh	zero,-2(a5)
   13c1a:	fee79de3          	bne	a5,a4,13c14 <e113toe.isra.8+0xa4>
   13c1e:	01240713          	addi	a4,s0,18
   13c22:	87a2                	mv	a5,s0
   13c24:	0789                	addi	a5,a5,2
   13c26:	fe079f23          	sh	zero,-2(a5)
   13c2a:	fee79de3          	bne	a5,a4,13c24 <e113toe.isra.8+0xb4>
   13c2e:	01245783          	lhu	a5,18(s0)
   13c32:	6721                	lui	a4,0x8
   13c34:	177d                	addi	a4,a4,-1
   13c36:	8fd9                	or	a5,a5,a4
   13c38:	00f41923          	sh	a5,18(s0)
   13c3c:	00e51783          	lh	a5,14(a0)
   13c40:	f807dae3          	bgez	a5,13bd4 <e113toe.isra.8+0x64>
   13c44:	8522                	mv	a0,s0
   13c46:	fc5fe0ef          	jal	ra,12c0a <eneg>
